 hcaptha

 Timestamp is 586f89a9 (Fri Jan  6 20:12:25 2017)

 Preferred load address is 0000000180000000

 Start         Length     Name                   Class
 0001:00000000 00000080H .text$di                CODE
 0001:00000080 0004e480H .text$mn                CODE
 0001:0004e500 00000020H .text$mn$00             CODE
 0001:0004e520 000016a0H .text$x                 CODE
 0001:0004fbc0 000001f1H .text$yd                CODE
 0002:00000000 000003c8H .idata$5                DATA
 0002:000003c8 00000010H .00cfg                  DATA
 0002:000003d8 00000008H .CRT$XCA                DATA
 0002:000003e0 00000018H .CRT$XCU                DATA
 0002:000003f8 00000008H .CRT$XCZ                DATA
 0002:00000400 00000008H .CRT$XIA                DATA
 0002:00000408 00000020H .CRT$XIC                DATA
 0002:00000428 00000008H .CRT$XIZ                DATA
 0002:00000430 00000008H .CRT$XLA                DATA
 0002:00000438 00000008H .CRT$XLZ                DATA
 0002:00000440 00000008H .CRT$XPA                DATA
 0002:00000448 00000010H .CRT$XPX                DATA
 0002:00000458 00000008H .CRT$XPXA               DATA
 0002:00000460 00000008H .CRT$XPZ                DATA
 0002:00000468 00000008H .CRT$XTA                DATA
 0002:00000470 00000010H .CRT$XTZ                DATA
 0002:00000480 00023308H .rdata                  DATA
 0002:00023788 00000028H .rdata$T                DATA
 0002:000237b0 00000404H .rdata$r                DATA
 0002:00023bb4 000004b4H .rdata$zzzdbg           DATA
 0002:00024068 00000008H .rtc$IAA                DATA
 0002:00024070 00000008H .rtc$IZZ                DATA
 0002:00024078 00000008H .rtc$TAA                DATA
 0002:00024080 00000010H .rtc$TZZ                DATA
 0002:00024090 000040f8H .xdata                  DATA
 0002:00028188 000003ccH .xdata$x                DATA
 0002:00028554 00000020H .didat$2                DATA
 0002:00028574 00000024H .didat$3                DATA
 0002:00028598 00000070H .didat$4                DATA
 0002:00028608 00000308H .didat$6                DATA
 0002:00028910 00000070H .didat$7                DATA
 0002:00028980 00000054H .edata                  DATA
 0002:000289d4 00000050H .idata$2                DATA
 0002:00028a24 00000014H .idata$3                DATA
 0002:00028a38 000003c8H .idata$4                DATA
 0002:00028e00 0000088aH .idata$6                DATA
 0003:00000000 00000a80H .data                   DATA
 0003:00000a80 00000258H .data$r                 DATA
 0003:00000cd8 00000078H .didat$5                DATA
 0003:00000d50 000014d4H .bss                    DATA
 0004:00000000 000030ccH .pdata                  DATA
 0005:00000000 00000080H .gfids$x                DATA
 0005:00000080 00000060H .gfids$y                DATA
 0006:00000000 00000004H .tls                    DATA
 0006:00000004 00000004H .tls$                   DATA
 0006:00000008 00000001H .tls$ZZZ                DATA
 0007:00000000 00000060H .rsrc$01                DATA
 0007:00000060 00000180H .rsrc$02                DATA

  Address         Publics by Value              Rva+Base               Lib:Object

 0000:00000000       __dynamic_value_reloc_table 0000000000000000     <absolute>
 0000:00000000       __guard_longjmp_count      0000000000000000     <absolute>
 0000:00000000       __guard_fids_count         0000000000000000     <absolute>
 0000:00000000       __guard_iat_table          0000000000000000     <absolute>
 0000:00000000       ___safe_se_handler_table   0000000000000000     <absolute>
 0000:00000000       __guard_longjmp_table      0000000000000000     <absolute>
 0000:00000000       ___safe_se_handler_count   0000000000000000     <absolute>
 0000:00000000       __guard_iat_count          0000000000000000     <absolute>
 0000:00000000       __guard_fids_table         0000000000000000     <absolute>
 0000:00000100       __guard_flags              0000000000000100     <absolute>
 0000:00000000       __ImageBase                0000000180000000     <linker-defined>
 0001:00000080       ?NODE_SET_METHOD@node@@YAXV?$Local@VObject@v8@@@v8@@PEBDP6AXAEBV?$FunctionCallbackInfo@VValue@v8@@@3@@Z@Z 0000000180001080 f i hcaptha.obj
 0001:00000140       ?Init@@YAXV?$Local@VObject@v8@@@v8@@@Z 0000000180001140 f   hcaptha.obj
 0001:00000160       __local_stdio_printf_options 0000000180001160 f i cap.obj
 0001:00000170       __local_stdio_scanf_options 0000000180001170 f i cap.obj
 0001:00000180       fprintf                    0000000180001180 f i cap.obj
 0001:000001d0       sprintf                    00000001800011d0 f i cap.obj
 0001:00000230       _snprintf                  0000000180001230 f i cap.obj
 0001:00000290       sscanf                     0000000180001290 f i cap.obj
 0001:000002e0       ??0exception@stdext@@QEAA@AEBV01@@Z 00000001800012e0 f i cap.obj
 0001:00000300       ?what@exception@stdext@@UEBAPEBDXZ 0000000180001300 f i cap.obj
 0001:00000320       ??$destroy@PEAD@?$_Wrap_alloc@V?$allocator@D@std@@@std@@QEAAXPEAPEAD@Z 0000000180001320 f i cap.obj
 0001:00000320       __except_validate_context_record 0000000180001320 f i libvcruntime:jbcxrval.obj
 0001:00000320       ?_Doraise@exception@stdext@@MEBAXXZ 0000000180001320 f i cap.obj
 0001:00000320       _guard_check_icall_nop     0000000180001320 f i LIBCMT:guard_support.obj
 0001:00000320       ??1?$_String_alloc@U?$_String_base_types@DV?$allocator@D@std@@@std@@@std@@QEAA@XZ 0000000180001320 f i cap.obj
 0001:00000330       ??_Eexception@stdext@@UEAAPEAXI@Z 0000000180001330 f i * CIL library *:* CIL module *
 0001:00000330       ??_Gexception@stdext@@UEAAPEAXI@Z 0000000180001330 f i cap.obj
 0001:00000360       ?what@CImgException@cimg_library@@UEBAPEBDXZ 0000000180001360 f i cap.obj
 0001:00000370       ??_GCImgArgumentException@cimg_library@@UEAAPEAXI@Z 0000000180001370 f i cap.obj
 0001:00000370       ??_ECImgIOException@cimg_library@@UEAAPEAXI@Z 0000000180001370 f i * CIL library *:* CIL module *
 0001:00000370       ??_ECImgArgumentException@cimg_library@@UEAAPEAXI@Z 0000000180001370 f i * CIL library *:* CIL module *
 0001:00000370       ??_GCImgIOException@cimg_library@@UEAAPEAXI@Z 0000000180001370 f i cap.obj
 0001:00000370       ??_ECImgException@cimg_library@@UEAAPEAXI@Z 0000000180001370 f i * CIL library *:* CIL module *
 0001:00000370       ??_GCImgException@cimg_library@@UEAAPEAXI@Z 0000000180001370 f i cap.obj
 0001:00000370       ??_GCImgInstanceException@cimg_library@@UEAAPEAXI@Z 0000000180001370 f i cap.obj
 0001:00000370       ??_ECImgInstanceException@cimg_library@@UEAAPEAXI@Z 0000000180001370 f i * CIL library *:* CIL module *
 0001:000003a0       ??0CImgInstanceException@cimg_library@@QEAA@QEBDZZ 00000001800013a0 f i cap.obj
 0001:000004e0       ??1CImgArgumentException@cimg_library@@UEAA@XZ 00000001800014e0 f i cap.obj
 0001:000004e0       ??1CImgInstanceException@cimg_library@@UEAA@XZ 00000001800014e0 f i cap.obj
 0001:000004e0       ??1CImgIOException@cimg_library@@UEAA@XZ 00000001800014e0 f i cap.obj
 0001:000004f0       ??0CImgArgumentException@cimg_library@@QEAA@QEBDZZ 00000001800014f0 f i cap.obj
 0001:000005e0       ??0CImgIOException@cimg_library@@QEAA@QEBDZZ 00000001800015e0 f i cap.obj
 0001:000006d0       ?Win32_attr@cimg@cimg_library@@YAAEAUWin32_info@12@XZ 00000001800016d0 f i cap.obj
 0001:00000740       ?output@cimg@cimg_library@@YAPEAU_iobuf@@PEAU3@@Z 0000000180001740 f i cap.obj
 0001:000007b0       ?warn@cimg@cimg_library@@YAXQEBDZZ 00000001800017b0 f i cap.obj
 0001:00000890       ?system@cimg@cimg_library@@YAHQEBD0@Z 0000000180001890 f i cap.obj
 0001:00000960       ?_wait@cimg@cimg_library@@YAIIAEAK@Z 0000000180001960 f i cap.obj
 0001:00000a30       ?strncasecmp@cimg@cimg_library@@YAHQEBD0H@Z 0000000180001a30 f i cap.obj
 0001:00000ac0       ?strbuffersize@cimg@cimg_library@@YAPEBDK@Z 0000000180001ac0 f i cap.obj
 0001:00000b80       ?filenamerand@cimg@cimg_library@@YAPEBDXZ 0000000180001b80 f i cap.obj
 0001:00000ca0       ?winformat_string@cimg@cimg_library@@YAXQEAD@Z 0000000180001ca0 f i cap.obj
 0001:00000d00       ?fopen@cimg@cimg_library@@YAPEAU_iobuf@@QEBD0@Z 0000000180001d00 f i cap.obj
 0001:00000e50       ??0CImgIOException@cimg_library@@QEAA@AEBU01@@Z 0000000180001e50 f i cap.obj
 0001:00000e50       ??0CImgArgumentException@cimg_library@@QEAA@AEBU01@@Z 0000000180001e50 f i cap.obj
 0001:00000e50       ??0CImgInstanceException@cimg_library@@QEAA@AEBU01@@Z 0000000180001e50 f i cap.obj
 0001:00000ef0       ??0CImgException@cimg_library@@QEAA@AEBU01@@Z 0000000180001ef0 f i cap.obj
 0001:00000f80       ?fclose@cimg@cimg_library@@YAHPEAU_iobuf@@@Z 0000000180001f80 f i cap.obj
 0001:00000ff0       ?temporary_path@cimg@cimg_library@@YAPEBDQEBD_N@Z 0000000180001ff0 f i cap.obj
 0001:00001540       ?programfiles_path@cimg@cimg_library@@YAPEBDQEBD_N@Z 0000000180002540 f i cap.obj
 0001:000015f0       ?imagemagick_path@cimg@cimg_library@@YAPEBDQEBD_N@Z 00000001800025f0 f i cap.obj
 0001:00002010       ?graphicsmagick_path@cimg@cimg_library@@YAPEBDQEBD_N@Z 0000000180003010 f i cap.obj
 0001:00002a20       ?medcon_path@cimg@cimg_library@@YAPEBDQEBD_N@Z 0000000180003a20 f i cap.obj
 0001:00002b50       ?ffmpeg_path@cimg@cimg_library@@YAPEBDQEBD_N@Z 0000000180003b50 f i cap.obj
 0001:00002c20       ?gzip_path@cimg@cimg_library@@YAPEBDQEBD_N@Z 0000000180003c20 f i cap.obj
 0001:00002cf0       ?split_filename@cimg@cimg_library@@YAPEBDQEBDQEAD@Z 0000000180003cf0 f i cap.obj
 0001:00002dc0       ?fempty@cimg@cimg_library@@YAXQEAU_iobuf@@QEBD@Z 0000000180003dc0 f i cap.obj
 0001:00002e40       ?info@cimg@cimg_library@@YAXXZ 0000000180003e40 f i cap.obj
 0001:00003800       ?set_key@CImgDisplay@cimg_library@@QEAAAEAU12@XZ 0000000180004800 f i cap.obj
 0001:00003aa0       ?set_key@CImgDisplay@cimg_library@@QEAAAEAU12@I_N@Z 0000000180004aa0 f i cap.obj
 0001:00004110       ?screen_width@CImgDisplay@cimg_library@@SAHXZ 0000000180005110 f i cap.obj
 0001:00004160       ?screen_height@CImgDisplay@cimg_library@@SAHXZ 0000000180005160 f i cap.obj
 0001:000041b0       ?_handle_events@CImgDisplay@cimg_library@@SA_JPEAUHWND__@@I_K_J@Z 00000001800051b0 f i cap.obj
 0001:000048c0       ?_events_thread@CImgDisplay@cimg_library@@SAKPEAX@Z 00000001800058c0 f i cap.obj
 0001:00004ca0       ?_update_window_pos@CImgDisplay@cimg_library@@QEAAAEAU12@XZ 0000000180005ca0 f i cap.obj
 0001:00004d80       ?_init_fullscreen@CImgDisplay@cimg_library@@QEAAXXZ 0000000180005d80 f i cap.obj
 0001:00004fb0       ?_assign@CImgDisplay@cimg_library@@QEAAAEAU12@IIQEBDI_N1@Z 0000000180005fb0 f i cap.obj
 0001:000051e0       ?assign@CImgDisplay@cimg_library@@QEAAAEAU12@XZ 00000001800061e0 f i cap.obj
 0001:00005300       ?resize@CImgDisplay@cimg_library@@QEAAAEAU12@HH_N@Z 0000000180006300 f i cap.obj
 0001:00005570       ?move@CImgDisplay@cimg_library@@QEAAAEAU12@HH@Z 0000000180006570 f i cap.obj
 0001:000056c0       ?paint@CImgDisplay@cimg_library@@QEAAAEAU12@XZ 00000001800066c0 f i cap.obj
 0001:00005750       ?dialog@cimg@cimg_library@@YAHQEBD0000000_N@Z 0000000180006750 f i cap.obj
 0001:000057d0       ?create@cap@@SAXAEBV?$FunctionCallbackInfo@VValue@v8@@@v8@@@Z 00000001800067d0 f   cap.obj
 0001:00005b90       ?save@cap@@SAHXZ           0000000180006b90 f   cap.obj
 0001:00006470       ?_logo40x38@?$CImg@E@cimg_library@@SA?AU12@XZ 0000000180007470 f i cap.obj
 0001:000065e0       ?save@?$CImg@E@cimg_library@@QEBAAEBU12@QEBDH@Z 00000001800075e0 f i cap.obj
 0001:000073e0       ?shift@?$CImg@E@cimg_library@@QEAAAEAU12@HHHHH@Z 00000001800083e0 f i cap.obj
 0001:00007640       ?resize@?$CImg@E@cimg_library@@QEAAAEAU12@HHHHHIMMMM@Z 0000000180008640 f i cap.obj
 0001:00007870       ?normalize@?$CImg@E@cimg_library@@QEAAAEAU12@EE@Z 0000000180008870 f i cap.obj
 0001:00007a70       ?noise@?$CImg@E@cimg_library@@QEAAAEAU12@NI@Z 0000000180008a70 f i cap.obj
 0001:00007c60       ?fill@?$CImg@E@cimg_library@@QEAAAEAU12@E@Z 0000000180008c60 f i cap.obj
 0001:00007cc0       ??0?$CImg@E@cimg_library@@QEAA@AEBU01@@Z 0000000180008cc0 f i cap.obj
 0001:00007db0       ??0?$CImg@E@cimg_library@@QEAA@IIIIE@Z 0000000180008db0 f i cap.obj
 0001:00007ea0       ??0?$CImg@E@cimg_library@@QEAA@IIII@Z 0000000180008ea0 f i cap.obj
 0001:00007f50       ??4?$basic_string@DU?$char_traits@D@std@@V?$allocator@D@2@@std@@QEAAAEAV01@$$QEAV01@@Z 0000000180008f50 f i cap.obj
 0001:00008000       ?save_other@?$CImg@E@cimg_library@@QEBAAEBU12@QEBDI@Z 0000000180009000 f i cap.obj
 0001:000081e0       ?save_medcon_external@?$CImg@E@cimg_library@@QEBAAEBU12@QEBD@Z 00000001800091e0 f i cap.obj
 0001:00008630       ?save_gzip_external@?$CImg@E@cimg_library@@QEBAAEBU12@QEBD@Z 0000000180009630 f i cap.obj
 0001:00008ab0       ?save_ffmpeg@?$CImg@E@cimg_library@@QEBAAEBU12@QEBDII@Z 0000000180009ab0 f i cap.obj
 0001:00008b90       ?save_exr@?$CImg@E@cimg_library@@QEBAAEBU12@QEBD@Z 0000000180009b90 f i cap.obj
 0001:00008ce0       ?save_cimg@?$CImg@E@cimg_library@@QEBAAEBU12@QEBD_N@Z 0000000180009ce0 f i cap.obj
 0001:00008d40       ?save_analyze@?$CImg@E@cimg_library@@QEBAAEBU12@QEBDQEBM@Z 0000000180009d40 f i cap.obj
 0001:00009450       ?save_minc2@?$CImg@E@cimg_library@@QEBAAEBU12@QEBD0@Z 000000018000a450 f i cap.obj
 0001:00009530       ?save_tiff@?$CImg@E@cimg_library@@QEBAAEBU12@QEBDI@Z 000000018000a530 f i cap.obj
 0001:00009610       ?_save_jpeg@?$CImg@E@cimg_library@@QEBAAEBU12@QEAU_iobuf@@QEBDI@Z 000000018000a610 f i cap.obj
 0001:00009760       ?get_shared_rows@?$CImg@E@cimg_library@@QEAA?AU12@IIII@Z 000000018000a760 f i cap.obj
 0001:000098a0       ?get_resize@?$CImg@E@cimg_library@@QEBA?AU12@HHHHHIMMMM@Z 000000018000a8a0 f i cap.obj
 0001:0000f970       ?is_empty@?$CImg@E@cimg_library@@QEBA_NXZ 0000000180010970 f i cap.obj
 0001:0000f9a0       ?size@?$CImg@E@cimg_library@@QEBAKXZ 00000001800109a0 f i cap.obj
 0001:0000f9b0       ?pixel_type@?$CImg@E@cimg_library@@SAPEBDXZ 00000001800109b0 f i cap.obj
 0001:0000f9c0       ?move_to@?$CImg@E@cimg_library@@QEAAAEAU12@AEAU12@@Z 00000001800109c0 f i cap.obj
 0001:0000fa80       ?assign@?$CImg@E@cimg_library@@QEAAAEAU12@IIIIE@Z 0000000180010a80 f i cap.obj
 0001:0000fae0       ?assign@?$CImg@E@cimg_library@@QEAAAEAU12@XZ 0000000180010ae0 f i cap.obj
 0001:0000fae0       ?assign@?$CImg@M@cimg_library@@QEAAAEAU12@XZ 0000000180010ae0 f i cap.obj
 0001:0000fae0       ?assign@?$CImg@D@cimg_library@@QEAAAEAU12@XZ 0000000180010ae0 f i cap.obj
 0001:0000fb20       ??0?$CImg@E@cimg_library@@QEAA@AEBU01@_N@Z 0000000180010b20 f i cap.obj
 0001:0000fc00       ?assign@?$basic_string@DU?$char_traits@D@std@@V?$allocator@D@2@@std@@QEAAAEAV12@PEBD_K@Z 0000000180010c00 f i cap.obj
 0001:0000fd30       ?assign@?$basic_string@DU?$char_traits@D@std@@V?$allocator@D@2@@std@@QEAAAEAV12@AEBV12@_K1@Z 0000000180010d30 f i cap.obj
 0001:0000fe60       ?_Assign_rv@?$basic_string@DU?$char_traits@D@std@@V?$allocator@D@2@@std@@QEAAX$$QEAV12@@Z 0000000180010e60 f i cap.obj
 0001:0000fee0       ??_E?$CImg@M@cimg_library@@QEAAPEAXI@Z 0000000180010ee0 f i cap.obj
 0001:0000fee0       ??_E?$CImg@E@cimg_library@@QEAAPEAXI@Z 0000000180010ee0 f i cap.obj
 0001:0000fee0       ??_E?$CImg@D@cimg_library@@QEAAPEAXI@Z 0000000180010ee0 f i cap.obj
 0001:0000ff50       ??0?$CImg@I@cimg_library@@QEAA@IIII@Z 0000000180010f50 f i cap.obj
 0001:00010000       ?_system_strescape@?$CImg@D@cimg_library@@QEAAAEAU12@XZ 0000000180011000 f i cap.obj
 0001:00010560       ?assign@?$CImg@D@cimg_library@@QEAAAEAU12@QEBDIIII@Z 0000000180011560 f i cap.obj
 0001:00010710       ??0?$CImg@M@cimg_library@@QEAA@IIIIM@Z 0000000180011710 f i cap.obj
 0001:000107f0       ??0?$CImg@M@cimg_library@@QEAA@IIII@Z 00000001800117f0 f i cap.obj
 0001:000108c0       ?save_imagemagick_external@?$CImg@E@cimg_library@@QEBAAEBU12@QEBDI@Z 00000001800118c0 f i cap.obj
 0001:00010c50       ?save_graphicsmagick_external@?$CImg@E@cimg_library@@QEBAAEBU12@QEBDI@Z 0000000180011c50 f i cap.obj
 0001:00010fe0       ?save_ffmpeg_external@?$CImg@E@cimg_library@@QEBAAEBU12@QEBD0II@Z 0000000180011fe0 f i cap.obj
 0001:00011120       ?_save_raw@?$CImg@E@cimg_library@@QEBAAEBU12@QEAU_iobuf@@QEBD_N@Z 0000000180012120 f i cap.obj
 0001:000112a0       ?_save_pandore@?$CImg@E@cimg_library@@QEBAAEBU12@QEAU_iobuf@@QEBDI@Z 00000001800122a0 f i cap.obj
 0001:00016a20       ?_save_inr@?$CImg@E@cimg_library@@QEBAAEBU12@QEAU_iobuf@@QEBDQEBM@Z 0000000180017a20 f i cap.obj
 0001:00016e70       ?_save_rgba@?$CImg@E@cimg_library@@QEBAAEBU12@QEAU_iobuf@@QEBD@Z 0000000180017e70 f i cap.obj
 0001:000171e0       ?_save_rgb@?$CImg@E@cimg_library@@QEBAAEBU12@QEAU_iobuf@@QEBD@Z 00000001800181e0 f i cap.obj
 0001:000174b0       ?_save_pfm@?$CImg@E@cimg_library@@QEBAAEBU12@QEAU_iobuf@@QEBD@Z 00000001800184b0 f i cap.obj
 0001:00017c30       ?_save_pnk@?$CImg@E@cimg_library@@QEBAAEBU12@QEAU_iobuf@@QEBD@Z 0000000180018c30 f i cap.obj
 0001:00017f00       ?_save_pnm@?$CImg@E@cimg_library@@QEBAAEBU12@QEAU_iobuf@@QEBDI@Z 0000000180018f00 f i cap.obj
 0001:00018700       ?_save_png@?$CImg@E@cimg_library@@QEBAAEBU12@QEAU_iobuf@@QEBDI@Z 0000000180019700 f i cap.obj
 0001:000187f0       ?save_magick@?$CImg@E@cimg_library@@QEBAAEBU12@QEBDI@Z 00000001800197f0 f i cap.obj
 0001:00018940       ?_save_bmp@?$CImg@E@cimg_library@@QEBAAEBU12@QEAU_iobuf@@QEBD@Z 0000000180019940 f i cap.obj
 0001:00018e30       ?_save_dlm@?$CImg@E@cimg_library@@QEBAAEBU12@QEAU_iobuf@@QEBD@Z 0000000180019e30 f i cap.obj
 0001:000190f0       ?_save_cpp@?$CImg@E@cimg_library@@QEBAAEBU12@QEAU_iobuf@@QEBD@Z 000000018001a0f0 f i cap.obj
 0001:000193a0       ?_save_ascii@?$CImg@E@cimg_library@@QEBAAEBU12@QEAU_iobuf@@QEBD@Z 000000018001a3a0 f i cap.obj
 0001:000195c0       ?draw_image@?$CImg@E@cimg_library@@QEAAAEAU12@HHHHAEBU12@M@Z 000000018001a5c0 f i cap.obj
 0001:00019c80       ?deriche@?$CImg@E@cimg_library@@QEAAAEAU12@MHD_N@Z 000000018001ac80 f i cap.obj
 0001:0001af80       ?get_split@?$CImg@E@cimg_library@@QEBA?AU?$CImgList@E@2@DH@Z 000000018001bf80 f i cap.obj
 0001:0001b0c0       ?get_crop@?$CImg@E@cimg_library@@QEBA?AU12@HHHHHHHH_N@Z 000000018001c0c0 f i cap.obj
 0001:0001b330       ?_cimg_lanczos@?$CImg@E@cimg_library@@SAMM@Z 000000018001c330 f i cap.obj
 0001:0001b330       ?_cimg_lanczos@?$CImg@M@cimg_library@@SAMM@Z 000000018001c330 f i cap.obj
 0001:0001b3d0       ?assign@?$CImg@E@cimg_library@@QEAAAEAU12@IIII@Z 000000018001c3d0 f i cap.obj
 0001:0001b550       ??0?$CImg@E@cimg_library@@QEAA@QEBEIIII_N@Z 000000018001c550 f i cap.obj
 0001:0001b5b0       ??0?$CImg@K@cimg_library@@QEAA@IIII@Z 000000018001c5b0 f i cap.obj
 0001:0001b660       ?erase@?$basic_string@DU?$char_traits@D@std@@V?$allocator@D@2@@std@@QEAAAEAV12@_K0@Z 000000018001c660 f i cap.obj
 0001:0001b730       ??0?$CImg@G@cimg_library@@QEAA@IIII@Z 000000018001c730 f i cap.obj
 0001:0001b7e0       ?move_to@?$CImg@D@cimg_library@@QEAAAEAU12@AEAU12@@Z 000000018001c7e0 f i cap.obj
 0001:0001b8a0       ?assign@?$CImg@D@cimg_library@@QEAAAEAU12@IIII@Z 000000018001c8a0 f i cap.obj
 0001:0001ba20       ??0?$CImg@D@cimg_library@@QEAA@QEBDIIII_N@Z 000000018001ca20 f i cap.obj
 0001:0001bae0       ?save_ffmpeg_external@?$CImgList@E@cimg_library@@QEBAAEBU12@QEBD0II@Z 000000018001cae0 f i cap.obj
 0001:0001c200       ?_save_cimg@?$CImgList@E@cimg_library@@QEBAAEBU12@QEAU_iobuf@@QEBD_N@Z 000000018001d200 f i cap.obj
 0001:0001c430       ?_save_yuv@?$CImgList@E@cimg_library@@QEBAAEBU12@QEAU_iobuf@@QEBD_N@Z 000000018001d430 f i cap.obj
 0001:0001c6a0       ?fill@?$CImg@M@cimg_library@@QEAAAEAU12@M@Z 000000018001d6a0 f i cap.obj
 0001:0001c760       ?_save_pandore_header_length@?$CImg@E@cimg_library@@QEBAIIPEAII@Z 000000018001d760 f i cap.obj
 0001:0001c8a0       ?mirror@?$CImg@E@cimg_library@@QEAAAEAU12@D@Z 000000018001d8a0 f i cap.obj
 0001:0001c9c0       ?_Copy@?$basic_string@DU?$char_traits@D@std@@V?$allocator@D@2@@std@@QEAAX_K0@Z 000000018001d9c0 f i cap.obj
 0001:0001cb40       ?get_append@?$CImgList@D@cimg_library@@QEBA?AU?$CImg@D@2@DM@Z 000000018001db40 f i cap.obj
 0001:0001cda0       ?assign@?$CImgList@M@cimg_library@@QEAAAEAU12@I@Z 000000018001dda0 f i cap.obj
 0001:0001cda0       ?assign@?$CImgList@E@cimg_library@@QEAAAEAU12@I@Z 000000018001dda0 f i cap.obj
 0001:0001cea0       ?RGBtoYCbCr@?$CImg@E@cimg_library@@QEAAAEAU12@XZ 000000018001dea0 f i cap.obj
 0001:0001d190       ?draw_image@?$CImg@D@cimg_library@@QEAAAEAU12@HHHHAEBU12@M@Z 000000018001e190 f i cap.obj
 0001:0001d850       ??0?$CImg@D@cimg_library@@QEAA@AEBU01@@Z 000000018001e850 f i cap.obj
 0001:0001d940       ??0?$CImg@D@cimg_library@@QEAA@AEBU01@_N@Z 000000018001e940 f i cap.obj
 0001:0001da20       ??$_render_resize@II@CImgDisplay@cimg_library@@SAXPEBIIIPEAIII@Z 000000018001ea20 f i cap.obj
 0001:0001dbe0       ??$dialog@E@cimg@cimg_library@@YAHQEBD0000000AEBU?$CImg@E@1@_N@Z 000000018001ebe0 f i cap.obj
 0001:0001f690       ??$draw_text@E@?$CImg@E@cimg_library@@QEAAAEAU01@HHQEBDQEBEHMIZZ 0000000180020690 f i cap.obj
 0001:0001f790       ??$draw_circle@E@?$CImg@E@cimg_library@@QEAAAEAU01@HHHQEBEMI@Z 0000000180020790 f i cap.obj
 0001:0001fb60       ??$draw_line@E@?$CImg@E@cimg_library@@QEAAAEAU01@HHHHQEBEMI_N@Z 0000000180020b60 f i cap.obj
 0001:00020230       ??$?_5E@?$CImg@E@cimg_library@@QEAAAEAU01@AEBU01@@Z 0000000180021230 f i cap.obj
 0001:00020460       ??$max_min@E@?$CImg@E@cimg_library@@QEAAAEAEAEAE@Z 0000000180021460 f i cap.obj
 0001:00020590       ??$min_max@M@?$CImg@E@cimg_library@@QEBAAEBEAEAM@Z 0000000180021590 f i cap.obj
 0001:00020590       ??$min_max@M@?$CImg@E@cimg_library@@QEAAAEAEAEAM@Z 0000000180021590 f i cap.obj
 0001:000206e0       ??$?0E@?$CImgList@E@cimg_library@@QEAA@AEBU?$CImg@E@1@_N@Z 00000001800216e0 f i cap.obj
 0001:000207b0       ??$fwrite@D@cimg@cimg_library@@YAHPEBDKPEAU_iobuf@@@Z 00000001800217b0 f i cap.obj
 0001:000208d0       ??$fwrite@E@cimg@cimg_library@@YAHPEBEKPEAU_iobuf@@@Z 00000001800218d0 f i cap.obj
 0001:00020a10       ??$move_to@E@?$CImgList@E@cimg_library@@QEAAAEAU01@AEAU01@@Z 0000000180021a10 f i cap.obj
 0001:00020b70       ??$fwrite@K@cimg@cimg_library@@YAHPEBKKPEAU_iobuf@@@Z 0000000180021b70 f i cap.obj
 0001:00020cb0       ??$fwrite@G@cimg@cimg_library@@YAHPEBGKPEAU_iobuf@@@Z 0000000180021cb0 f i cap.obj
 0001:00020df0       ??$fwrite@M@cimg@cimg_library@@YAHPEBMKPEAU_iobuf@@@Z 0000000180021df0 f i cap.obj
 0001:00020f30       ??$max_min@N@?$CImg@E@cimg_library@@QEBAAEBEAEAN@Z 0000000180021f30 f i cap.obj
 0001:00021080       ??$move_to@E@?$CImg@E@cimg_library@@QEAAAEAU?$CImgList@E@1@AEAU21@I@Z 0000000180022080 f i cap.obj
 0001:00021110       ?assign@?$CImg@D@cimg_library@@QEAAAEAU12@QEBDIIII_N@Z 0000000180022110 f i cap.obj
 0001:000211c0       ??0?$CImg@M@cimg_library@@QEAA@AEBU01@@Z 00000001800221c0 f i cap.obj
 0001:000212c0       ?assign@?$CImg@E@cimg_library@@QEAAAEAU12@QEBEIIII_N@Z 00000001800222c0 f i cap.obj
 0001:000214a0       ?assign@?$CImg@E@cimg_library@@QEAAAEAU12@QEBEIIII@Z 00000001800224a0 f i cap.obj
 0001:00021650       ??0?$_Wrap_alloc@V?$allocator@D@std@@@std@@QEAA@XZ 0000000180022650 f i cap.obj
 0001:00021660       ?insert@?$CImgList@D@cimg_library@@QEAAAEAU12@AEBU?$CImg@D@2@I_N@Z 0000000180022660 f i cap.obj
 0001:00021910       ?insert@?$CImgList@E@cimg_library@@QEAAAEAU12@AEBU?$CImg@E@2@I_N@Z 0000000180022910 f i cap.obj
 0001:00021bc0       ?get_crop@?$CImg@M@cimg_library@@QEBA?AU12@HHHHHHHH_N@Z 0000000180022bc0 f i cap.obj
 0001:00021e10       ??0?$CImg@M@cimg_library@@QEAA@AEBU01@_N@Z 0000000180022e10 f i cap.obj
 0001:00021f00       ?draw_image@?$CImg@M@cimg_library@@QEAAAEAU12@HHHHAEBU12@M@Z 0000000180022f00 f i cap.obj
 0001:00022690       ??$draw_text@EE@?$CImg@E@cimg_library@@QEAAAEAU01@HHQEBDQEBE1MIZZ 0000000180023690 f i cap.obj
 0001:00022d40       ??$?ZE@?$CImg@E@cimg_library@@QEAAAEAU01@AEBU01@@Z 0000000180023d40 f i cap.obj
 0001:00022f70       ??$display@E@CImgDisplay@cimg_library@@QEAAAEAU01@AEBU?$CImg@E@1@@Z 0000000180023f70 f i cap.obj
 0001:00023060       ?font@?$CImgList@M@cimg_library@@SAAEBU12@I_N@Z 0000000180024060 f i cap.obj
 0001:000236a0       ?resize@?$CImg@M@cimg_library@@QEAAAEAU12@HHHHHIMMMM@Z 00000001800246a0 f i cap.obj
 0001:00023920       ?assign@?$CImg@M@cimg_library@@QEAAAEAU12@QEBMIIII_N@Z 0000000180024920 f i cap.obj
 0001:00023b00       ?assign@?$CImg@M@cimg_library@@QEAAAEAU12@IIII@Z 0000000180024b00 f i cap.obj
 0001:00023c90       ?_font@?$CImgList@M@cimg_library@@SA?AU12@QEBIII_N@Z 0000000180024c90 f i cap.obj
 0001:00024170       ?empty@?$CImgList@M@cimg_library@@SAAEAU12@XZ 0000000180025170 f i cap.obj
 0001:00024210       ?assign@?$CImgList@M@cimg_library@@QEAAAEAU12@AEBU12@_N@Z 0000000180025210 f i cap.obj
 0001:000243b0       ?get_resize@?$CImg@M@cimg_library@@QEBA?AU12@HHHHHIMMMM@Z 00000001800253b0 f i cap.obj
 0001:0002a1e0       ?move_to@?$CImg@M@cimg_library@@QEAAAEAU12@AEAU12@@Z 000000018002b1e0 f i cap.obj
 0001:0002a2a0       ?assign@?$CImg@M@cimg_library@@QEAAAEAU12@QEBMIIII@Z 000000018002b2a0 f i cap.obj
 0001:0002a470       ?get_crop_font@?$CImgList@M@cimg_library@@QEBA?AU12@XZ 000000018002b470 f i cap.obj
 0001:0002a8e0       ??$_draw_text@EEM@?$CImg@E@cimg_library@@QEAAAEAU01@HHQEBDQEBE1MAEBU?$CImgList@M@1@@Z 000000018002b8e0 f i cap.obj
 0001:0002b0b0       ??$draw_rectangle@E@?$CImg@E@cimg_library@@QEAAAEAU01@HHHHHHQEBEM@Z 000000018002c0b0 f i cap.obj
 0001:0002b280       ??$assign@E@CImgDisplay@cimg_library@@QEAAAEAU01@AEBU?$CImg@E@1@QEBDI_N2@Z 000000018002c280 f i cap.obj
 0001:0002b3c0       ??$draw_point@E@?$CImg@E@cimg_library@@QEAAAEAU01@HHHQEBEM@Z 000000018002c3c0 f i cap.obj
 0001:0002b5a0       ??$assign@M@?$CImg@E@cimg_library@@QEAAAEAU01@QEBMIIII@Z 000000018002c5a0 f i cap.obj
 0001:0002b6c0       ??$render@E@CImgDisplay@cimg_library@@QEAAAEAU01@AEBU?$CImg@E@1@@Z 000000018002c6c0 f i cap.obj
 0001:0002bf50       ??$insert@M@?$CImgList@M@cimg_library@@QEAAAEAU01@AEBU01@I_N@Z 000000018002cf50 f i cap.obj
 0001:0002c080       ??$move_to@M@?$CImgList@M@cimg_library@@QEAAAEAU01@AEAU01@@Z 000000018002d080 f i cap.obj
 0001:0002c1e0       ?insert@?$CImgList@M@cimg_library@@QEAAAEAU12@AEBU?$CImg@M@2@I_N@Z 000000018002d1e0 f i cap.obj
 0001:0002c580       ?draw_rectangle@?$CImg@E@cimg_library@@QEAAAEAU12@HHHHHHHHEM@Z 000000018002d580 f i cap.obj
 0001:0002c980       ?get_projections2d@?$CImg@E@cimg_library@@QEBA?AU12@III@Z 000000018002d980 f i cap.obj
 0001:0002cd00       ?get_shared_channels@?$CImg@E@cimg_library@@QEAA?AU12@II@Z 000000018002dd00 f i cap.obj
 0001:0002ce30       ?min@?$CImg@E@cimg_library@@QEBAAEBEXZ 000000018002de30 f i cap.obj
 0001:0002cf30       ??$_get_permute_axes@E@?$CImg@E@cimg_library@@QEBA?AU01@QEBDAEBE@Z 000000018002df30 f i cap.obj
 0001:0002ee10       ??$draw_image@MM@?$CImg@E@cimg_library@@QEAAAEAU01@HHHHAEBU?$CImg@M@1@0MM@Z 000000018002fe10 f i cap.obj
 0001:0002f750       ??$draw_image@M@?$CImg@E@cimg_library@@QEAAAEAU01@HHHHAEBU?$CImg@M@1@M@Z 0000000180030750 f i cap.obj
 0001:0002fde0       ??$is_overlapped@M@?$CImg@E@cimg_library@@QEBA_NAEBU?$CImg@M@1@@Z 0000000180030de0 f i cap.obj
 0001:0002fe20       ??$assign@M@?$CImg@E@cimg_library@@QEAAAEAU01@QEBMIIII_N@Z 0000000180030e20 f i cap.obj
 0001:0002ff3c       __imp_load_?GetCurrent@Isolate@v8@@SAPEAV12@XZ 0000000180030f3c f   node:node.exe
 0001:0002ff48       __tailMerge_node_exe       0000000180030f48 f i node:node.exe
 0001:0002ffc1       __imp_load_??1HandleScope@v8@@QEAA@XZ 0000000180030fc1 f   node:node.exe
 0001:0002ffcd       __imp_load_??0HandleScope@v8@@QEAA@PEAVIsolate@1@@Z 0000000180030fcd f   node:node.exe
 0001:0002ffd9       __imp_load_?GetFunction@FunctionTemplate@v8@@QEAA?AV?$Local@VFunction@v8@@@2@XZ 0000000180030fd9 f   node:node.exe
 0001:0002ffe5       __imp_load_?New@FunctionTemplate@v8@@SA?AV?$Local@VFunctionTemplate@v8@@@2@PEAVIsolate@2@P6AXAEBV?$FunctionCallbackInfo@VValue@v8@@@2@@ZV?$Local@VValue@v8@@@2@V?$Local@VSignature@v8@@@2@H@Z 0000000180030fe5 f   node:node.exe
 0001:0002fff1       __imp_load_?NewFromUtf8@String@v8@@SA?AV?$Local@VString@v8@@@2@PEAVIsolate@2@PEBDW4NewStringType@12@H@Z 0000000180030ff1 f   node:node.exe
 0001:0002fffd       __imp_load_?Set@Object@v8@@QEAA_NV?$Local@VValue@v8@@@2@0@Z 0000000180030ffd f   node:node.exe
 0001:00030009       __imp_load_?SetName@Function@v8@@QEAAXV?$Local@VString@v8@@@2@@Z 0000000180031009 f   node:node.exe
 0001:00030015       __imp_load_node_module_register 0000000180031015 f   node:node.exe
 0001:00030021       __imp_load_?Int32Value@Value@v8@@QEBAHXZ 0000000180031021 f   node:node.exe
 0001:0003002d       __imp_load_??1Utf8Value@String@v8@@QEAA@XZ 000000018003102d f   node:node.exe
 0001:00030039       __imp_load_??0Utf8Value@String@v8@@QEAA@V?$Local@VValue@v8@@@2@@Z 0000000180031039 f   node:node.exe
 0001:00030045       __imp_load_?ToString@Value@v8@@QEBA?AV?$Local@VString@v8@@@2@XZ 0000000180031045 f   node:node.exe
 0001:00030054       ??0bad_alloc@std@@QEAA@AEBV01@@Z 0000000180031054 f i libcpmt:xthrow.obj
 0001:00030094       ??0bad_alloc@std@@QEAA@XZ  0000000180031094 f i libcpmt:xthrow.obj
 0001:000300b4       ??0exception@std@@QEAA@AEBV01@@Z 00000001800310b4 f i libcpmt:xthrow.obj
 0001:000300ec       ??0length_error@std@@QEAA@AEBV01@@Z 00000001800310ec f i libcpmt:xthrow.obj
 0001:0003012c       ??0length_error@std@@QEAA@PEBD@Z 000000018003112c f i libcpmt:xthrow.obj
 0001:00030178       ??0logic_error@std@@QEAA@AEBV01@@Z 0000000180031178 f i libcpmt:xthrow.obj
 0001:000301b8       ??0out_of_range@std@@QEAA@AEBV01@@Z 00000001800311b8 f i libcpmt:xthrow.obj
 0001:000301f8       ??0out_of_range@std@@QEAA@PEBD@Z 00000001800311f8 f i libcpmt:xthrow.obj
 0001:00030244       ??1bad_array_new_length@std@@UEAA@XZ 0000000180031244 f i LIBCMT:throw_bad_alloc.obj
 0001:00030244       ??1length_error@std@@UEAA@XZ 0000000180031244 f i libcpmt:xthrow.obj
 0001:00030244       ??1out_of_range@std@@UEAA@XZ 0000000180031244 f i libcpmt:xthrow.obj
 0001:00030244       ??1bad_alloc@std@@UEAA@XZ  0000000180031244 f i libcpmt:xthrow.obj
 0001:00030244       ??1bad_exception@std@@UEAA@XZ 0000000180031244 f i libvcruntime:frame.obj
 0001:00030258       ??_Ebad_array_new_length@std@@UEAAPEAXI@Z 0000000180031258 f i LIBCMT:throw_bad_alloc.obj
 0001:00030258       ??_Glength_error@std@@UEAAPEAXI@Z 0000000180031258 f i libcpmt:xthrow.obj
 0001:00030258       ??_Ebad_alloc@std@@UEAAPEAXI@Z 0000000180031258 f i libcpmt:xthrow.obj
 0001:00030258       ??_Gbad_array_new_length@std@@UEAAPEAXI@Z 0000000180031258 f i LIBCMT:throw_bad_alloc.obj
 0001:00030258       ??_Glogic_error@std@@UEAAPEAXI@Z 0000000180031258 f i libcpmt:xthrow.obj
 0001:00030258       ??_Ebad_exception@std@@UEAAPEAXI@Z 0000000180031258 f i libvcruntime:frame.obj
 0001:00030258       ??_Gexception@std@@UEAAPEAXI@Z 0000000180031258 f i libcpmt:xthrow.obj
 0001:00030258       ??_Elogic_error@std@@UEAAPEAXI@Z 0000000180031258 f i libcpmt:xthrow.obj
 0001:00030258       ??_Gbad_exception@std@@UEAAPEAXI@Z 0000000180031258 f i libvcruntime:frame.obj
 0001:00030258       ??_Elength_error@std@@UEAAPEAXI@Z 0000000180031258 f i libcpmt:xthrow.obj
 0001:00030258       ??_Gbad_alloc@std@@UEAAPEAXI@Z 0000000180031258 f i libcpmt:xthrow.obj
 0001:00030258       ??_Eout_of_range@std@@UEAAPEAXI@Z 0000000180031258 f i libcpmt:xthrow.obj
 0001:00030258       ??_Gout_of_range@std@@UEAAPEAXI@Z 0000000180031258 f i libcpmt:xthrow.obj
 0001:00030258       ??_Eexception@std@@UEAAPEAXI@Z 0000000180031258 f i libcpmt:xthrow.obj
 0001:0003029c       ?_Xlength_error@std@@YAXPEBD@Z 000000018003129c f   libcpmt:xthrow.obj
 0001:000302c0       ?_Xout_of_range@std@@YAXPEBD@Z 00000001800312c0 f   libcpmt:xthrow.obj
 0001:000302e4       ?what@exception@std@@UEBAPEBDXZ 00000001800312e4 f i libcpmt:xthrow.obj
 0001:00030310       __security_check_cookie    0000000180031310 f   LIBCMT:_amdsecgs_.obj
 0001:00030334       ??_V@YAXPEAX_K@Z           0000000180031334 f   LIBCMT:delete_array_size.obj
 0001:00030484       _Init_thread_footer        0000000180031484 f   LIBCMT:thread_safe_statics.obj
 0001:000304e4       _Init_thread_header        00000001800314e4 f   LIBCMT:thread_safe_statics.obj
 0001:0003054c       _Init_thread_notify        000000018003154c f   LIBCMT:thread_safe_statics.obj
 0001:000305a8       _Init_thread_wait          00000001800315a8 f   LIBCMT:thread_safe_statics.obj
 0001:00030640       __raise_securityfailure    0000000180031640 f   LIBCMT:gs_report.obj
 0001:00030674       __report_gsfailure         0000000180031674 f   LIBCMT:gs_report.obj
 0001:00030748       __report_rangecheckfailure 0000000180031748 f   LIBCMT:gs_report.obj
 0001:0003075c       __report_securityfailure   000000018003175c f   LIBCMT:gs_report.obj
 0001:000308dc       ??2@YAPEAX_K@Z             00000001800318dc f   LIBCMT:new_scalar.obj
 0001:00030918       __scrt_acquire_startup_lock 0000000180031918 f   LIBCMT:utility.obj
 0001:00030954       __scrt_dllmain_after_initialize_c 0000000180031954 f   LIBCMT:utility.obj
 0001:00030988       __scrt_dllmain_before_initialize_c 0000000180031988 f   LIBCMT:utility.obj
 0001:000309a0       __scrt_dllmain_crt_thread_attach 00000001800319a0 f   LIBCMT:utility.obj
 0001:000309c8       __scrt_dllmain_crt_thread_detach 00000001800319c8 f   LIBCMT:utility.obj
 0001:000309e0       __scrt_dllmain_exception_filter 00000001800319e0 f   LIBCMT:utility.obj
 0001:00030a44       __scrt_dllmain_uninitialize_c 0000000180031a44 f   LIBCMT:utility.obj
 0001:00030a74       __scrt_dllmain_uninitialize_critical 0000000180031a74 f   LIBCMT:utility.obj
 0001:00030a88       __scrt_initialize_crt      0000000180031a88 f   LIBCMT:utility.obj
 0001:00030ad4       __scrt_initialize_onexit_tables 0000000180031ad4 f   LIBCMT:utility.obj
 0001:00030ba0       __scrt_is_nonwritable_in_current_image 0000000180031ba0 f   LIBCMT:utility.obj
 0001:00030c3c       __scrt_release_startup_lock 0000000180031c3c f   LIBCMT:utility.obj
 0001:00030c60       __scrt_uninitialize_crt    0000000180031c60 f   LIBCMT:utility.obj
 0001:00030c8c       _onexit                    0000000180031c8c f   LIBCMT:utility.obj
 0001:00030cdc       atexit                     0000000180031cdc f   LIBCMT:utility.obj
 0001:00030cf4       ??3@YAXPEAX@Z              0000000180031cf4 f   LIBCMT:delete_scalar.obj
 0001:00030cfc       ??3@YAXPEAX_K@Z            0000000180031cfc f   LIBCMT:delete_scalar_size.obj
 0001:00030cfc       ??_V@YAXPEAX@Z             0000000180031cfc f   LIBCMT:delete_array.obj
 0001:00030d04       ??_U@YAPEAX_K@Z            0000000180031d04 f   LIBCMT:new_array.obj
 0001:00030d0c       ??_Gtype_info@@UEAAPEAXI@Z 0000000180031d0c f i LIBCMT:std_type_info_static.obj
 0001:00030d0c       ??_Etype_info@@UEAAPEAXI@Z 0000000180031d0c f i LIBCMT:std_type_info_static.obj
 0001:00031084       _DllMainCRTStartup         0000000180032084 f   LIBCMT:dll_dllmain.obj
 0001:000310c4       __crt_debugger_hook        00000001800320c4 f   LIBCMT:utility_desktop.obj
 0001:000310cc       __scrt_fastfail            00000001800320cc f   LIBCMT:utility_desktop.obj
 0001:00031214       _guard_check_icall         0000000180032214 f i LIBCMT:checkcfg.obj
 0001:0003121c       ??0bad_array_new_length@std@@QEAA@AEBV01@@Z 000000018003221c f i LIBCMT:throw_bad_alloc.obj
 0001:0003125c       ??0bad_array_new_length@std@@QEAA@XZ 000000018003225c f i LIBCMT:throw_bad_alloc.obj
 0001:0003127c       ?_Xbad_alloc@std@@YAXXZ    000000018003227c f   libcpmt:xthrow.obj
 0001:0003127c       ?__scrt_throw_std_bad_alloc@@YAXXZ 000000018003227c f   LIBCMT:throw_bad_alloc.obj
 0001:0003129c       ?__scrt_throw_std_bad_array_new_length@@YAXXZ 000000018003229c f   LIBCMT:throw_bad_alloc.obj
 0001:000312bc       __isa_available_init       00000001800322bc f   LIBCMT:_cpu_disp_.obj
 0001:00031484       __scrt_is_ucrt_dll_in_use  0000000180032484 f   LIBCMT:ucrt_detection.obj
 0001:00031490       __security_init_cookie     0000000180032490 f   LIBCMT:gs_support.obj
 0001:0003153c       DllMain                    000000018003253c f   LIBCMT:dll_dllmain_stub.obj
 0001:0003153c       _get_startup_argv_mode     000000018003253c f   LIBCMT:argv_mode.obj
 0001:00031544       ?__scrt_initialize_type_info@@YAXXZ 0000000180032544 f   LIBCMT:tncleanup.obj
 0001:00031554       ?__scrt_uninitialize_type_info@@YAXXZ 0000000180032554 f   LIBCMT:tncleanup.obj
 0001:00031560       __scrt_initialize_default_local_stdio_options 0000000180032560 f   LIBCMT:default_local_stdio_options.obj
 0001:0003157c       __scrt_get_dyn_tls_init_callback 000000018003257c f   LIBCMT:dyn_tls_init.obj
 0001:00031584       _RTC_Initialize            0000000180032584 f   LIBCMT:_initsect_.obj
 0001:000315d0       _RTC_Terminate             00000001800325d0 f   LIBCMT:_initsect_.obj
 0001:00031630       memcpy                     0000000180032630 f   libvcruntime:memcpy.obj
 0001:00031630       memmove                    0000000180032630 f   libvcruntime:memcpy.obj
 0001:00031a68       strstr                     0000000180032a68 f   libvcruntime:strstr.obj
 0001:00031c5c       strchr                     0000000180032c5c f   libvcruntime:strchr.obj
 0001:00031ce8       __std_exception_copy       0000000180032ce8 f   libvcruntime:std_exception.obj
 0001:00031d78       __std_exception_destroy    0000000180032d78 f   libvcruntime:std_exception.obj
 0001:00031da0       _CxxThrowException         0000000180032da0 f   libvcruntime:throw.obj
 0001:00032040       __vcrt_FlsAlloc            0000000180033040 f   libvcruntime:winapi_downlevel.obj
 0001:00032094       __vcrt_FlsFree             0000000180033094 f   libvcruntime:winapi_downlevel.obj
 0001:000320e8       __vcrt_FlsGetValue         00000001800330e8 f   libvcruntime:winapi_downlevel.obj
 0001:0003213c       __vcrt_FlsSetValue         000000018003313c f   libvcruntime:winapi_downlevel.obj
 0001:000321a4       __vcrt_InitializeCriticalSectionEx 00000001800331a4 f   libvcruntime:winapi_downlevel.obj
 0001:0003221c       __vcrt_initialize_winapi_thunks 000000018003321c f   libvcruntime:winapi_downlevel.obj
 0001:00032268       __vcrt_uninitialize_winapi_thunks 0000000180033268 f   libvcruntime:winapi_downlevel.obj
 0001:000322a8       __vcrt_initialize          00000001800332a8 f   libvcruntime:initialization.obj
 0001:000322dc       __vcrt_thread_attach       00000001800332dc f   libvcruntime:initialization.obj
 0001:000322f0       __vcrt_thread_detach       00000001800332f0 f   libvcruntime:initialization.obj
 0001:00032304       __vcrt_uninitialize        0000000180033304 f   libvcruntime:initialization.obj
 0001:00032324       __vcrt_uninitialize_critical 0000000180033324 f   libvcruntime:initialization.obj
 0001:00032334       __C_specific_handler       0000000180033334 f   libvcruntime:_chandler_.obj
 0001:00032540       memset                     0000000180033540 f   libvcruntime:memset.obj
 0001:000326e0       __std_type_info_compare    00000001800336e0 f   libvcruntime:std_type_info.obj
 0001:00032708       __std_type_info_destroy_list 0000000180033708 f   libvcruntime:std_type_info.obj
 0001:00032734       __vcrt_freefls             0000000180033734 f   libvcruntime:per_thread_data.obj
 0001:00032754       __vcrt_freeptd             0000000180033754 f   libvcruntime:per_thread_data.obj
 0001:000327a4       __vcrt_getptd              00000001800337a4 f   libvcruntime:per_thread_data.obj
 0001:000327c0       __vcrt_getptd_noexit       00000001800337c0 f   libvcruntime:per_thread_data.obj
 0001:00032878       __vcrt_initialize_ptd      0000000180033878 f   libvcruntime:per_thread_data.obj
 0001:000328b8       __vcrt_uninitialize_ptd    00000001800338b8 f   libvcruntime:per_thread_data.obj
 0001:000328dc       __vcrt_initialize_locks    00000001800338dc f   libvcruntime:locks.obj
 0001:00032924       __vcrt_uninitialize_locks  0000000180033924 f   libvcruntime:locks.obj
 0001:0003295c       __vcrt_initialize_pure_virtual_call_handler 000000018003395c f   libvcruntime:purevirt_data.obj
 0001:00032990       _local_unwind              0000000180033990 f   libvcruntime:_jmpuwind_.obj
 0001:000329c0       _NLG_Notify                00000001800339c0 f   libvcruntime:_jmpuwind_.obj
 0001:000329e0       __NLG_Dispatch2            00000001800339e0 f   libvcruntime:_jmpuwind_.obj
 0001:000329f0       __NLG_Return2              00000001800339f0 f   libvcruntime:_jmpuwind_.obj
 0001:000329f4       _fputc_nolock              00000001800339f4 f   libucrt:fputc.obj
 0001:00032a0c       fputc                      0000000180033a0c f   libucrt:fputc.obj
 0001:00032b2c       rand                       0000000180033b2c f   libucrt:rand.obj
 0001:00032b58       srand                      0000000180033b58 f   libucrt:rand.obj
 0001:00032c40       fopen                      0000000180033c40 f   libucrt:fopen.obj
 0001:00032c4c       __acrt_initialize_stdio    0000000180033c4c f   libucrt:_file.obj
 0001:00032d6c       __acrt_iob_func            0000000180033d6c f   libucrt:_file.obj
 0001:00032d80       __acrt_uninitialize_stdio  0000000180033d80 f   libucrt:_file.obj
 0001:00032ddc       _lock_file                 0000000180033ddc f   libucrt:_file.obj
 0001:00032de8       _unlock_file               0000000180033de8 f   libucrt:_file.obj
 0001:00032df4       _getpid                    0000000180033df4 f   libucrt:getpid.obj
 0001:00032dfc       _fclose_nolock             0000000180033dfc f   libucrt:fclose.obj
 0001:00032e80       fclose                     0000000180033e80 f   libucrt:fclose.obj
 0001:00032eec       remove                     0000000180033eec f   libucrt:unlink.obj
 0001:00032f38       ??$?RV<lambda_aa279a7bcb127014629d5b1d62c7325d>@@AEAV<lambda_0a64b6a4deda75c01876f29c44fc5eb3>@@V<lambda_3323e69fbefe9d1a11713e670d47cdfa>@@@?$__crt_seh_guarded_call@H@@QEAAH$$QEAV<lambda_aa279a7bcb127014629d5b1d62c7325d>@@AEAV<lambda_0a64b6a4deda75c01876f29c44fc5eb3>@@$$QEAV<lambda_3323e69fbefe9d1a11713e670d47cdfa>@@@Z 0000000180033f38 f i libucrt:output.obj
 0001:00032f78       ??$ensure_buffer_is_big_enough@D@formatting_buffer@__crt_stdio_output@@QEAA_N_K@Z 0000000180033f78 f i libucrt:output.obj
 0001:00033024       ??$is_wide_character_specifier@D@__crt_stdio_output@@YA_N_KDW4length_modifier@0@@Z 0000000180034024 f i libucrt:output.obj
 0001:00033054       ??$type_case_integer_parse_into_buffer@I@?$output_processor@DV?$string_output_adapter@D@__crt_stdio_output@@V?$standard_base@DV?$string_output_adapter@D@__crt_stdio_output@@@2@@__crt_stdio_output@@AEAAXII_N@Z 0000000180034054 f i libucrt:output.obj
 0001:00033054       ??$type_case_integer_parse_into_buffer@I@?$output_processor@DV?$stream_output_adapter@D@__crt_stdio_output@@V?$standard_base@DV?$stream_output_adapter@D@__crt_stdio_output@@@2@@__crt_stdio_output@@AEAAXII_N@Z 0000000180034054 f i libucrt:output.obj
 0001:000330f0       ??$type_case_integer_parse_into_buffer@_K@?$output_processor@DV?$string_output_adapter@D@__crt_stdio_output@@V?$standard_base@DV?$string_output_adapter@D@__crt_stdio_output@@@2@@__crt_stdio_output@@AEAAX_KI_N@Z 00000001800340f0 f i libucrt:output.obj
 0001:000330f0       ??$type_case_integer_parse_into_buffer@_K@?$output_processor@DV?$stream_output_adapter@D@__crt_stdio_output@@V?$standard_base@DV?$stream_output_adapter@D@__crt_stdio_output@@@2@@__crt_stdio_output@@AEAAX_KI_N@Z 00000001800340f0 f i libucrt:output.obj
 0001:0003318c       ??$write_multiple_characters@V?$stream_output_adapter@D@__crt_stdio_output@@D@__crt_stdio_output@@YAXAEBV?$stream_output_adapter@D@0@DHQEAH@Z 000000018003418c f i libucrt:output.obj
 0001:00033210       ??$write_multiple_characters@V?$string_output_adapter@D@__crt_stdio_output@@D@__crt_stdio_output@@YAXAEBV?$string_output_adapter@D@0@DHQEAH@Z 0000000180034210 f i libucrt:output.obj
 0001:0003326c       ??0?$output_processor@DV?$string_output_adapter@D@__crt_stdio_output@@V?$standard_base@DV?$string_output_adapter@D@__crt_stdio_output@@@2@@__crt_stdio_output@@QEAA@AEBV?$string_output_adapter@D@1@_KQEBDQEAU__crt_locale_pointers@@QEAD@Z 000000018003426c f i libucrt:output.obj
 0001:0003326c       ??0?$output_processor@DV?$stream_output_adapter@D@__crt_stdio_output@@V?$standard_base@DV?$stream_output_adapter@D@__crt_stdio_output@@@2@@__crt_stdio_output@@QEAA@AEBV?$stream_output_adapter@D@1@_KQEBDQEAU__crt_locale_pointers@@QEAD@Z 000000018003426c f i libucrt:output.obj
 0001:000332e8       ??0_LocaleUpdate@@QEAA@QEAU__crt_locale_pointers@@@Z 00000001800342e8 f i libucrt:output.obj
 0001:00033468       ?force_decimal_point@__crt_stdio_output@@YAXPEADQEAU__crt_locale_pointers@@@Z 0000000180034468 f i libucrt:output.obj
 0001:000334d8       ?parse_int_from_format_string@?$output_processor@DV?$string_output_adapter@D@__crt_stdio_output@@V?$standard_base@DV?$string_output_adapter@D@__crt_stdio_output@@@2@@__crt_stdio_output@@AEAA_NQEAH@Z 00000001800344d8 f i libucrt:output.obj
 0001:000334d8       ?parse_int_from_format_string@?$output_processor@DV?$stream_output_adapter@D@__crt_stdio_output@@V?$standard_base@DV?$stream_output_adapter@D@__crt_stdio_output@@@2@@__crt_stdio_output@@AEAA_NQEAH@Z 00000001800344d8 f i libucrt:output.obj
 0001:0003355c       ?process@?$output_processor@DV?$stream_output_adapter@D@__crt_stdio_output@@V?$standard_base@DV?$stream_output_adapter@D@__crt_stdio_output@@@2@@__crt_stdio_output@@QEAAHXZ 000000018003455c f i libucrt:output.obj
 0001:0003376c       ?process@?$output_processor@DV?$string_output_adapter@D@__crt_stdio_output@@V?$standard_base@DV?$string_output_adapter@D@__crt_stdio_output@@@2@@__crt_stdio_output@@QEAAHXZ 000000018003476c f i libucrt:output.obj
 0001:00033970       ?state_case_normal@?$output_processor@DV?$stream_output_adapter@D@__crt_stdio_output@@V?$standard_base@DV?$stream_output_adapter@D@__crt_stdio_output@@@2@@__crt_stdio_output@@AEAA_NXZ 0000000180034970 f i libucrt:output.obj
 0001:000339e0       ?state_case_normal@?$output_processor@DV?$string_output_adapter@D@__crt_stdio_output@@V?$standard_base@DV?$string_output_adapter@D@__crt_stdio_output@@@2@@__crt_stdio_output@@AEAA_NXZ 00000001800349e0 f i libucrt:output.obj
 0001:00033a54       ?state_case_normal_tchar@?$output_processor@DV?$stream_output_adapter@D@__crt_stdio_output@@V?$standard_base@DV?$stream_output_adapter@D@__crt_stdio_output@@@2@@__crt_stdio_output@@AEAA_ND@Z 0000000180034a54 f i libucrt:output.obj
 0001:00033ae8       ?state_case_normal_tchar@?$output_processor@DV?$string_output_adapter@D@__crt_stdio_output@@V?$standard_base@DV?$string_output_adapter@D@__crt_stdio_output@@@2@@__crt_stdio_output@@AEAA_ND@Z 0000000180034ae8 f i libucrt:output.obj
 0001:00033b80       ?state_case_size@?$output_processor@DV?$stream_output_adapter@D@__crt_stdio_output@@V?$standard_base@DV?$stream_output_adapter@D@__crt_stdio_output@@@2@@__crt_stdio_output@@AEAA_NXZ 0000000180034b80 f i libucrt:output.obj
 0001:00033cfc       ?state_case_size@?$output_processor@DV?$string_output_adapter@D@__crt_stdio_output@@V?$standard_base@DV?$string_output_adapter@D@__crt_stdio_output@@@2@@__crt_stdio_output@@AEAA_NXZ 0000000180034cfc f i libucrt:output.obj
 0001:00033e78       ?state_case_type@?$output_processor@DV?$stream_output_adapter@D@__crt_stdio_output@@V?$standard_base@DV?$stream_output_adapter@D@__crt_stdio_output@@@2@@__crt_stdio_output@@AEAA_NXZ 0000000180034e78 f i libucrt:output.obj
 0001:000340f4       ?state_case_type@?$output_processor@DV?$string_output_adapter@D@__crt_stdio_output@@V?$standard_base@DV?$string_output_adapter@D@__crt_stdio_output@@@2@@__crt_stdio_output@@AEAA_NXZ 00000001800350f4 f i libucrt:output.obj
 0001:00034370       ?type_case_Z@?$output_processor@DV?$string_output_adapter@D@__crt_stdio_output@@V?$standard_base@DV?$string_output_adapter@D@__crt_stdio_output@@@2@@__crt_stdio_output@@AEAA_NXZ 0000000180035370 f i libucrt:output.obj
 0001:00034370       ?type_case_Z@?$output_processor@DV?$stream_output_adapter@D@__crt_stdio_output@@V?$standard_base@DV?$stream_output_adapter@D@__crt_stdio_output@@@2@@__crt_stdio_output@@AEAA_NXZ 0000000180035370 f i libucrt:output.obj
 0001:000343f0       ?type_case_a@?$output_processor@DV?$string_output_adapter@D@__crt_stdio_output@@V?$standard_base@DV?$string_output_adapter@D@__crt_stdio_output@@@2@@__crt_stdio_output@@AEAA_NXZ 00000001800353f0 f i libucrt:output.obj
 0001:000343f0       ?type_case_a@?$output_processor@DV?$stream_output_adapter@D@__crt_stdio_output@@V?$standard_base@DV?$stream_output_adapter@D@__crt_stdio_output@@@2@@__crt_stdio_output@@AEAA_NXZ 00000001800353f0 f i libucrt:output.obj
 0001:0003460c       ?type_case_c_tchar@?$output_processor@DV?$string_output_adapter@D@__crt_stdio_output@@V?$standard_base@DV?$string_output_adapter@D@__crt_stdio_output@@@2@@__crt_stdio_output@@AEAA_ND@Z 000000018003560c f i libucrt:output.obj
 0001:0003460c       ?type_case_c_tchar@?$output_processor@DV?$stream_output_adapter@D@__crt_stdio_output@@V?$standard_base@DV?$stream_output_adapter@D@__crt_stdio_output@@@2@@__crt_stdio_output@@AEAA_ND@Z 000000018003560c f i libucrt:output.obj
 0001:000346c0       ?type_case_integer@?$output_processor@DV?$stream_output_adapter@D@__crt_stdio_output@@V?$standard_base@DV?$stream_output_adapter@D@__crt_stdio_output@@@2@@__crt_stdio_output@@AEAA_NI_N@Z 00000001800356c0 f i libucrt:output.obj
 0001:000346c0       ?type_case_integer@?$output_processor@DV?$string_output_adapter@D@__crt_stdio_output@@V?$standard_base@DV?$string_output_adapter@D@__crt_stdio_output@@@2@@__crt_stdio_output@@AEAA_NI_N@Z 00000001800356c0 f i libucrt:output.obj
 0001:00034860       ?type_case_n@?$output_processor@DV?$string_output_adapter@D@__crt_stdio_output@@V?$standard_base@DV?$string_output_adapter@D@__crt_stdio_output@@@2@@__crt_stdio_output@@AEAA_NXZ 0000000180035860 f i libucrt:output.obj
 0001:00034860       ?type_case_n@?$output_processor@DV?$stream_output_adapter@D@__crt_stdio_output@@V?$standard_base@DV?$stream_output_adapter@D@__crt_stdio_output@@@2@@__crt_stdio_output@@AEAA_NXZ 0000000180035860 f i libucrt:output.obj
 0001:0003493c       ?type_case_s@?$output_processor@DV?$string_output_adapter@D@__crt_stdio_output@@V?$standard_base@DV?$string_output_adapter@D@__crt_stdio_output@@@2@@__crt_stdio_output@@AEAA_NXZ 000000018003593c f i libucrt:output.obj
 0001:0003493c       ?type_case_s@?$output_processor@DV?$stream_output_adapter@D@__crt_stdio_output@@V?$standard_base@DV?$stream_output_adapter@D@__crt_stdio_output@@@2@@__crt_stdio_output@@AEAA_NXZ 000000018003593c f i libucrt:output.obj
 0001:000349cc       ?validate_stream_is_ansi_if_required@?$__acrt_stdio_char_traits@D@@SA_NQEAU_iobuf@@@Z 00000001800359cc f i libucrt:output.obj
 0001:00034a58       ?write_stored_string_tchar@?$output_processor@DV?$stream_output_adapter@D@__crt_stdio_output@@V?$standard_base@DV?$stream_output_adapter@D@__crt_stdio_output@@@2@@__crt_stdio_output@@AEAA_ND@Z 0000000180035a58 f i libucrt:output.obj
 0001:00034b30       ?write_stored_string_tchar@?$output_processor@DV?$string_output_adapter@D@__crt_stdio_output@@V?$standard_base@DV?$string_output_adapter@D@__crt_stdio_output@@@2@@__crt_stdio_output@@AEAA_ND@Z 0000000180035b30 f i libucrt:output.obj
 0001:00034c08       ?write_string@?$stream_output_adapter@D@__crt_stdio_output@@QEBAXQEBDHQEAH1@Z 0000000180035c08 f i libucrt:output.obj
 0001:00034d00       ?write_string@?$string_output_adapter@D@__crt_stdio_output@@QEBAXQEBDHQEAH1@Z 0000000180035d00 f i libucrt:output.obj
 0001:00034dbc       __stdio_common_vfprintf    0000000180035dbc f   libucrt:output.obj
 0001:00034e48       __stdio_common_vsprintf    0000000180035e48 f   libucrt:output.obj
 0001:0003507c       system                     000000018003607c f   libucrt:system.obj
 0001:000351b8       _get_fmode                 00000001800361b8 f   libucrt:setmode.obj
 0001:000351e8       _setmode                   00000001800361e8 f   libucrt:setmode.obj
 0001:000352e0       _setmode_nolock            00000001800362e0 f   libucrt:setmode.obj
 0001:000353d0       strncpy                    00000001800363d0 f   libucrt:strncpy.obj
 0001:00035534       rename                     0000000180036534 f   libucrt:rename.obj
 0001:00035654       _fileno                    0000000180036654 f   libucrt:fileno.obj
 0001:0003567c       ??$?RV<lambda_5d4c3fee44080f75d5d9762853974fe0>@@AEAV<lambda_532e024f4337e6fc7ad266c2bef9f4ed>@@V<lambda_c87bdc10097eb2402edb8ba9bdf0697b>@@@?$__crt_seh_guarded_call@_K@@QEAA_K$$QEAV<lambda_5d4c3fee44080f75d5d9762853974fe0>@@AEAV<lambda_532e024f4337e6fc7ad266c2bef9f4ed>@@$$QEAV<lambda_c87bdc10097eb2402edb8ba9bdf0697b>@@@Z 000000018003667c f i libucrt:fwrite.obj
 0001:00035720       _fwrite_nolock             0000000180036720 f   libucrt:fwrite.obj
 0001:000358bc       fwrite                     00000001800368bc f   libucrt:fwrite.obj
 0001:00035940       ??$is_overflow_condition@_K@__crt_strtox@@YA_NI_K@Z 0000000180036940 f i libucrt:input.obj
 0001:00035978       ??$make_input_adapter_character_source@V?$string_input_adapter@D@__crt_stdio_input@@@__crt_strtox@@YA?AV?$input_adapter_character_source@V?$string_input_adapter@D@__crt_stdio_input@@@0@QEAV?$string_input_adapter@D@__crt_stdio_input@@_KQEA_N@Z 0000000180036978 f i libucrt:input.obj
 0001:00035998       ??$parse_floating_point@V?$input_adapter_character_source@V?$string_input_adapter@D@__crt_stdio_input@@@__crt_strtox@@M@__crt_strtox@@YA?AW4SLD_STATUS@@QEAU__crt_locale_pointers@@V?$input_adapter_character_source@V?$string_input_adapter@D@__crt_stdio_input@@@0@QEAM@Z 0000000180036998 f i libucrt:input.obj
 0001:00035a40       ??$parse_floating_point@V?$input_adapter_character_source@V?$string_input_adapter@D@__crt_stdio_input@@@__crt_strtox@@N@__crt_strtox@@YA?AW4SLD_STATUS@@QEAU__crt_locale_pointers@@V?$input_adapter_character_source@V?$string_input_adapter@D@__crt_stdio_input@@@0@QEAN@Z 0000000180036a40 f i libucrt:input.obj
 0001:00035ae8       ??$parse_floating_point_from_source@V?$input_adapter_character_source@V?$string_input_adapter@D@__crt_stdio_input@@@__crt_strtox@@@__crt_strtox@@YA?AW4floating_point_parse_result@0@QEAU__crt_locale_pointers@@AEAV?$input_adapter_character_source@V?$string_input_adapter@D@__crt_stdio_input@@@0@AEAUfloating_point_string@0@@Z 0000000180036ae8 f i libucrt:input.obj
 0001:000362c8       ??$parse_floating_point_possible_infinity@DV?$input_adapter_character_source@V?$string_input_adapter@D@__crt_stdio_input@@@__crt_strtox@@_K@__crt_strtox@@YA?AW4floating_point_parse_result@0@AEADAEAV?$input_adapter_character_source@V?$string_input_adapter@D@__crt_stdio_input@@@0@_K@Z 00000001800372c8 f i libucrt:input.obj
 0001:00036478       ??$parse_floating_point_possible_nan@DV?$input_adapter_character_source@V?$string_input_adapter@D@__crt_stdio_input@@@__crt_strtox@@_K@__crt_strtox@@YA?AW4floating_point_parse_result@0@AEADAEAV?$input_adapter_character_source@V?$string_input_adapter@D@__crt_stdio_input@@@0@_K@Z 0000000180037478 f i libucrt:input.obj
 0001:000366e8       ??$parse_floating_point_possible_nan_is_ind@DV?$input_adapter_character_source@V?$string_input_adapter@D@__crt_stdio_input@@@__crt_strtox@@@__crt_strtox@@YA_NAEADAEAV?$input_adapter_character_source@V?$string_input_adapter@D@__crt_stdio_input@@@0@@Z 00000001800376e8 f i libucrt:input.obj
 0001:00036760       ??$parse_floating_point_possible_nan_is_snan@DV?$input_adapter_character_source@V?$string_input_adapter@D@__crt_stdio_input@@@__crt_strtox@@@__crt_strtox@@YA_NAEADAEAV?$input_adapter_character_source@V?$string_input_adapter@D@__crt_stdio_input@@@0@@Z 0000000180037760 f i libucrt:input.obj
 0001:000367d8       ??$parse_floating_point_write_result@M@__crt_strtox@@YA?AW4SLD_STATUS@@W4floating_point_parse_result@0@AEBUfloating_point_string@0@QEAM@Z 00000001800377d8 f i libucrt:input.obj
 0001:000368f0       ??$parse_floating_point_write_result@N@__crt_strtox@@YA?AW4SLD_STATUS@@W4floating_point_parse_result@0@AEBUfloating_point_string@0@QEAN@Z 00000001800378f0 f i libucrt:input.obj
 0001:00036a18       ??$parse_integer@_KV?$input_adapter_character_source@V?$string_input_adapter@D@__crt_stdio_input@@@__crt_strtox@@@__crt_strtox@@YA_KQEAU__crt_locale_pointers@@V?$input_adapter_character_source@V?$string_input_adapter@D@__crt_stdio_input@@@0@H_N@Z 0000000180037a18 f i libucrt:input.obj
 0001:00036eac       ??$process_floating_point_specifier_t@M@?$input_processor@DV?$string_input_adapter@D@__crt_stdio_input@@@__crt_stdio_input@@AEAA_NXZ 0000000180037eac f i libucrt:input.obj
 0001:00036f54       ??$process_floating_point_specifier_t@N@?$input_processor@DV?$string_input_adapter@D@__crt_stdio_input@@@__crt_stdio_input@@AEAA_NXZ 0000000180037f54 f i libucrt:input.obj
 0001:00036ffc       ??$process_string_specifier_tchar@D@?$input_processor@DV?$string_input_adapter@D@__crt_stdio_input@@@__crt_stdio_input@@AEAA_NW4conversion_mode@1@D@Z 0000000180037ffc f i libucrt:input.obj
 0001:000371c4       ??$process_string_specifier_tchar@_W@?$input_processor@DV?$string_input_adapter@D@__crt_stdio_input@@@__crt_stdio_input@@AEAA_NW4conversion_mode@1@_W@Z 00000001800381c4 f i libucrt:input.obj
 0001:000373c4       ??$skip_whitespace@Vstring_input_adapter@__crt_stdio_input@@D@__crt_stdio_input@@YAHAEAV?$string_input_adapter@D@0@QEAU__crt_locale_pointers@@@Z 00000001800383c4 f i libucrt:input.obj
 0001:000374b4       ?advance@?$format_string_parser@D@__crt_stdio_input@@QEAA_NXZ 00000001800384b4 f i libucrt:input.obj
 0001:00037684       ?as_double@floating_point_value@__crt_strtox@@QEBAAEANXZ 0000000180038684 f i libucrt:input.obj
 0001:000376c0       ?as_float@floating_point_value@__crt_strtox@@QEBAAEAMXZ 00000001800386c0 f i libucrt:input.obj
 0001:000376fc       ?assemble_floating_point_value@__crt_strtox@@YA?AW4SLD_STATUS@@_KH_N1AEBVfloating_point_value@1@@Z 00000001800386fc f i libucrt:input.obj
 0001:00037ab0       ?assemble_floating_point_value_from_big_integer@__crt_strtox@@YA?AW4SLD_STATUS@@AEBUbig_integer@1@I_N1AEBVfloating_point_value@1@@Z 0000000180038ab0 f i libucrt:input.obj
 0001:00037c3c       ?convert_decimal_string_to_floating_type_common@__crt_strtox@@YA?AW4SLD_STATUS@@AEBUfloating_point_string@1@AEBVfloating_point_value@1@@Z 0000000180038c3c f i libucrt:input.obj
 0001:00039a00       ?convert_hexadecimal_string_to_floating_type_common@__crt_strtox@@YA?AW4SLD_STATUS@@AEBUfloating_point_string@1@AEBVfloating_point_value@1@@Z 000000018003aa00 f i libucrt:input.obj
 0001:00039ab0       ?divide@__crt_strtox@@YA_KAEAUbig_integer@1@AEBU21@@Z 000000018003aab0 f i libucrt:input.obj
 0001:00039f80       ?length@?$format_string_parser@D@__crt_stdio_input@@QEBA_KXZ 000000018003af80 f i libucrt:input.obj
 0001:0003a01c       ?process@?$input_processor@DV?$string_input_adapter@D@__crt_stdio_input@@@__crt_stdio_input@@QEAAHXZ 000000018003b01c f i libucrt:input.obj
 0001:0003a10c       ?process_conversion_specifier@?$input_processor@DV?$string_input_adapter@D@__crt_stdio_input@@@__crt_stdio_input@@AEAA_NXZ 000000018003b10c f i libucrt:input.obj
 0001:0003a230       ?process_floating_point_specifier@?$input_processor@DV?$string_input_adapter@D@__crt_stdio_input@@@__crt_stdio_input@@AEAA_NXZ 000000018003b230 f i libucrt:input.obj
 0001:0003a2a0       ?process_integer_specifier@?$input_processor@DV?$string_input_adapter@D@__crt_stdio_input@@@__crt_stdio_input@@AEAA_NI_N@Z 000000018003b2a0 f i libucrt:input.obj
 0001:0003a350       ?process_literal_character_tchar@?$input_processor@DV?$string_input_adapter@D@__crt_stdio_input@@@__crt_stdio_input@@AEAA_ND@Z 000000018003b350 f i libucrt:input.obj
 0001:0003a3dc       ?process_state@?$input_processor@DV?$string_input_adapter@D@__crt_stdio_input@@@__crt_stdio_input@@AEAA_NXZ 000000018003b3dc f i libucrt:input.obj
 0001:0003a490       ?process_string_specifier@?$input_processor@DV?$string_input_adapter@D@__crt_stdio_input@@@__crt_stdio_input@@AEAA_NW4conversion_mode@2@@Z 000000018003b490 f i libucrt:input.obj
 0001:0003a51c       ?scan_conversion_specifier@?$format_string_parser@D@__crt_stdio_input@@AEAA_NXZ 000000018003b51c f i libucrt:input.obj
 0001:0003a6d8       ?scan_optional_field_width@?$format_string_parser@D@__crt_stdio_input@@AEAA_NXZ 000000018003b6d8 f i libucrt:input.obj
 0001:0003a780       ?scan_optional_length_modifier@?$format_string_parser@D@__crt_stdio_input@@AEAAXXZ 000000018003b780 f i libucrt:input.obj
 0001:0003a8ac       ?scan_scanset_range@?$format_string_parser@D@__crt_stdio_input@@AEAA_NXZ 000000018003b8ac f i libucrt:input.obj
 0001:0003aa40       ?write_character@?$input_processor@DV?$string_input_adapter@D@__crt_stdio_input@@@__crt_stdio_input@@AEAA_NQEFA_W_KAEAPEFA_WAEA_KD@Z 000000018003ba40 f i libucrt:input.obj
 0001:0003aadc       ?write_integer@?$input_processor@DV?$string_input_adapter@D@__crt_stdio_input@@@__crt_stdio_input@@AEAA_N_K_N@Z 000000018003badc f i libucrt:input.obj
 0001:0003ab60       __stdio_common_vsscanf     000000018003bb60 f   libucrt:input.obj
 0001:0003ad30       __acrt_call_reportfault    000000018003bd30 f   libucrt:invalid_parameter.obj
 0001:0003ae8c       __acrt_initialize_invalid_parameter_handler 000000018003be8c f   libucrt:invalid_parameter.obj
 0001:0003ae94       _invalid_parameter         000000018003be94 f   libucrt:invalid_parameter.obj
 0001:0003af3c       _invalid_parameter_noinfo  000000018003bf3c f   libucrt:invalid_parameter.obj
 0001:0003af5c       _invalid_parameter_noinfo_noreturn 000000018003bf5c f   libucrt:invalid_parameter.obj
 0001:0003af8c       _invoke_watson             000000018003bf8c f   libucrt:invalid_parameter.obj
 0001:0003b1cc       _dupenv_s                  000000018003c1cc f   libucrt:getenv.obj
 0001:0003b1ec       getenv                     000000018003c1ec f   libucrt:getenv.obj
 0001:0003b1f4       __ascii_stricmp            000000018003c1f4 f   libucrt:stricmp.obj
 0001:0003b230       _stricmp                   000000018003c230 f   libucrt:stricmp.obj
 0001:0003b278       _stricmp_l                 000000018003c278 f   libucrt:stricmp.obj
 0001:0003b32c       __acrt_initialize_new_handler 000000018003c32c f   libucrt:new_handler.obj
 0001:0003b334       _callnewh                  000000018003c334 f   libucrt:new_handler.obj
 0001:0003b374       _query_new_handler         000000018003c374 f   libucrt:new_handler.obj
 0001:0003b3a8       malloc                     000000018003c3a8 f   libucrt:malloc.obj
 0001:0003b3b0       _seh_filter_dll            000000018003c3b0 f   libucrt:exception_filter.obj
 0001:0003b3c4       _seh_filter_exe            000000018003c3c4 f   libucrt:exception_filter.obj
 0001:0003b784       __acrt_initialize_thread_local_exit_callback 000000018003c784 f   libucrt:exit.obj
 0001:0003b78c       _cexit                     000000018003c78c f   libucrt:exit.obj
 0001:0003b79c       _exit                      000000018003c79c f   libucrt:exit.obj
 0001:0003b7a8       _is_c_termination_complete 000000018003c7a8 f   libucrt:exit.obj
 0001:0003b96c       __acrt_allocate_buffer_for_argv 000000018003c96c f   libucrt:argv_parsing.obj
 0001:0003b9d0       _configure_narrow_argv     000000018003c9d0 f   libucrt:argv_parsing.obj
 0001:0003be48       __dcrt_get_or_create_narrow_environment_nolock 000000018003ce48 f   libucrt:environment_initialization.obj
 0001:0003be50       __dcrt_uninitialize_environments_nolock 000000018003ce50 f   libucrt:environment_initialization.obj
 0001:0003be88       _initialize_narrow_environment 000000018003ce88 f   libucrt:environment_initialization.obj
 0001:0003be90       ??$?RV<lambda_b8c45f8f788dd370798f47cfe8ac3a86>@@AEAV<lambda_4e60a939b0d047cfe11ddc22648dfba9>@@V<lambda_332c3edc96d0294ec56c57d38c1cdfd5>@@@?$__crt_seh_guarded_call@H@@QEAAH$$QEAV<lambda_b8c45f8f788dd370798f47cfe8ac3a86>@@AEAV<lambda_4e60a939b0d047cfe11ddc22648dfba9>@@$$QEAV<lambda_332c3edc96d0294ec56c57d38c1cdfd5>@@@Z 000000018003ce90 f i libucrt:onexit.obj
 0001:0003becc       ??$?RV<lambda_e24bbb7b643b32fcea6fa61b31d4c984>@@AEAV<lambda_275893d493268fdec8709772e3fcec0e>@@V<lambda_9d71df4d7cf3f480f8d633942495c3b0>@@@?$__crt_seh_guarded_call@H@@QEAAH$$QEAV<lambda_e24bbb7b643b32fcea6fa61b31d4c984>@@AEAV<lambda_275893d493268fdec8709772e3fcec0e>@@$$QEAV<lambda_9d71df4d7cf3f480f8d633942495c3b0>@@@Z 000000018003cecc f i libucrt:onexit.obj
 0001:0003c248       _crt_atexit                000000018003d248 f   libucrt:onexit.obj
 0001:0003c258       _execute_onexit_table      000000018003d258 f   libucrt:onexit.obj
 0001:0003c294       _initialize_onexit_table   000000018003d294 f   libucrt:onexit.obj
 0001:0003c2d4       _register_onexit_function  000000018003d2d4 f   libucrt:onexit.obj
 0001:0003c354       __acrt_uninitialize_command_line 000000018003d354 f   libucrt:argv_data.obj
 0001:0003c454       __acrt_initialize          000000018003d454 f   libucrt:initialization.obj
 0001:0003c468       __acrt_thread_attach       000000018003d468 f   libucrt:initialization.obj
 0001:0003c47c       __acrt_thread_detach       000000018003d47c f   libucrt:initialization.obj
 0001:0003c48c       __acrt_uninitialize        000000018003d48c f   libucrt:initialization.obj
 0001:0003c4a0       __acrt_uninitialize_critical 000000018003d4a0 f   libucrt:initialization.obj
 0001:0003c4b0       free                       000000018003d4b0 f   libucrt:free.obj
 0001:0003c4b8       _initterm                  000000018003d4b8 f   libucrt:initterm.obj
 0001:0003c530       _initterm_e                000000018003d530 f   libucrt:initterm.obj
 0001:0003c57c       terminate                  000000018003d57c f   libucrt:terminate.obj
 0001:0003c5a4       strcpy_s                   000000018003d5a4 f   libucrt:strcpy_s.obj
 0001:0003c604       _free_base                 000000018003d604 f   libucrt:free_base.obj
 0001:0003c644       _malloc_base               000000018003d644 f   libucrt:malloc_base.obj
 0001:0003c6a4       abort                      000000018003d6a4 f   libucrt:abort.obj
 0001:0003c6fc       _calloc_base               000000018003d6fc f   libucrt:calloc_base.obj
 0001:0003c774       ??$is_overflow_condition@K@__crt_strtox@@YA_NIK@Z 000000018003d774 f i libucrt:atox.obj
 0001:0003c7a0       ??$parse_integer@KV?$c_string_character_source@D@__crt_strtox@@@__crt_strtox@@YAKQEAU__crt_locale_pointers@@V?$c_string_character_source@D@0@H_N@Z 000000018003d7a0 f i libucrt:atox.obj
 0001:0003cab4       ??$parse_integer@_KV?$c_string_character_source@D@__crt_strtox@@@__crt_strtox@@YA_KQEAU__crt_locale_pointers@@V?$c_string_character_source@D@0@H_N@Z 000000018003dab4 f i libucrt:atox.obj
 0001:0003cde8       __acrt_errno_from_os_error 000000018003dde8 f   libucrt:errno.obj
 0001:0003ce30       __acrt_errno_map_os_error  000000018003de30 f   libucrt:errno.obj
 0001:0003ce80       __doserrno                 000000018003de80 f   libucrt:errno.obj
 0001:0003cea0       _errno                     000000018003dea0 f   libucrt:errno.obj
 0001:0003cfc4       __acrt_stdio_flush_and_write_narrow_nolock 000000018003dfc4 f   libucrt:_flsbuf.obj
 0001:0003d294       __acrt_initialize_lowio    000000018003e294 f   libucrt:ioinit.obj
 0001:0003d2d0       __acrt_uninitialize_lowio  000000018003e2d0 f   libucrt:ioinit.obj
 0001:0003d310       ??$?RV<lambda_46352004c1216016012b18bd6f87e700>@@AEAV<lambda_3bd07e1a1191394380780325891bf33f>@@V<lambda_334532d3f185bcaa59b5be82d7d22bff>@@@?$__crt_seh_guarded_call@X@@QEAAX$$QEAV<lambda_46352004c1216016012b18bd6f87e700>@@AEAV<lambda_3bd07e1a1191394380780325891bf33f>@@$$QEAV<lambda_334532d3f185bcaa59b5be82d7d22bff>@@@Z 000000018003e310 f i libucrt:per_thread_data.obj
 0001:0003d370       ??$?RV<lambda_5e887d1dcbef67a5eb4283622ba103bf>@@AEAV<lambda_4466841279450cc726390878d4a41900>@@V<lambda_341c25c0346d94847f1f3c463c57e077>@@@?$__crt_seh_guarded_call@X@@QEAAX$$QEAV<lambda_5e887d1dcbef67a5eb4283622ba103bf>@@AEAV<lambda_4466841279450cc726390878d4a41900>@@$$QEAV<lambda_341c25c0346d94847f1f3c463c57e077>@@@Z 000000018003e370 f i libucrt:per_thread_data.obj
 0001:0003d3b8       ??$?RV<lambda_72d1df2b273a38828b1ce30cbf4cdab5>@@AEAV<lambda_876a65b173b8412d3a47c70a915b0cf4>@@V<lambda_41932305e351933ebe8f8be3ed8bb5dc>@@@?$__crt_seh_guarded_call@X@@QEAAX$$QEAV<lambda_72d1df2b273a38828b1ce30cbf4cdab5>@@AEAV<lambda_876a65b173b8412d3a47c70a915b0cf4>@@$$QEAV<lambda_41932305e351933ebe8f8be3ed8bb5dc>@@@Z 000000018003e3b8 f i libucrt:per_thread_data.obj
 0001:0003d3f8       ??$?RV<lambda_fb3a7dec4e47f37f22dae91bb15c9095>@@AEAV<lambda_698284760c8add0bfb0756c19673e34b>@@V<lambda_dfb8eca1e75fef3034a8fb18dd509707>@@@?$__crt_seh_guarded_call@X@@QEAAX$$QEAV<lambda_fb3a7dec4e47f37f22dae91bb15c9095>@@AEAV<lambda_698284760c8add0bfb0756c19673e34b>@@$$QEAV<lambda_dfb8eca1e75fef3034a8fb18dd509707>@@@Z 000000018003e3f8 f i libucrt:per_thread_data.obj
 0001:0003d688       __acrt_freeptd             000000018003e688 f   libucrt:per_thread_data.obj
 0001:0003d6cc       __acrt_getptd              000000018003e6cc f   libucrt:per_thread_data.obj
 0001:0003d760       __acrt_getptd_noexit       000000018003e760 f   libucrt:per_thread_data.obj
 0001:0003d800       __acrt_initialize_ptd      000000018003e800 f   libucrt:per_thread_data.obj
 0001:0003d83c       __acrt_uninitialize_ptd    000000018003e83c f   libucrt:per_thread_data.obj
 0001:0003d860       ?__acrt_stdio_allocate_stream@@YA?AV__crt_stdio_stream@@XZ 000000018003e860 f   libucrt:stream.obj
 0001:0003d8bc       ?__acrt_stdio_free_stream@@YAXV__crt_stdio_stream@@@Z 000000018003e8bc f   libucrt:stream.obj
 0001:0003d9ec       ??$__acrt_stdio_parse_mode@D@@YA?AU__acrt_stdio_stream_mode@@QEBD@Z 000000018003e9ec f i libucrt:openfile.obj
 0001:0003dc88       _openfile                  000000018003ec88 f   libucrt:openfile.obj
 0001:0003dec4       __acrt_AreFileApisANSI     000000018003eec4 f   libucrt:winapi_thunks.obj
 0001:0003df10       __acrt_CompareStringEx     000000018003ef10 f   libucrt:winapi_thunks.obj
 0001:0003e000       __acrt_FlsAlloc            000000018003f000 f   libucrt:winapi_thunks.obj
 0001:0003e058       __acrt_FlsFree             000000018003f058 f   libucrt:winapi_thunks.obj
 0001:0003e0b0       __acrt_FlsGetValue         000000018003f0b0 f   libucrt:winapi_thunks.obj
 0001:0003e108       __acrt_FlsSetValue         000000018003f108 f   libucrt:winapi_thunks.obj
 0001:0003e170       __acrt_InitializeCriticalSectionEx 000000018003f170 f   libucrt:winapi_thunks.obj
 0001:0003e1e8       __acrt_LCMapStringEx       000000018003f1e8 f   libucrt:winapi_thunks.obj
 0001:0003e2d8       __acrt_LocaleNameToLCID    000000018003f2d8 f   libucrt:winapi_thunks.obj
 0001:0003e340       __acrt_initialize_winapi_thunks 000000018003f340 f   libucrt:winapi_thunks.obj
 0001:0003e378       __acrt_is_packaged_app     000000018003f378 f   libucrt:winapi_thunks.obj
 0001:0003e400       __acrt_uninitialize_winapi_thunks 000000018003f400 f   libucrt:winapi_thunks.obj
 0001:0003e444       _fcloseall                 000000018003f444 f   libucrt:closeall.obj
 0001:0003e4f8       __acrt_stdio_flush_nolock  000000018003f4f8 f   libucrt:fflush.obj
 0001:0003e570       _fflush_nolock             000000018003f570 f   libucrt:fflush.obj
 0001:0003e5bc       _flushall                  000000018003f5bc f   libucrt:fflush.obj
 0001:0003e6ac       __acrt_stdio_free_buffer_nolock 000000018003f6ac f   libucrt:_freebuf.obj
 0001:0003e6ec       ??$?RV<lambda_bfedae4ebbf01fab1bb6dcc6a9e276e0>@@AEAV<lambda_2fe9b910cf3cbf4a0ab98a02ba45b3ec>@@V<lambda_237c231691f317818eb88cc1d5d642d6>@@@?$__crt_seh_guarded_call@H@@QEAAH$$QEAV<lambda_bfedae4ebbf01fab1bb6dcc6a9e276e0>@@AEAV<lambda_2fe9b910cf3cbf4a0ab98a02ba45b3ec>@@$$QEAV<lambda_237c231691f317818eb88cc1d5d642d6>@@@Z 000000018003f6ec f i libucrt:close.obj
 0001:0003e760       _close                     000000018003f760 f   libucrt:close.obj
 0001:0003e804       _close_nolock              000000018003f804 f   libucrt:close.obj
 0001:0003e8c0       __acrt_copy_path_to_wide_string 000000018003f8c0 f   libucrt:string_utilities.obj
 0001:0003e9b8       _wremove                   000000018003f9b8 f   libucrt:wunlink.obj
 0001:0003e9e0       isdigit                    000000018003f9e0 f i libucrt:_ctype.obj
 0001:0003ea54       isspace                    000000018003fa54 f i libucrt:_ctype.obj
 0001:0003eb18       _tolower_l                 000000018003fb18 f   libucrt:tolower_toupper.obj
 0001:0003ec58       tolower                    000000018003fc58 f   libucrt:tolower_toupper.obj
 0001:0003ec84       ??$make_c_string_character_source@DPEAPEAD@__crt_strtox@@YA?AV?$c_string_character_source@D@0@QEBDQEAPEAD@Z 000000018003fc84 f i libucrt:strtox.obj
 0001:0003ec98       strtol                     000000018003fc98 f   libucrt:strtox.obj
 0001:0003ecc8       strtoull                   000000018003fcc8 f   libucrt:strtox.obj
 0001:0003ecf8       _mbtowc_l                  000000018003fcf8 f   libucrt:mbtowc.obj
 0001:0003ee40       mbtowc                     000000018003fe40 f   libucrt:mbtowc.obj
 0001:0003ee48       _wctomb_s_l                000000018003fe48 f   libucrt:wctomb.obj
 0001:0003efcc       wctomb_s                   000000018003ffcc f   libucrt:wctomb.obj
 0001:0003efe0       strnlen                    000000018003ffe0 f   libucrt:strnlen.obj
 0001:0003f13c       wcsnlen                    000000018004013c f   libucrt:strnlen.obj
 0001:0003f32c       __acrt_update_locale_info  000000018004032c f   libucrt:locale_update.obj
 0001:0003f360       __acrt_update_multibyte_info 0000000180040360 f   libucrt:locale_update.obj
 0001:0003f394       ?__acrt_fp_classify@@YA?AW4__acrt_fp_class@@AEBN@Z 0000000180040394 f i libucrt:cvt.obj
 0001:0003fdcc       __acrt_fp_format           0000000180040dcc f   libucrt:cvt.obj
 0001:00040010       _get_printf_count_output   0000000180041010 f   libucrt:printf_count_output.obj
 0001:00040028       __acrt_stdio_begin_temporary_buffering_nolock 0000000180041028 f   libucrt:_sftbuf.obj
 0001:000400f8       __acrt_stdio_end_temporary_buffering_nolock 00000001800410f8 f   libucrt:_sftbuf.obj
 0001:00040134       __acrt_set_locale_changed  0000000180041134 f   libucrt:wsetlocale.obj
 0001:00040140       __acrt_uninitialize_locale 0000000180041140 f   libucrt:wsetlocale.obj
 0001:00040188       ??$?RV<lambda_fb01e4b6cb0b58be62120d2a518119ce>@@AEAV<lambda_45edfab556fcff821d8a41c06e3d46c0>@@V<lambda_8a9bf702b7f902ca2f9107a173e0fbe3>@@@?$__crt_seh_guarded_call@_N@@QEAA_N$$QEAV<lambda_fb01e4b6cb0b58be62120d2a518119ce>@@AEAV<lambda_45edfab556fcff821d8a41c06e3d46c0>@@$$QEAV<lambda_8a9bf702b7f902ca2f9107a173e0fbe3>@@@Z 0000000180041188 f i libucrt:spawnv.obj
 0001:00040880       _spawnve                   0000000180041880 f   libucrt:spawnv.obj
 0001:00040bb4       _spawnvpe                  0000000180041bb4 f   libucrt:spawnvp.obj
 0001:00040bbc       _waccess_s                 0000000180041bbc f   libucrt:waccess.obj
 0001:00040c68       _access_s                  0000000180041c68 f   libucrt:access.obj
 0001:00040cb8       __acrt_lowio_create_handle_array 0000000180041cb8 f   libucrt:osfinfo.obj
 0001:00040d50       __acrt_lowio_destroy_handle_array 0000000180041d50 f   libucrt:osfinfo.obj
 0001:00040da0       __acrt_lowio_ensure_fh_exists 0000000180041da0 f   libucrt:osfinfo.obj
 0001:00040e58       __acrt_lowio_lock_fh       0000000180041e58 f   libucrt:osfinfo.obj
 0001:00040e7c       __acrt_lowio_set_os_handle 0000000180041e7c f   libucrt:osfinfo.obj
 0001:00040f3c       __acrt_lowio_unlock_fh     0000000180041f3c f   libucrt:osfinfo.obj
 0001:00040f60       _alloc_osfhnd              0000000180041f60 f   libucrt:osfinfo.obj
 0001:00041090       _free_osfhnd               0000000180042090 f   libucrt:osfinfo.obj
 0001:0004114c       _get_osfhandle             000000018004214c f   libucrt:osfinfo.obj
 0001:000411c4       _wrename                   00000001800421c4 f   libucrt:wrename.obj
 0001:00041794       _write                     0000000180042794 f   libucrt:write.obj
 0001:00041880       _write_nolock              0000000180042880 f   libucrt:write.obj
 0001:00041b64       __pctype_func              0000000180042b64 f   libucrt:ctype.obj
 0001:00041b94       _isctype_l                 0000000180042b94 f   libucrt:isctype.obj
 0001:00041ca4       fegetround                 0000000180042ca4 f   libucrt:fegetround.obj
 0001:00041cb8       calloc                     0000000180042cb8 f   libucrt:calloc.obj
 0001:00041cc0       _strnicoll                 0000000180042cc0 f   libucrt:strnicol.obj
 0001:00041cd8       _strnicoll_l               0000000180042cd8 f   libucrt:strnicol.obj
 0001:00041dd8       __acrt_initialize_locks    0000000180042dd8 f   libucrt:locks.obj
 0001:00041e20       __acrt_lock                0000000180042e20 f   libucrt:locks.obj
 0001:00041e3c       __acrt_uninitialize_locks  0000000180042e3c f   libucrt:locks.obj
 0001:00041e74       __acrt_unlock              0000000180042e74 f   libucrt:locks.obj
 0001:0004236c       ?expand_if_necessary@?$argument_list@D@?A0xca0879c4@@AEAAHXZ 000000018004336c f i libucrt:argv_wildcards.obj
 0001:00042434       __acrt_expand_narrow_argv_wildcards 0000000180043434 f   libucrt:argv_wildcards.obj
 0001:0004243c       ??$?RV<lambda_99476a1ad63dd22509b5d3e65b0ffc95>@@AEAV<lambda_ad1ced32f4ac17aa236e5ef05d6b3b7c>@@V<lambda_f7424dd8d45958661754dc4f2697e9c3>@@@?$__crt_seh_guarded_call@X@@QEAAX$$QEAV<lambda_99476a1ad63dd22509b5d3e65b0ffc95>@@AEAV<lambda_ad1ced32f4ac17aa236e5ef05d6b3b7c>@@$$QEAV<lambda_f7424dd8d45958661754dc4f2697e9c3>@@@Z 000000018004343c f i libucrt:mbctype.obj
 0001:00042b38       __acrt_initialize_multibyte 0000000180043b38 f   libucrt:mbctype.obj
 0001:00042b60       __acrt_update_thread_multibyte_data 0000000180043b60 f   libucrt:mbctype.obj
 0001:00042c20       _setmbcp_nolock            0000000180043c20 f   libucrt:mbctype.obj
 0001:00042f40       _ismbblead                 0000000180043f40 f   libucrt:ismbbyte.obj
 0001:00042f54       __acrt_initialize_command_line 0000000180043f54 f   libucrt:argv_data.obj
 0001:00042f7c       __dcrt_get_narrow_environment_from_os 0000000180043f7c f   libucrt:get_environment_from_os.obj
 0001:0004345c       __dcrt_set_variable_in_narrow_environment_nolock 000000018004445c f   libucrt:setenv.obj
 0001:00043464       _recalloc                  0000000180044464 f   libucrt:recalloc.obj
 0001:0004346c       _recalloc_base             000000018004446c f   libucrt:recalloc.obj
 0001:00043504       __acrt_initialize_heap     0000000180044504 f   libucrt:heap_handle.obj
 0001:00043520       __acrt_uninitialize_heap   0000000180044520 f   libucrt:heap_handle.obj
 0001:0004352c       __acrt_execute_initializers 000000018004452c f   libucrt:shared_initialization.obj
 0001:000435c0       __acrt_execute_uninitializers 00000001800445c0 f   libucrt:shared_initialization.obj
 0001:00043610       ??$?RV<lambda_c36588078e9f5dfd39652860aa6b3aaf>@@AEAV<lambda_ec61778202f4f5fc7e7711acc23c3bca>@@V<lambda_dc9d2797ccde5d239b4a0efae8ebd7db>@@@?$__crt_seh_guarded_call@P6AXH@Z@@QEAAP6AXH@Z$$QEAV<lambda_c36588078e9f5dfd39652860aa6b3aaf>@@AEAV<lambda_ec61778202f4f5fc7e7711acc23c3bca>@@$$QEAV<lambda_dc9d2797ccde5d239b4a0efae8ebd7db>@@@Z 0000000180044610 f i libucrt:signal.obj
 0001:00043658       __acrt_get_sigabrt_handler 0000000180044658 f   libucrt:signal.obj
 0001:00043688       __acrt_initialize_signal_handlers 0000000180044688 f   libucrt:signal.obj
 0001:000436a8       raise                      00000001800446a8 f   libucrt:signal.obj
 0001:00043944       __acrt_has_user_matherr    0000000180044944 f   libucrt:matherr.obj
 0001:00043964       __acrt_initialize_user_matherr 0000000180044964 f   libucrt:matherr.obj
 0001:0004396c       __acrt_invoke_user_matherr 000000018004496c f   libucrt:matherr.obj
 0001:000439b4       _query_new_mode            00000001800449b4 f   libucrt:new_mode.obj
 0001:000439bc       _isatty                    00000001800449bc f   libucrt:isatty.obj
 0001:00043ba8       _lseeki64                  0000000180044ba8 f   libucrt:lseek.obj
 0001:00043bb0       _lseeki64_nolock           0000000180044bb0 f   libucrt:lseek.obj
 0001:00043bb8       __acrt_stdio_allocate_buffer_nolock 0000000180044bb8 f   libucrt:_getbuf.obj
 0001:00043c1c       __acrt_add_locale_ref      0000000180044c1c f   libucrt:locale_refcounting.obj
 0001:00043ca8       __acrt_free_locale         0000000180044ca8 f   libucrt:locale_refcounting.obj
 0001:00043e20       __acrt_locale_add_lc_time_reference 0000000180044e20 f   libucrt:locale_refcounting.obj
 0001:00043e48       __acrt_locale_free_lc_time_if_unreferenced 0000000180044e48 f   libucrt:locale_refcounting.obj
 0001:00043e80       __acrt_locale_release_lc_time_reference 0000000180044e80 f   libucrt:locale_refcounting.obj
 0001:00043ea8       __acrt_release_locale_ref  0000000180044ea8 f   libucrt:locale_refcounting.obj
 0001:00043f50       __acrt_update_thread_locale_data 0000000180044f50 f   libucrt:locale_refcounting.obj
 0001:00043fc0       _updatetlocinfoEx_nolock   0000000180044fc0 f   libucrt:locale_refcounting.obj
 0001:00044040       strncmp                    0000000180045040 f   libucrt:strncmp.obj
 0001:000440c0       __ascii_strnicmp           00000001800450c0 f   libucrt:strnicmp.obj
 0001:00044108       _strnicmp                  0000000180045108 f   libucrt:strnicmp.obj
 0001:00044158       _strnicmp_l                0000000180045158 f   libucrt:strnicmp.obj
 0001:00044878       _sopen_nolock              0000000180045878 f   libucrt:open.obj
 0001:00044908       _sopen_s                   0000000180045908 f   libucrt:open.obj
 0001:0004493c       _wsopen_nolock             000000018004593c f   libucrt:open.obj
 0001:00044df4       __acrt_DownlevelLocaleNameToLCID 0000000180045df4 f   libucrt:lcidtoname_downlevel.obj
 0001:00044e28       ??$?RV<lambda_b521505b218e5242e90febf6bfebc422>@@AEAV<lambda_6978c1fb23f02e42e1d9e99668cc68aa>@@V<lambda_314360699dd331753a4119843814e9a7>@@@?$__crt_seh_guarded_call@H@@QEAAH$$QEAV<lambda_b521505b218e5242e90febf6bfebc422>@@AEAV<lambda_6978c1fb23f02e42e1d9e99668cc68aa>@@$$QEAV<lambda_314360699dd331753a4119843814e9a7>@@@Z 0000000180045e28 f i libucrt:commit.obj
 0001:00044eb4       _commit                    0000000180045eb4 f   libucrt:commit.obj
 0001:00044f48       _isleadbyte_l              0000000180045f48 f i libucrt:_wctype.obj
 0001:000452e4       __acrt_LCMapStringA        00000001800462e4 f   libucrt:lcmapstringa.obj
 0001:0004537c       __acrt_fp_strflt_to_string 000000018004637c f   libucrt:_fptostr.obj
 0001:0004543c       __acrt_fltout              000000018004643c f   libucrt:cfout.obj
 0001:000467a8       __acrt_locale_free_monetary 00000001800477a8 f   libucrt:initmon.obj
 0001:000468b4       __acrt_locale_free_numeric 00000001800478b4 f   libucrt:initnum.obj
 0001:00046978       __acrt_locale_free_time    0000000180047978 f   libucrt:inittime.obj
 0001:00046a80       __acrt_GetStringTypeA      0000000180047a80 f   libucrt:getstringtypea.obj
 0001:00046c34       strcat_s                   0000000180047c34 f   libucrt:strcat_s.obj
 0001:00046fdc       __acrt_pack_narrow_command_line_and_environment 0000000180047fdc f   libucrt:cenvarg.obj
 0001:00047140       __acrt_getpath             0000000180048140 f   libucrt:getpath.obj
 0001:000471f0       _query_app_type            00000001800481f0 f   libucrt:report_runtime_error.obj
 0001:000471f8       _putwch_nolock             00000001800481f8 f   libucrt:putwch.obj
 0001:00047254       _getfpcontrolword          0000000180048254 f   libucrt:_fenvutils.obj
 0001:0004726c       _getfpstatusword           000000018004826c f   libucrt:_fenvutils.obj
 0001:00047280       _setfpcontrolword          0000000180048280 f   libucrt:_fenvutils.obj
 0001:0004728c       _setfpstatusword           000000018004828c f   libucrt:_fenvutils.obj
 0001:00047670       __acrt_CompareStringA      0000000180048670 f   libucrt:comparestringa.obj
 0001:000477d0       qsort                      00000001800487d0 f   libucrt:qsort.obj
 0001:00047b04       strncpy_s                  0000000180048b04 f   libucrt:strncpy_s.obj
 0001:00047bd8       strpbrk                    0000000180048bd8 f   libucrt:strpbrk.obj
 0001:00047c78       _mbsdec                    0000000180048c78 f   libucrt:mbsdec.obj
 0001:00047c80       _mbsdec_l                  0000000180048c80 f   libucrt:mbsdec.obj
 0001:00047d30       _msize                     0000000180048d30 f   libucrt:msize.obj
 0001:00047d6c       _realloc_base              0000000180048d6c f   libucrt:realloc_base.obj
 0001:00047df0       _chsize_nolock             0000000180048df0 f   libucrt:chsize.obj
 0001:0004849c       _read_nolock               000000018004949c f   libucrt:read.obj
 0001:00048904       __strncnt                  0000000180049904 f   libucrt:strncnt.obj
 0001:0004891c       fegetenv                   000000018004991c f   libucrt:fegetenv.obj
 0001:0004893c       fesetenv                   000000018004993c f   libucrt:fesetenv.obj
 0001:00048988       feholdexcept               0000000180049988 f   libucrt:feholdexcept.obj
 0001:000489d8       ceil                       00000001800499d8 f   libucrt:ceil.obj
 0001:00048aa0       log10                      0000000180049aa0 f   libucrt:log10.obj
 0001:0004904c       __dcrt_lowio_initialize_console_output 000000018004a04c f   libucrt:initcon.obj
 0001:00049088       __dcrt_terminate_console_output 000000018004a088 f   libucrt:initcon.obj
 0001:000490a8       _clearfp                   000000018004a0a8 f   libucrt:ieee.obj
 0001:000490fc       _controlfp                 000000018004a0fc f   libucrt:ieee.obj
 0001:00049108       _statusfp                  000000018004a108 f   libucrt:ieee.obj
 0001:00049400       _get_fpsr                  000000018004a400 f   libucrt:fpsr.obj
 0001:00049410       _set_fpsr                  000000018004a410 f   libucrt:fpsr.obj
 0001:0004941a       _fclrf                     000000018004a41a f   libucrt:fpsr.obj
 0001:0004942e       _frnd                      000000018004a42e f   libucrt:fpsr.obj
 0001:00049574       _handle_error              000000018004a574 f   libucrt:libm_error.obj
 0001:0004969c       _handle_errorf             000000018004a69c f   libucrt:libm_error.obj
 0001:000497d0       _handle_nan                000000018004a7d0 f   libucrt:libm_error.obj
 0001:000497f0       __acrt_initialize_fma3     000000018004a7f0 f   libucrt:fma3_available.obj
 0001:00049860       _log10_special             000000018004a860 f   libucrt:log_special.obj
 0001:00049880       _log_special               000000018004a880 f   libucrt:log_special.obj
 0001:00049938       _raise_exc                 000000018004a938 f   libucrt:fpexcept.obj
 0001:00049960       _raise_exc_ex              000000018004a960 f   libucrt:fpexcept.obj
 0001:00049c68       _raise_excf                000000018004ac68 f   libucrt:fpexcept.obj
 0001:00049c94       _set_errno_from_matherr    000000018004ac94 f   libucrt:fpexcept.obj
 0001:00049cc4       _clrfp                     000000018004acc4 f   libucrt:fpctrl.obj
 0001:00049ce4       _ctrlfp                    000000018004ace4 f   libucrt:fpctrl.obj
 0001:00049d60       _set_statfp                000000018004ad60 f   libucrt:fpctrl.obj
 0001:00049d80       _statfp                    000000018004ad80 f   libucrt:fpctrl.obj
 0001:00049d92       IsProcessorFeaturePresent  000000018004ad92 f   kernel32:KERNEL32.dll
 0001:00049d98       RtlUnwindEx                000000018004ad98 f   kernel32:KERNEL32.dll
 0001:00049da0       ?DloadAcquireSectionWriteAccess@@YAXXZ 000000018004ada0 f i DelayImp:delayhlp.obj
 0001:00049e5c       ?DloadGetSRWLockFunctionPointers@@YAEXZ 000000018004ae5c f i DelayImp:delayhlp.obj
 0001:00049ef8       ?DloadMakePermanentImageCommit@@YAXPEAX_K@Z 000000018004aef8 f i DelayImp:delayhlp.obj
 0001:00049f90       ?DloadObtainSection@@YAPEAXPEAK0@Z 000000018004af90 f i DelayImp:delayhlp.obj
 0001:0004a028       ?DloadProtectSection@@YAXKPEAK@Z 000000018004b028 f i DelayImp:delayhlp.obj
 0001:0004a0b8       ?DloadReleaseSectionWriteAccess@@YAXXZ 000000018004b0b8 f i DelayImp:delayhlp.obj
 0001:0004a15c       __delayLoadHelper2         000000018004b15c f   DelayImp:delayhlp.obj
 0001:0004a460       _FindPESection             000000018004b460 f   LIBCMT:pesect.obj
 0001:0004a4b0       _IsNonwritableInCurrentImage 000000018004b4b0 f   LIBCMT:pesect.obj
 0001:0004a500       _ValidateImageBase         000000018004b500 f   LIBCMT:pesect.obj
 0001:0004a530       __GSHandlerCheck           000000018004b530 f   LIBCMT:_gshandler_.obj
 0001:0004a550       __GSHandlerCheckCommon     000000018004b550 f   LIBCMT:_gshandler_.obj
 0001:0004a5c0       _alloca_probe              000000018004b5c0 f   LIBCMT:_chkstk_.obj
 0001:0004a5c0       __chkstk                   000000018004b5c0 f   LIBCMT:_chkstk_.obj
 0001:0004a614       strrchr                    000000018004b614 f   libvcruntime:strrchr.obj
 0001:0004a770       memcmp                     000000018004b770 f   libvcruntime:memcmp.obj
 0001:0004a838       __GSHandlerCheck_EH        000000018004b838 f   LIBCMT:gshandlereh.obj
 0001:0004a8b8       ?_ExecutionInCatch@@YAHPEAU_xDISPATCHER_CONTEXT@@PEBU_s_FuncInfo@@@Z 000000018004b8b8 f   libvcruntime:trnsctrl.obj
 0001:0004a92c       ?_GetEstablisherFrame@@YAPEA_KPEA_KPEAU_xDISPATCHER_CONTEXT@@PEBU_s_FuncInfo@@0@Z 000000018004b92c f   libvcruntime:trnsctrl.obj
 0001:0004a9f8       ?_GetRangeOfTrysToCheck@@YAPEBU_s_TryBlockMapEntry@@PEA_KPEBU_s_FuncInfo@@HHPEAI2PEAU_xDISPATCHER_CONTEXT@@@Z 000000018004b9f8 f   libvcruntime:trnsctrl.obj
 0001:0004ab24       ?__FrameUnwindToEmptyState@@YAXPEA_KPEAU_xDISPATCHER_CONTEXT@@PEBU_s_FuncInfo@@@Z 000000018004bb24 f   libvcruntime:trnsctrl.obj
 0001:0004abb8       ?__SehTransFilter@@YAHPEAU_EXCEPTION_POINTERS@@PEAUEHExceptionRecord@@PEA_KPEAU_CONTEXT@@PEAU_xDISPATCHER_CONTEXT@@PEBU_s_FuncInfo@@PEAH@Z 000000018004bbb8 f   libvcruntime:trnsctrl.obj
 0001:0004ac50       _CallSETranslator          000000018004bc50 f   libvcruntime:trnsctrl.obj
 0001:0004aca8       _CreateFrameInfo           000000018004bca8 f   libvcruntime:trnsctrl.obj
 0001:0004ace4       _FindAndUnlinkFrame        000000018004bce4 f   libvcruntime:trnsctrl.obj
 0001:0004ad3c       _GetImageBase              000000018004bd3c f   libvcruntime:trnsctrl.obj
 0001:0004ad50       _GetThrowImageBase         000000018004bd50 f   libvcruntime:trnsctrl.obj
 0001:0004ad64       _IsExceptionObjectToBeDestroyed 000000018004bd64 f   libvcruntime:trnsctrl.obj
 0001:0004ad94       _SetImageBase              000000018004bd94 f   libvcruntime:trnsctrl.obj
 0001:0004adac       _SetThrowImageBase         000000018004bdac f   libvcruntime:trnsctrl.obj
 0001:0004adc4       _UnwindNestedFrames        000000018004bdc4 f   libvcruntime:trnsctrl.obj
 0001:0004aee8       __CxxFrameHandler3         000000018004bee8 f   libvcruntime:trnsctrl.obj
 0001:0004af68       ?__GetCurrentState@@YAHPEA_KPEAU_xDISPATCHER_CONTEXT@@PEBU_s_FuncInfo@@@Z 000000018004bf68 f   libvcruntime:ehstate.obj
 0001:0004af90       ?__GetUnwindTryBlock@@YAHPEA_KPEAU_xDISPATCHER_CONTEXT@@PEBU_s_FuncInfo@@@Z 000000018004bf90 f   libvcruntime:ehstate.obj
 0001:0004afbc       ?__SetState@@YAXPEA_KPEAU_xDISPATCHER_CONTEXT@@PEBU_s_FuncInfo@@H@Z 000000018004bfbc f   libvcruntime:ehstate.obj
 0001:0004afc8       ?__SetUnwindTryBlock@@YAXPEA_KPEAU_xDISPATCHER_CONTEXT@@PEBU_s_FuncInfo@@H@Z 000000018004bfc8 f   libvcruntime:ehstate.obj
 0001:0004b004       ?__StateFromControlPc@@YAHPEBU_s_FuncInfo@@PEAU_xDISPATCHER_CONTEXT@@@Z 000000018004c004 f   libvcruntime:ehstate.obj
 0001:0004b00c       ?__StateFromIp@@YAHPEBU_s_FuncInfo@@PEAU_xDISPATCHER_CONTEXT@@_J@Z 000000018004c00c f   libvcruntime:ehstate.obj
 0001:0004b078       __DestructExceptionObject  000000018004c078 f   libvcruntime:frame.obj
 0001:0004b100       ??0bad_exception@std@@QEAA@AEBV01@@Z 000000018004c100 f i libvcruntime:frame.obj
 0001:0004b140       ??0bad_exception@std@@QEAA@XZ 000000018004c140 f i libvcruntime:frame.obj
 0001:0004babc       ?_CallMemberFunction0@@YAXPEAXP6AX0@Z@Z 000000018004cabc f i libvcruntime:frame.obj
 0001:0004bac0       ?_CallMemberFunction1@@YAXPEAXP6AX0@Z0@Z 000000018004cac0 f i libvcruntime:frame.obj
 0001:0004bacc       ?_CallMemberFunction2@@YAXPEAXP6AX0@Z0H@Z 000000018004cacc f i libvcruntime:frame.obj
 0001:0004badc       __AdjustPointer            000000018004cadc f   libvcruntime:frame.obj
 0001:0004bb00       __BuildCatchObject         000000018004cb00 f   libvcruntime:frame.obj
 0001:0004bbc4       __BuildCatchObjectHelper   000000018004cbc4 f   libvcruntime:frame.obj
 0001:0004bda4       __CxxCallCatchBlock        000000018004cda4 f   libvcruntime:frame.obj
 0001:0004bf90       __FrameUnwindFilter        000000018004cf90 f   libvcruntime:frame.obj
 0001:0004bfdc       __FrameUnwindToState       000000018004cfdc f   libvcruntime:frame.obj
 0001:0004c170       __InternalCxxFrameHandler  000000018004d170 f   libvcruntime:frame.obj
 0001:0004c3c8       __TypeMatch                000000018004d3c8 f   libvcruntime:frame.obj
 0001:0004c520       _CallSettingFrame          000000018004d520 f   libvcruntime:handlers.obj
 0001:0004c560       cosf                       000000018004d560 f   libucrt:cosf.obj
 0001:0004ca60       exp                        000000018004da60 f   libucrt:exp.obj
 0001:0004ce60       expf                       000000018004de60 f   libucrt:expf.obj
 0001:0004d110       log                        000000018004e110 f   libucrt:log.obj
 0001:0004d640       sinf                       000000018004e640 f   libucrt:sinf.obj
 0001:0004dd50       strcmp                     000000018004ed50 f   libucrt:strcmp.obj
 0001:0004ddc0       __remainder_piby2d2f_forAsm 000000018004edc0 f   libucrt:remainder_piby2f_forasm.obj
 0001:0004df10       __remainder_piby2_fma3     000000018004ef10 f   libucrt:remainder_piby2_forfma3.obj
 0001:0004e100       __remainder_piby2_fma3_bdl 000000018004f100 f   libucrt:remainder_piby2_forfma3.obj
 0001:0004e178       _cosf_special              000000018004f178 f   libucrt:sincos_special.obj
 0001:0004e218       _sinf_special              000000018004f218 f   libucrt:sincos_special.obj
 0001:0004e230       _exp_special               000000018004f230 f   libucrt:exp_special.obj
 0001:0004e2c8       _expf_special              000000018004f2c8 f   libucrt:exp_special.obj
 0001:0004e370       __remainder_piby2d2f_forC  000000018004f370 f   libucrt:remainder_piby2f_forc.obj
 0001:0004e510       _guard_dispatch_icall_nop  000000018004f510 f   LIBCMT:_guard_dispatch_.obj
 0001:0004fce0       ??__Fres@?1??_logo40x38@?$CImg@E@cimg_library@@SA?AU12@XZ@YAXXZ 0000000180050ce0 f i cap.obj
 0001:0004fd00       ??__Ffont@?1???$draw_text@EE@?$CImg@E@cimg_library@@QEAAAEAU01@HHQEBDQEBE1MIZZ@YAXXZ 0000000180050d00 f i cap.obj
 0001:0004fd20       ??__Fcvfont@?1??font@?$CImgList@M@cimg_library@@SAAEBU12@I_N@Z@YAXXZ 0000000180050d20 f i cap.obj
 0001:0004fd40       ??__Fcfont@?1??font@?$CImgList@M@cimg_library@@SAAEBU12@I_N@Z@YAXXZ 0000000180050d40 f i cap.obj
 0001:0004fd60       ??__Fvfont@?1??font@?$CImgList@M@cimg_library@@SAAEBU12@I_N@Z@YAXXZ 0000000180050d60 f i cap.obj
 0001:0004fd80       ??__Ffont@?1??font@?$CImgList@M@cimg_library@@SAAEBU12@I_N@Z@YAXXZ 0000000180050d80 f i cap.obj
 0001:0004fda0       ??__F_empty@?1??empty@?$CImgList@M@cimg_library@@SAAEAU12@XZ@YAXXZ 0000000180050da0 f i cap.obj
 0002:00000000       __imp_SetDIBitsToDevice    0000000180051000     gdi32:GDI32.dll
 0002:00000008       \177GDI32_NULL_THUNK_DATA  0000000180051008     gdi32:GDI32.dll
 0002:00000010       __imp_WaitForSingleObject  0000000180051010     kernel32:KERNEL32.dll
 0002:00000018       __imp_ReleaseMutex         0000000180051018     kernel32:KERNEL32.dll
 0002:00000020       __imp_Sleep                0000000180051020     kernel32:KERNEL32.dll
 0002:00000028       __imp_SetEvent             0000000180051028     kernel32:KERNEL32.dll
 0002:00000030       __imp_TerminateThread      0000000180051030     kernel32:KERNEL32.dll
 0002:00000038       __imp_CloseHandle          0000000180051038     kernel32:KERNEL32.dll
 0002:00000040       __imp_CreateThread         0000000180051040     kernel32:KERNEL32.dll
 0002:00000048       __imp_GetStartupInfoA      0000000180051048     kernel32:KERNEL32.dll
 0002:00000050       __imp_CreateProcessA       0000000180051050     kernel32:KERNEL32.dll
 0002:00000058       __imp_GetSystemTime        0000000180051058     kernel32:KERNEL32.dll
 0002:00000060       __imp_CreateEventA         0000000180051060     kernel32:KERNEL32.dll
 0002:00000068       __imp_GetModuleHandleA     0000000180051068     kernel32:KERNEL32.dll
 0002:00000070       __imp_LoadLibraryExA       0000000180051070     kernel32:KERNEL32.dll
 0002:00000078       __imp_VirtualQuery         0000000180051078     kernel32:KERNEL32.dll
 0002:00000080       __imp_CreateMutexA         0000000180051080     kernel32:KERNEL32.dll
 0002:00000088       __imp_GetSystemInfo        0000000180051088     kernel32:KERNEL32.dll
 0002:00000090       __imp_ReadConsoleW         0000000180051090     kernel32:KERNEL32.dll
 0002:00000098       __imp_ReadFile             0000000180051098     kernel32:KERNEL32.dll
 0002:000000a0       __imp_SetEndOfFile         00000001800510a0     kernel32:KERNEL32.dll
 0002:000000a8       __imp_HeapReAlloc          00000001800510a8     kernel32:KERNEL32.dll
 0002:000000b0       __imp_HeapSize             00000001800510b0     kernel32:KERNEL32.dll
 0002:000000b8       __imp_WriteConsoleW        00000001800510b8     kernel32:KERNEL32.dll
 0002:000000c0       __imp_FlushFileBuffers     00000001800510c0     kernel32:KERNEL32.dll
 0002:000000c8       __imp_CreateFileW          00000001800510c8     kernel32:KERNEL32.dll
 0002:000000d0       __imp_SetFilePointerEx     00000001800510d0     kernel32:KERNEL32.dll
 0002:000000d8       __imp_GetProcessHeap       00000001800510d8     kernel32:KERNEL32.dll
 0002:000000e0       __imp_SetEnvironmentVariableA 00000001800510e0     kernel32:KERNEL32.dll
 0002:000000e8       __imp_VirtualProtect       00000001800510e8     kernel32:KERNEL32.dll
 0002:000000f0       __imp_GetShortPathNameA    00000001800510f0     kernel32:KERNEL32.dll
 0002:000000f8       __imp_FreeEnvironmentStringsW 00000001800510f8     kernel32:KERNEL32.dll
 0002:00000100       __imp_GetEnvironmentStringsW 0000000180051100     kernel32:KERNEL32.dll
 0002:00000108       __imp_EnterCriticalSection 0000000180051108     kernel32:KERNEL32.dll
 0002:00000110       __imp_LeaveCriticalSection 0000000180051110     kernel32:KERNEL32.dll
 0002:00000118       __imp_DeleteCriticalSection 0000000180051118     kernel32:KERNEL32.dll
 0002:00000120       __imp_ResetEvent           0000000180051120     kernel32:KERNEL32.dll
 0002:00000128       __imp_WaitForSingleObjectEx 0000000180051128     kernel32:KERNEL32.dll
 0002:00000130       __imp_CreateEventW         0000000180051130     kernel32:KERNEL32.dll
 0002:00000138       __imp_GetModuleHandleW     0000000180051138     kernel32:KERNEL32.dll
 0002:00000140       __imp_GetProcAddress       0000000180051140     kernel32:KERNEL32.dll
 0002:00000148       __imp_RtlCaptureContext    0000000180051148     kernel32:KERNEL32.dll
 0002:00000150       __imp_RtlLookupFunctionEntry 0000000180051150     kernel32:KERNEL32.dll
 0002:00000158       __imp_RtlVirtualUnwind     0000000180051158     kernel32:KERNEL32.dll
 0002:00000160       __imp_UnhandledExceptionFilter 0000000180051160     kernel32:KERNEL32.dll
 0002:00000168       __imp_SetUnhandledExceptionFilter 0000000180051168     kernel32:KERNEL32.dll
 0002:00000170       __imp_GetCurrentProcess    0000000180051170     kernel32:KERNEL32.dll
 0002:00000178       __imp_TerminateProcess     0000000180051178     kernel32:KERNEL32.dll
 0002:00000180       __imp_IsProcessorFeaturePresent 0000000180051180     kernel32:KERNEL32.dll
 0002:00000188       __imp_IsDebuggerPresent    0000000180051188     kernel32:KERNEL32.dll
 0002:00000190       __imp_GetStartupInfoW      0000000180051190     kernel32:KERNEL32.dll
 0002:00000198       __imp_QueryPerformanceCounter 0000000180051198     kernel32:KERNEL32.dll
 0002:000001a0       __imp_GetCurrentProcessId  00000001800511a0     kernel32:KERNEL32.dll
 0002:000001a8       __imp_GetCurrentThreadId   00000001800511a8     kernel32:KERNEL32.dll
 0002:000001b0       __imp_GetSystemTimeAsFileTime 00000001800511b0     kernel32:KERNEL32.dll
 0002:000001b8       __imp_InitializeSListHead  00000001800511b8     kernel32:KERNEL32.dll
 0002:000001c0       __imp_RtlPcToFileHeader    00000001800511c0     kernel32:KERNEL32.dll
 0002:000001c8       __imp_RaiseException       00000001800511c8     kernel32:KERNEL32.dll
 0002:000001d0       __imp_GetLastError         00000001800511d0     kernel32:KERNEL32.dll
 0002:000001d8       __imp_InitializeCriticalSectionAndSpinCount 00000001800511d8     kernel32:KERNEL32.dll
 0002:000001e0       __imp_TlsAlloc             00000001800511e0     kernel32:KERNEL32.dll
 0002:000001e8       __imp_TlsGetValue          00000001800511e8     kernel32:KERNEL32.dll
 0002:000001f0       __imp_TlsSetValue          00000001800511f0     kernel32:KERNEL32.dll
 0002:000001f8       __imp_TlsFree              00000001800511f8     kernel32:KERNEL32.dll
 0002:00000200       __imp_FreeLibrary          0000000180051200     kernel32:KERNEL32.dll
 0002:00000208       __imp_LoadLibraryExW       0000000180051208     kernel32:KERNEL32.dll
 0002:00000210       __imp_RtlUnwindEx          0000000180051210     kernel32:KERNEL32.dll
 0002:00000218       __imp_InterlockedFlushSList 0000000180051218     kernel32:KERNEL32.dll
 0002:00000220       __imp_SetLastError         0000000180051220     kernel32:KERNEL32.dll
 0002:00000228       __imp_MultiByteToWideChar  0000000180051228     kernel32:KERNEL32.dll
 0002:00000230       __imp_ExitProcess          0000000180051230     kernel32:KERNEL32.dll
 0002:00000238       __imp_GetModuleHandleExW   0000000180051238     kernel32:KERNEL32.dll
 0002:00000240       __imp_GetModuleFileNameA   0000000180051240     kernel32:KERNEL32.dll
 0002:00000248       __imp_WideCharToMultiByte  0000000180051248     kernel32:KERNEL32.dll
 0002:00000250       __imp_HeapFree             0000000180051250     kernel32:KERNEL32.dll
 0002:00000258       __imp_HeapAlloc            0000000180051258     kernel32:KERNEL32.dll
 0002:00000260       __imp_GetStdHandle         0000000180051260     kernel32:KERNEL32.dll
 0002:00000268       __imp_GetFileType          0000000180051268     kernel32:KERNEL32.dll
 0002:00000270       __imp_CompareStringW       0000000180051270     kernel32:KERNEL32.dll
 0002:00000278       __imp_LCMapStringW         0000000180051278     kernel32:KERNEL32.dll
 0002:00000280       __imp_DeleteFileW          0000000180051280     kernel32:KERNEL32.dll
 0002:00000288       __imp_GetACP               0000000180051288     kernel32:KERNEL32.dll
 0002:00000290       __imp_GetExitCodeProcess   0000000180051290     kernel32:KERNEL32.dll
 0002:00000298       __imp_GetFileAttributesExW 0000000180051298     kernel32:KERNEL32.dll
 0002:000002a0       __imp_SetStdHandle         00000001800512a0     kernel32:KERNEL32.dll
 0002:000002a8       __imp_MoveFileExW          00000001800512a8     kernel32:KERNEL32.dll
 0002:000002b0       __imp_WriteFile            00000001800512b0     kernel32:KERNEL32.dll
 0002:000002b8       __imp_GetConsoleCP         00000001800512b8     kernel32:KERNEL32.dll
 0002:000002c0       __imp_GetConsoleMode       00000001800512c0     kernel32:KERNEL32.dll
 0002:000002c8       __imp_GetStringTypeW       00000001800512c8     kernel32:KERNEL32.dll
 0002:000002d0       __imp_FindClose            00000001800512d0     kernel32:KERNEL32.dll
 0002:000002d8       __imp_FindFirstFileExA     00000001800512d8     kernel32:KERNEL32.dll
 0002:000002e0       __imp_FindNextFileA        00000001800512e0     kernel32:KERNEL32.dll
 0002:000002e8       __imp_IsValidCodePage      00000001800512e8     kernel32:KERNEL32.dll
 0002:000002f0       __imp_GetOEMCP             00000001800512f0     kernel32:KERNEL32.dll
 0002:000002f8       __imp_GetCPInfo            00000001800512f8     kernel32:KERNEL32.dll
 0002:00000300       __imp_GetCommandLineA      0000000180051300     kernel32:KERNEL32.dll
 0002:00000308       __imp_GetCommandLineW      0000000180051308     kernel32:KERNEL32.dll
 0002:00000310       __imp_EncodePointer        0000000180051310     kernel32:KERNEL32.dll
 0002:00000318       \177KERNEL32_NULL_THUNK_DATA 0000000180051318     kernel32:KERNEL32.dll
 0002:00000320       __imp_SHGetSpecialFolderPathA 0000000180051320     shell32:SHELL32.dll
 0002:00000328       \177SHELL32_NULL_THUNK_DATA 0000000180051328     shell32:SHELL32.dll
 0002:00000330       __imp_GetMessageA          0000000180051330     user32:USER32.dll
 0002:00000338       __imp_DispatchMessageA     0000000180051338     user32:USER32.dll
 0002:00000340       __imp_GetWindowRect        0000000180051340     user32:USER32.dll
 0002:00000348       __imp_DestroyWindow        0000000180051348     user32:USER32.dll
 0002:00000350       __imp_GetDC                0000000180051350     user32:USER32.dll
 0002:00000358       __imp_SetWindowPos         0000000180051358     user32:USER32.dll
 0002:00000360       __imp_ShowWindow           0000000180051360     user32:USER32.dll
 0002:00000368       __imp_ChangeDisplaySettingsA 0000000180051368     user32:USER32.dll
 0002:00000370       __imp_EnumDisplaySettingsA 0000000180051370     user32:USER32.dll
 0002:00000378       __imp_AdjustWindowRect     0000000180051378     user32:USER32.dll
 0002:00000380       __imp_DefWindowProcA       0000000180051380     user32:USER32.dll
 0002:00000388       __imp_CreateWindowExA      0000000180051388     user32:USER32.dll
 0002:00000390       __imp_PeekMessageA         0000000180051390     user32:USER32.dll
 0002:00000398       __imp_GetWindowLongPtrA    0000000180051398     user32:USER32.dll
 0002:000003a0       __imp_SetWindowLongPtrA    00000001800513a0     user32:USER32.dll
 0002:000003a8       __imp_SetForegroundWindow  00000001800513a8     user32:USER32.dll
 0002:000003b0       __imp_ShowCursor           00000001800513b0     user32:USER32.dll
 0002:000003b8       __imp_TrackMouseEvent      00000001800513b8     user32:USER32.dll
 0002:000003c0       \177USER32_NULL_THUNK_DATA 00000001800513c0     user32:USER32.dll
 0002:000003c8       __guard_check_icall_fptr   00000001800513c8     LIBCMT:guard_support.obj
 0002:000003d0       __guard_dispatch_icall_fptr 00000001800513d0     LIBCMT:guard_support.obj
 0002:000003d8       __xc_a                     00000001800513d8     LIBCMT:initializers.obj
 0002:000003f0       _register_hcaptha_         00000001800513f0     hcaptha.obj
 0002:000003f8       __xc_z                     00000001800513f8     LIBCMT:initializers.obj
 0002:00000400       __xi_a                     0000000180051400     LIBCMT:initializers.obj
 0002:00000410       __acrt_stdio_initializer   0000000180051410     libucrt:stdio_initializer.obj
 0002:00000418       __acrt_multibyte_initializer 0000000180051418     libucrt:multibyte_initializer.obj
 0002:00000420       __acrt_tran_fma3_initializer 0000000180051420     libucrt:fma3_initializer.obj
 0002:00000428       __xi_z                     0000000180051428     LIBCMT:initializers.obj
 0002:00000430       __xl_a                     0000000180051430     LIBCMT:tlssup.obj
 0002:00000438       __xl_z                     0000000180051438     LIBCMT:tlssup.obj
 0002:00000440       __xp_a                     0000000180051440     LIBCMT:initializers.obj
 0002:00000448       __acrt_locale_terminator   0000000180051448     libucrt:locale_initializer.obj
 0002:00000450       __dcrt_console_output_terminator 0000000180051450     libucrt:console_output_initializer.obj
 0002:00000458       __acrt_stdio_terminator    0000000180051458     libucrt:stdio_initializer.obj
 0002:00000460       __xp_z                     0000000180051460     LIBCMT:initializers.obj
 0002:00000468       __xt_a                     0000000180051468     LIBCMT:initializers.obj
 0002:00000470       __xt_z                     0000000180051470     LIBCMT:initializers.obj
 0002:00000480       __sz_node_exe              0000000180051480     node:node.exe
 0002:00000498       ??_7exception@std@@6B@     0000000180051498     libcpmt:xthrow.obj
 0002:000004a8       ??_C@_0BC@EOODALEL@Unknown?5exception?$AA@ 00000001800514a8     libcpmt:xthrow.obj
 0002:000004c8       ??_7bad_alloc@std@@6B@     00000001800514c8     libcpmt:xthrow.obj
 0002:000004d8       ??_C@_0P@GHFPNOJB@bad?5allocation?$AA@ 00000001800514d8     libcpmt:xthrow.obj
 0002:000004f0       ??_7logic_error@std@@6B@   00000001800514f0     libcpmt:xthrow.obj
 0002:00000508       ??_7length_error@std@@6B@  0000000180051508     libcpmt:xthrow.obj
 0002:00000520       ??_7out_of_range@std@@6B@  0000000180051520     libcpmt:xthrow.obj
 0002:00000530       ??_C@_1BK@MGMFAEKH@?$AAk?$AAe?$AAr?$AAn?$AAe?$AAl?$AA3?$AA2?$AA?4?$AAd?$AAl?$AAl?$AA?$AA@ 0000000180051530     LIBCMT:thread_safe_statics.obj
 0002:00000550       ??_C@_0BM@HLJJNPAH@InitializeConditionVariable?$AA@ 0000000180051550     LIBCMT:thread_safe_statics.obj
 0002:00000570       ??_C@_0BJ@JEBJOJFJ@SleepConditionVariableCS?$AA@ 0000000180051570     LIBCMT:thread_safe_statics.obj
 0002:00000590       ??_C@_0BJ@PGPPEPCC@WakeAllConditionVariable?$AA@ 0000000180051590     LIBCMT:thread_safe_statics.obj
 0002:000005c8       ??_7type_info@@6B@         00000001800515c8     LIBCMT:std_type_info_static.obj
 0002:000005d0       _pDefaultRawDllMain        00000001800515d0     LIBCMT:dll_dllmain.obj
 0002:000005d0       _pRawDllMain               00000001800515d0     LIBCMT:dll_dllmain.obj
 0002:000005e0       ??_7bad_array_new_length@std@@6B@ 00000001800515e0     LIBCMT:throw_bad_alloc.obj
 0002:000005f0       ??_C@_0BF@KINCDENJ@bad?5array?5new?5length?$AA@ 00000001800515f0     LIBCMT:throw_bad_alloc.obj
 0002:00000670       ??_C@_1BC@DNHGCMLG@?$AAa?$AAd?$AAv?$AAa?$AAp?$AAi?$AA3?$AA2?$AA?$AA@ 0000000180051670     libvcruntime:winapi_downlevel.obj
 0002:00000688       ??_C@_1DM@KHCHBNEB@?$AAa?$AAp?$AAi?$AA?9?$AAm?$AAs?$AA?9?$AAw?$AAi?$AAn?$AA?9?$AAc?$AAo?$AAr?$AAe?$AA?9?$AAf?$AAi?$AAb?$AAe?$AAr?$AAs?$AA?9?$AAl?$AA1?$AA?9?$AA1?$AA?9?$AA1?$AA?$AA@ 0000000180051688     libvcruntime:winapi_downlevel.obj
 0002:000006c8       ??_C@_1DK@LPPGFMPP@?$AAa?$AAp?$AAi?$AA?9?$AAm?$AAs?$AA?9?$AAw?$AAi?$AAn?$AA?9?$AAc?$AAo?$AAr?$AAe?$AA?9?$AAs?$AAy?$AAn?$AAc?$AAh?$AA?9?$AAl?$AA1?$AA?9?$AA2?$AA?9?$AA0?$AA?$AA@ 00000001800516c8     libvcruntime:winapi_downlevel.obj
 0002:00000708       ??_C@_1BC@GDMECMAK@?$AAk?$AAe?$AAr?$AAn?$AAe?$AAl?$AA3?$AA2?$AA?$AA@ 0000000180051708     libvcruntime:winapi_downlevel.obj
 0002:00000728       ??_C@_08KNHFBNJ@FlsAlloc?$AA@ 0000000180051728     libvcruntime:winapi_downlevel.obj
 0002:00000740       ??_C@_07PEJMOBNF@FlsFree?$AA@ 0000000180051740     libvcruntime:winapi_downlevel.obj
 0002:00000750       ??_C@_0M@GDNOONDI@FlsGetValue?$AA@ 0000000180051750     libvcruntime:winapi_downlevel.obj
 0002:00000768       ??_C@_0M@JCPCPOEF@FlsSetValue?$AA@ 0000000180051768     libvcruntime:winapi_downlevel.obj
 0002:00000780       ??_C@_0BM@HCFOFFN@InitializeCriticalSectionEx?$AA@ 0000000180051780     libvcruntime:winapi_downlevel.obj
 0002:00000ac0       ??_C@_08EHJDFFNH@__based?$CI?$AA@ 0000000180051ac0     libvcruntime:undname.obj
 0002:00000ad0       ??_C@_07KOLFKCDI@__cdecl?$AA@ 0000000180051ad0     libvcruntime:undname.obj
 0002:00000ad8       ??_C@_08GHMPAG@__pascal?$AA@ 0000000180051ad8     libvcruntime:undname.obj
 0002:00000ae8       ??_C@_09IFJBGAPI@__stdcall?$AA@ 0000000180051ae8     libvcruntime:undname.obj
 0002:00000af8       ??_C@_0L@NPHFGOKO@__thiscall?$AA@ 0000000180051af8     libvcruntime:undname.obj
 0002:00000b08       ??_C@_0L@JMKHOMEK@__fastcall?$AA@ 0000000180051b08     libvcruntime:undname.obj
 0002:00000b18       ??_C@_0N@BCKKPABJ@__vectorcall?$AA@ 0000000180051b18     libvcruntime:undname.obj
 0002:00000b28       ??_C@_09HIJEGCPM@__clrcall?$AA@ 0000000180051b28     libvcruntime:undname.obj
 0002:00000b34       ??_C@_06GHPCKEAG@__eabi?$AA@ 0000000180051b34     libvcruntime:undname.obj
 0002:00000b40       ??_C@_07JOMMBBKO@__ptr64?$AA@ 0000000180051b40     libvcruntime:undname.obj
 0002:00000b48       ??_C@_0L@PILCLIHE@__restrict?$AA@ 0000000180051b48     libvcruntime:undname.obj
 0002:00000b58       ??_C@_0M@GFIIJFMG@__unaligned?$AA@ 0000000180051b58     libvcruntime:undname.obj
 0002:00000b68       ??_C@_09DHDLOLLB@restrict?$CI?$AA@ 0000000180051b68     libvcruntime:undname.obj
 0002:00000b74       ??_C@_04NIHEBCM@?5new?$AA@ 0000000180051b74     libvcruntime:undname.obj
 0002:00000b80       ??_C@_07FPCDHGMM@?5delete?$AA@ 0000000180051b80     libvcruntime:undname.obj
 0002:00000b88       ??_C@_01NEMOKFLO@?$DN?$AA@ 0000000180051b88     libvcruntime:undname.obj
 0002:00000b8c       ??_C@_02GPIOPFAK@?$DO?$DO?$AA@ 0000000180051b8c     libvcruntime:undname.obj
 0002:00000b90       ??_C@_02FODMEDOG@?$DM?$DM?$AA@ 0000000180051b90     libvcruntime:undname.obj
 0002:00000b94       ??_C@_01DCLJPIOD@?$CB?$AA@ 0000000180051b94     libvcruntime:undname.obj
 0002:00000b98       ??_C@_02EGOFBIJA@?$DN?$DN?$AA@ 0000000180051b98     libvcruntime:undname.obj
 0002:00000b9c       ??_C@_02FDNJECIE@?$CB?$DN?$AA@ 0000000180051b9c     libvcruntime:undname.obj
 0002:00000ba0       ??_C@_02GPECMEKF@?$FL?$FN?$AA@ 0000000180051ba0     libvcruntime:undname.obj
 0002:00000ba8       ??_C@_08LHJFAFGD@operator?$AA@ 0000000180051ba8     libvcruntime:undname.obj
 0002:00000bb4       ??_C@_02HBOOOICD@?9?$DO?$AA@ 0000000180051bb4     libvcruntime:undname.obj
 0002:00000bb8       ??_C@_01NBENCBCI@?$CK?$AA@ 0000000180051bb8     libvcruntime:undname.obj
 0002:00000bbc       ??_C@_02ECNGHCIF@?$CL?$CL?$AA@ 0000000180051bbc     libvcruntime:undname.obj
 0002:00000bc0       ??_C@_02BAABKJLB@?9?9?$AA@ 0000000180051bc0     libvcruntime:undname.obj
 0002:00000bc4       ??_C@_01JOAMLHOP@?9?$AA@   0000000180051bc4     libvcruntime:undname.obj
 0002:00000bc8       ??_C@_01MIFGBAGJ@?$CL?$AA@ 0000000180051bc8     libvcruntime:undname.obj
 0002:00000bcc       ??_C@_01HNPIGOCE@?$CG?$AA@ 0000000180051bcc     libvcruntime:undname.obj
 0002:00000bd0       ??_C@_03MNHNFDLC@?9?$DO?$CK?$AA@ 0000000180051bd0     libvcruntime:undname.obj
 0002:00000bd4       ??_C@_01KMDKNFGN@?1?$AA@   0000000180051bd4     libvcruntime:undname.obj
 0002:00000bd8       ??_C@_01FGNFDNOH@?$CF?$AA@ 0000000180051bd8     libvcruntime:undname.obj
 0002:00000bdc       ??_C@_01MNNFJEPP@?$DM?$AA@ 0000000180051bdc     libvcruntime:undname.obj
 0002:00000be0       ??_C@_02EHCHHCKH@?$DM?$DN?$AA@ 0000000180051be0     libvcruntime:undname.obj
 0002:00000be4       ??_C@_01PPODPGHN@?$DO?$AA@ 0000000180051be4     libvcruntime:undname.obj
 0002:00000be8       ??_C@_02EEKDKGMJ@?$DO?$DN?$AA@ 0000000180051be8     libvcruntime:undname.obj
 0002:00000bec       ??_C@_02HCKGKOFO@?$CI?$CJ?$AA@ 0000000180051bec     libvcruntime:undname.obj
 0002:00000bf0       ??_C@_01PJKLJHI@?$HO?$AA@  0000000180051bf0     libvcruntime:undname.obj
 0002:00000bf4       ??_C@_01JKBOJNNK@?$FO?$AA@ 0000000180051bf4     libvcruntime:undname.obj
 0002:00000bf8       ??_C@_01DNKMNLPK@?$HM?$AA@ 0000000180051bf8     libvcruntime:undname.obj
 0002:00000bfc       ??_C@_02PPKAJPJL@?$CG?$CG?$AA@ 0000000180051bfc     libvcruntime:undname.obj
 0002:00000c00       ??_C@_02NONPIBCD@?$HM?$HM?$AA@ 0000000180051c00     libvcruntime:undname.obj
 0002:00000c04       ??_C@_02FPIMKNGF@?$CK?$DN?$AA@ 0000000180051c04     libvcruntime:undname.obj
 0002:00000c08       ??_C@_02FOEOMHFC@?$CL?$DN?$AA@ 0000000180051c08     libvcruntime:undname.obj
 0002:00000c0c       ??_C@_02FKMDLLOA@?9?$DN?$AA@ 0000000180051c0c     libvcruntime:undname.obj
 0002:00000c10       ??_C@_02FJEHGPIO@?1?$DN?$AA@ 0000000180051c10     libvcruntime:undname.obj
 0002:00000c14       ??_C@_02FENAOKFI@?$CF?$DN?$AA@ 0000000180051c14     libvcruntime:undname.obj
 0002:00000c18       ??_C@_03IKFCCPFF@?$DO?$DO?$DN?$AA@ 0000000180051c18     libvcruntime:undname.obj
 0002:00000c1c       ??_C@_03CDNPDDLA@?$DM?$DM?$DN?$AA@ 0000000180051c1c     libvcruntime:undname.obj
 0002:00000c20       ??_C@_02FGJGFEAB@?$CG?$DN?$AA@ 0000000180051c20     libvcruntime:undname.obj
 0002:00000c24       ??_C@_02DHLNPPGH@?$HM?$DN?$AA@ 0000000180051c24     libvcruntime:undname.obj
 0002:00000c28       ??_C@_02MHEGNOJ@?$FO?$DN?$AA@ 0000000180051c28     libvcruntime:undname.obj
 0002:00000c30       ??_C@_09IFPLHPGF@?$GAvftable?8?$AA@ 0000000180051c30     libvcruntime:undname.obj
 0002:00000c40       ??_C@_09BLBHBJP@?$GAvbtable?8?$AA@ 0000000180051c40     libvcruntime:undname.obj
 0002:00000c50       ??_C@_07FEEIOKP@?$GAvcall?8?$AA@ 0000000180051c50     libvcruntime:undname.obj
 0002:00000c58       ??_C@_08LLFFHHDJ@?$GAtypeof?8?$AA@ 0000000180051c58     libvcruntime:undname.obj
 0002:00000c68       ??_C@_0BF@KDPPACIK@?$GAlocal?5static?5guard?8?$AA@ 0000000180051c68     libvcruntime:undname.obj
 0002:00000c80       ??_C@_08OBABFOLI@?$GAstring?8?$AA@ 0000000180051c80     libvcruntime:undname.obj
 0002:00000c90       ??_C@_0BD@JDLKDPAB@?$GAvbase?5destructor?8?$AA@ 0000000180051c90     libvcruntime:undname.obj
 0002:00000ca8       ??_C@_0BN@DEGPLNFK@?$GAvector?5deleting?5destructor?8?$AA@ 0000000180051ca8     libvcruntime:undname.obj
 0002:00000cc8       ??_C@_0BO@OBMKPJIG@?$GAdefault?5constructor?5closure?8?$AA@ 0000000180051cc8     libvcruntime:undname.obj
 0002:00000ce8       ??_C@_0BN@IMDCHIKM@?$GAscalar?5deleting?5destructor?8?$AA@ 0000000180051ce8     libvcruntime:undname.obj
 0002:00000d08       ??_C@_0BO@PFGOCPJJ@?$GAvector?5constructor?5iterator?8?$AA@ 0000000180051d08     libvcruntime:undname.obj
 0002:00000d28       ??_C@_0BN@LFPFMEDL@?$GAvector?5destructor?5iterator?8?$AA@ 0000000180051d28     libvcruntime:undname.obj
 0002:00000d48       ??_C@_0CE@IKBNEHA@?$GAvector?5vbase?5constructor?5iterat@ 0000000180051d48     libvcruntime:undname.obj
 0002:00000d70       ??_C@_0BL@NILFHHPC@?$GAvirtual?5displacement?5map?8?$AA@ 0000000180051d70     libvcruntime:undname.obj
 0002:00000d90       ??_C@_0CB@JONCMFFK@?$GAeh?5vector?5constructor?5iterator?8@ 0000000180051d90     libvcruntime:undname.obj
 0002:00000db8       ??_C@_0CA@GCEOPDGL@?$GAeh?5vector?5destructor?5iterator?8?$AA@ 0000000180051db8     libvcruntime:undname.obj
 0002:00000dd8       ??_C@_0CH@OOJPLCPH@?$GAeh?5vector?5vbase?5constructor?5ite@ 0000000180051dd8     libvcruntime:undname.obj
 0002:00000e00       ??_C@_0BL@LLKPOHJI@?$GAcopy?5constructor?5closure?8?$AA@ 0000000180051e00     libvcruntime:undname.obj
 0002:00000e20       ??_C@_0BA@KBCDOMBN@?$GAudt?5returning?8?$AA@ 0000000180051e20     libvcruntime:undname.obj
 0002:00000e30       ??_C@_03KLGMFNMG@?$GAEH?$AA@ 0000000180051e30     libvcruntime:undname.obj
 0002:00000e34       ??_C@_05KHLCHHI@?$GARTTI?$AA@ 0000000180051e34     libvcruntime:undname.obj
 0002:00000e40       ??_C@_0BA@KKLDJDLB@?$GAlocal?5vftable?8?$AA@ 0000000180051e40     libvcruntime:undname.obj
 0002:00000e50       ??_C@_0CE@IIHCMGGL@?$GAlocal?5vftable?5constructor?5closu@ 0000000180051e50     libvcruntime:undname.obj
 0002:00000e74       ??_C@_06FHBGPFGH@?5new?$FL?$FN?$AA@ 0000000180051e74     libvcruntime:undname.obj
 0002:00000e80       ??_C@_09LBNFPBCA@?5delete?$FL?$FN?$AA@ 0000000180051e80     libvcruntime:undname.obj
 0002:00000e90       ??_C@_0P@HJKNJFNN@?$GAomni?5callsig?8?$AA@ 0000000180051e90     libvcruntime:undname.obj
 0002:00000ea0       ??_C@_0BL@CNOONJFP@?$GAplacement?5delete?5closure?8?$AA@ 0000000180051ea0     libvcruntime:undname.obj
 0002:00000ec0       ??_C@_0BN@CKNJLHMB@?$GAplacement?5delete?$FL?$FN?5closure?8?$AA@ 0000000180051ec0     libvcruntime:undname.obj
 0002:00000ee0       ??_C@_0CG@CFDHKGGD@?$GAmanaged?5vector?5constructor?5iter@ 0000000180051ee0     libvcruntime:undname.obj
 0002:00000f08       ??_C@_0CF@IMGKMJNO@?$GAmanaged?5vector?5destructor?5itera@ 0000000180051f08     libvcruntime:undname.obj
 0002:00000f30       ??_C@_0CG@HLDDJMAG@?$GAeh?5vector?5copy?5constructor?5iter@ 0000000180051f30     libvcruntime:undname.obj
 0002:00000f58       ??_C@_0CM@FCBBDIGB@?$GAeh?5vector?5vbase?5copy?5constructo@ 0000000180051f58     libvcruntime:undname.obj
 0002:00000f88       ??_C@_0BL@CLIPGLGB@?$GAdynamic?5initializer?5for?5?8?$AA@ 0000000180051f88     libvcruntime:undname.obj
 0002:00000fa8       ??_C@_0CB@PDBIFEP@?$GAdynamic?5atexit?5destructor?5for?5?8@ 0000000180051fa8     libvcruntime:undname.obj
 0002:00000fd0       ??_C@_0CD@CGAJBKEJ@?$GAvector?5copy?5constructor?5iterato@ 0000000180051fd0     libvcruntime:undname.obj
 0002:00000ff8       ??_C@_0CJ@GJELGAMM@?$GAvector?5vbase?5copy?5constructor?5i@ 0000000180051ff8     libvcruntime:undname.obj
 0002:00001028       ??_C@_0CL@FGIJHLCE@?$GAmanaged?5vector?5copy?5constructor@ 0000000180052028     libvcruntime:undname.obj
 0002:00001058       ??_C@_0BM@PMGGMLDN@?$GAlocal?5static?5thread?5guard?8?$AA@ 0000000180052058     libvcruntime:undname.obj
 0002:00001078       ??_C@_0N@BDNMDMOL@operator?5?$CC?$CC?5?$AA@ 0000000180052078     libvcruntime:undname.obj
 0002:00001088       ??_C@_0BC@DAFEJGAK@?5Type?5Descriptor?8?$AA@ 0000000180052088     libvcruntime:undname.obj
 0002:000010a0       ??_C@_0BM@LDKODKLH@?5Base?5Class?5Descriptor?5at?5?$CI?$AA@ 00000001800520a0     libvcruntime:undname.obj
 0002:000010c0       ??_C@_0BD@LGICGFMM@?5Base?5Class?5Array?8?$AA@ 00000001800520c0     libvcruntime:undname.obj
 0002:000010d8       ??_C@_0BN@MECKDCOJ@?5Class?5Hierarchy?5Descriptor?8?$AA@ 00000001800520d8     libvcruntime:undname.obj
 0002:000010f8       ??_C@_0BK@CFCOFLF@?5Complete?5Object?5Locator?8?$AA@ 00000001800520f8     libvcruntime:undname.obj
 0002:00001120       standard_lookup_table      0000000180052120     libucrt:output.obj
 0002:0000117c       ??_C@_06OJHGLDPL@?$CInull?$CJ?$AA@ 000000018005217c     libucrt:output.obj
 0002:00001188       ??_C@_1O@CEDCILHN@?$AA?$CI?$AAn?$AAu?$AAl?$AAl?$AA?$CJ?$AA?$AA@ 0000000180052188     libucrt:output.obj
 0002:000011b0       ?large_power_data@?1??multiply_by_power_of_ten@__crt_strtox@@YA_NAEAUbig_integer@2@I@Z@4QBIB 00000001800521b0     libucrt:input.obj
 0002:00001ac0       ?large_power_indices@?1??multiply_by_power_of_ten@__crt_strtox@@YA_NAEAUbig_integer@2@I@Z@4QBUunpack_index@?1??12@YA_N0I@Z@B 0000000180052ac0     libucrt:input.obj
 0002:00001b58       ?small_powers_of_ten@?6??multiply_by_power_of_ten@__crt_strtox@@YA_NAEAUbig_integer@2@I@Z@4QBIB 0000000180052b58     libucrt:input.obj
 0002:00001b80       ??_C@_1GE@DPGDJKLM@?$AAm?$AAi?$AAn?$AAk?$AAe?$AAr?$AAn?$AAe?$AAl?$AA?2?$AAc?$AAr?$AAt?$AAs?$AA?2?$AAu?$AAc?$AAr?$AAt?$AA?2?$AAi?$AAn?$AAc?$AA?2?$AAc?$AAo?$AAr?$AAe?$AAc?$AAr?$AAt?$AA_@ 0000000180052b80     libucrt:input.obj
 0002:00001bf0       ??_C@_1FM@FELNCOBF@?$AA_?$AA_?$AAc?$AAr?$AAt?$AA_?$AAs?$AAt?$AAr?$AAt?$AAo?$AAx?$AA?3?$AA?3?$AAf?$AAl?$AAo?$AAa?$AAt?$AAi?$AAn?$AAg?$AA_?$AAp?$AAo?$AAi?$AAn?$AAt?$AA_?$AAv?$AAa?$AAl@ 0000000180052bf0     libucrt:input.obj
 0002:00001c50       ??_C@_1BG@GEMHBGAF@?$AA_?$AAi?$AAs?$AA_?$AAd?$AAo?$AAu?$AAb?$AAl?$AAe?$AA?$AA@ 0000000180052c50     libucrt:input.obj
 0002:00001c70       ??_C@_1FK@JOJELFFO@?$AA_?$AA_?$AAc?$AAr?$AAt?$AA_?$AAs?$AAt?$AAr?$AAt?$AAo?$AAx?$AA?3?$AA?3?$AAf?$AAl?$AAo?$AAa?$AAt?$AAi?$AAn?$AAg?$AA_?$AAp?$AAo?$AAi?$AAn?$AAt?$AA_?$AAv?$AAa?$AAl@ 0000000180052c70     libucrt:input.obj
 0002:00001cd0       ??_C@_1BI@BANMPGJI@?$AA?$CB?$AA_?$AAi?$AAs?$AA_?$AAd?$AAo?$AAu?$AAb?$AAl?$AAe?$AA?$AA@ 0000000180052cd0     libucrt:input.obj
 0002:00001cf0       ?constraints@?1??is_length_valid@__crt_stdio_input@@YA_NW4conversion_mode@2@W4length_modifier@2@@Z@4QAY0M@$$CBEA 0000000180052cf0     libucrt:input.obj
 0002:00001d68       ?inf_uppercase@?2???$parse_floating_point_possible_infinity@DV?$input_adapter_character_source@V?$string_input_adapter@D@__crt_stdio_input@@@__crt_strtox@@_K@__crt_strtox@@YA?AW4floating_point_parse_result@1@AEADAEAV?$input_adapter_character_source@V?$string_input_adapter@D@__crt_stdio_input@@@1@_K@Z@4QBDB 0000000180052d68     libucrt:input.obj
 0002:00001d6c       ?inf_lowercase@?2???$parse_floating_point_possible_infinity@DV?$input_adapter_character_source@V?$string_input_adapter@D@__crt_stdio_input@@@__crt_strtox@@_K@__crt_strtox@@YA?AW4floating_point_parse_result@1@AEADAEAV?$input_adapter_character_source@V?$string_input_adapter@D@__crt_stdio_input@@@1@_K@Z@4QBDB 0000000180052d6c     libucrt:input.obj
 0002:00001d70       ?inity_uppercase@?5???$parse_floating_point_possible_infinity@DV?$input_adapter_character_source@V?$string_input_adapter@D@__crt_stdio_input@@@__crt_strtox@@_K@__crt_strtox@@YA?AW4floating_point_parse_result@1@AEADAEAV?$input_adapter_character_source@V?$string_input_adapter@D@__crt_stdio_input@@@1@_K@Z@4QBDB 0000000180052d70     libucrt:input.obj
 0002:00001d78       ?inity_lowercase@?5???$parse_floating_point_possible_infinity@DV?$input_adapter_character_source@V?$string_input_adapter@D@__crt_stdio_input@@@__crt_strtox@@_K@__crt_strtox@@YA?AW4floating_point_parse_result@1@AEADAEAV?$input_adapter_character_source@V?$string_input_adapter@D@__crt_stdio_input@@@1@_K@Z@4QBDB 0000000180052d78     libucrt:input.obj
 0002:00001d80       ?uppercase@?2???$parse_floating_point_possible_nan@DV?$input_adapter_character_source@V?$string_input_adapter@D@__crt_stdio_input@@@__crt_strtox@@_K@__crt_strtox@@YA?AW4floating_point_parse_result@1@AEADAEAV?$input_adapter_character_source@V?$string_input_adapter@D@__crt_stdio_input@@@1@_K@Z@4QBDB 0000000180052d80     libucrt:input.obj
 0002:00001d84       ?lowercase@?2???$parse_floating_point_possible_nan@DV?$input_adapter_character_source@V?$string_input_adapter@D@__crt_stdio_input@@@__crt_strtox@@_K@__crt_strtox@@YA?AW4floating_point_parse_result@1@AEADAEAV?$input_adapter_character_source@V?$string_input_adapter@D@__crt_stdio_input@@@1@_K@Z@4QBDB 0000000180052d84     libucrt:input.obj
 0002:00001d88       ?uppercase@?1???$parse_floating_point_possible_nan_is_snan@DV?$input_adapter_character_source@V?$string_input_adapter@D@__crt_stdio_input@@@__crt_strtox@@@__crt_strtox@@YA_NAEADAEAV?$input_adapter_character_source@V?$string_input_adapter@D@__crt_stdio_input@@@1@@Z@4QBDB 0000000180052d88     libucrt:input.obj
 0002:00001d90       ?lowercase@?1???$parse_floating_point_possible_nan_is_snan@DV?$input_adapter_character_source@V?$string_input_adapter@D@__crt_stdio_input@@@__crt_strtox@@@__crt_strtox@@YA_NAEADAEAV?$input_adapter_character_source@V?$string_input_adapter@D@__crt_stdio_input@@@1@@Z@4QBDB 0000000180052d90     libucrt:input.obj
 0002:00001d98       ?uppercase@?1???$parse_floating_point_possible_nan_is_ind@DV?$input_adapter_character_source@V?$string_input_adapter@D@__crt_stdio_input@@@__crt_strtox@@@__crt_strtox@@YA_NAEADAEAV?$input_adapter_character_source@V?$string_input_adapter@D@__crt_stdio_input@@@1@@Z@4QBDB 0000000180052d98     libucrt:input.obj
 0002:00001d9c       ?lowercase@?1???$parse_floating_point_possible_nan_is_ind@DV?$input_adapter_character_source@V?$string_input_adapter@D@__crt_stdio_input@@@__crt_strtox@@@__crt_strtox@@YA_NAEADAEAV?$input_adapter_character_source@V?$string_input_adapter@D@__crt_stdio_input@@@1@@Z@4QBDB 0000000180052d9c     libucrt:input.obj
 0002:00001da0       __acrt_exception_action_table 0000000180052da0     libucrt:exception_filter.obj
 0002:00001e60       __acrt_signal_action_table_count 0000000180052e60     libucrt:exception_filter.obj
 0002:00001e68       __acrt_signal_action_first_fpe_index 0000000180052e68     libucrt:exception_filter.obj
 0002:00001e70       __acrt_signal_action_fpe_count 0000000180052e70     libucrt:exception_filter.obj
 0002:00001e78       ??_C@_1BI@BGOHAHKC@?$AAm?$AAs?$AAc?$AAo?$AAr?$AAe?$AAe?$AA?4?$AAd?$AAl?$AAl?$AA?$AA@ 0000000180052e78     libucrt:exit.obj
 0002:00001e90       ??_C@_0P@MIGLKIOC@CorExitProcess?$AA@ 0000000180052e90     libucrt:exit.obj
 0002:000020f8       ?ccs@?BL@???$__acrt_stdio_parse_mode@D@@YA?AU__acrt_stdio_stream_mode@@QEBD@Z@4QBDB 00000001800530f8     libucrt:openfile.obj
 0002:000020fc       ?utf8_encoding@?BL@???$__acrt_stdio_parse_mode@D@@YA?AU__acrt_stdio_stream_mode@@QEBD@Z@4QBDB 00000001800530fc     libucrt:openfile.obj
 0002:00002108       ?utf16_encoding@?BL@???$__acrt_stdio_parse_mode@D@@YA?AU__acrt_stdio_stream_mode@@QEBD@Z@4QBDB 0000000180053108     libucrt:openfile.obj
 0002:00002110       ?unicode_encoding@?BL@???$__acrt_stdio_parse_mode@D@@YA?AU__acrt_stdio_stream_mode@@QEBD@Z@4QBDB 0000000180053110     libucrt:openfile.obj
 0002:000021c0       ??_C@_1EG@CNNIPFIM@?$AAa?$AAp?$AAi?$AA?9?$AAm?$AAs?$AA?9?$AAw?$AAi?$AAn?$AA?9?$AAa?$AAp?$AAp?$AAm?$AAo?$AAd?$AAe?$AAl?$AA?9?$AAr?$AAu?$AAn?$AAt?$AAi?$AAm?$AAe?$AA?9?$AAl?$AA1?$AA?9?$AA1@ 00000001800531c0     libucrt:winapi_thunks.obj
 0002:00002210       ??_C@_1EA@JGEFHKEI@?$AAa?$AAp?$AAi?$AA?9?$AAm?$AAs?$AA?9?$AAw?$AAi?$AAn?$AA?9?$AAc?$AAo?$AAr?$AAe?$AA?9?$AAd?$AAa?$AAt?$AAe?$AAt?$AAi?$AAm?$AAe?$AA?9?$AAl?$AA1?$AA?9?$AA1?$AA?9?$AA1?$AA?$AA@ 0000000180053210     libucrt:winapi_thunks.obj
 0002:00002250       ??_C@_1DI@GCIAAENM@?$AAa?$AAp?$AAi?$AA?9?$AAm?$AAs?$AA?9?$AAw?$AAi?$AAn?$AA?9?$AAc?$AAo?$AAr?$AAe?$AA?9?$AAf?$AAi?$AAl?$AAe?$AA?9?$AAl?$AA2?$AA?9?$AA1?$AA?9?$AA1?$AA?$AA@ 0000000180053250     libucrt:winapi_thunks.obj
 0002:00002290       ??_C@_1EI@MPIAOHOC@?$AAa?$AAp?$AAi?$AA?9?$AAm?$AAs?$AA?9?$AAw?$AAi?$AAn?$AA?9?$AAc?$AAo?$AAr?$AAe?$AA?9?$AAl?$AAo?$AAc?$AAa?$AAl?$AAi?$AAz?$AAa?$AAt?$AAi?$AAo?$AAn?$AA?9?$AAl?$AA1?$AA?9@ 0000000180053290     libucrt:winapi_thunks.obj
 0002:000022e0       ??_C@_1FK@FPHCKFIE@?$AAa?$AAp?$AAi?$AA?9?$AAm?$AAs?$AA?9?$AAw?$AAi?$AAn?$AA?9?$AAc?$AAo?$AAr?$AAe?$AA?9?$AAl?$AAo?$AAc?$AAa?$AAl?$AAi?$AAz?$AAa?$AAt?$AAi?$AAo?$AAn?$AA?9?$AAo?$AAb?$AAs@ 00000001800532e0     libucrt:winapi_thunks.obj
 0002:00002340       ??_C@_1EM@DILCGIIO@?$AAa?$AAp?$AAi?$AA?9?$AAm?$AAs?$AA?9?$AAw?$AAi?$AAn?$AA?9?$AAc?$AAo?$AAr?$AAe?$AA?9?$AAp?$AAr?$AAo?$AAc?$AAe?$AAs?$AAs?$AAt?$AAh?$AAr?$AAe?$AAa?$AAd?$AAs?$AA?9?$AAl@ 0000000180053340     libucrt:winapi_thunks.obj
 0002:00002390       ??_C@_1DM@LNCGDDPN@?$AAa?$AAp?$AAi?$AA?9?$AAm?$AAs?$AA?9?$AAw?$AAi?$AAn?$AA?9?$AAc?$AAo?$AAr?$AAe?$AA?9?$AAs?$AAt?$AAr?$AAi?$AAn?$AAg?$AA?9?$AAl?$AA1?$AA?9?$AA1?$AA?9?$AA0?$AA?$AA@ 0000000180053390     libucrt:winapi_thunks.obj
 0002:000023d0       ??_C@_1DO@FPAPJEMD@?$AAa?$AAp?$AAi?$AA?9?$AAm?$AAs?$AA?9?$AAw?$AAi?$AAn?$AA?9?$AAc?$AAo?$AAr?$AAe?$AA?9?$AAs?$AAy?$AAs?$AAi?$AAn?$AAf?$AAo?$AA?9?$AAl?$AA1?$AA?9?$AA2?$AA?9?$AA1?$AA?$AA@ 00000001800533d0     libucrt:winapi_thunks.obj
 0002:00002410       ??_C@_1DK@NDHNAHIO@?$AAa?$AAp?$AAi?$AA?9?$AAm?$AAs?$AA?9?$AAw?$AAi?$AAn?$AA?9?$AAc?$AAo?$AAr?$AAe?$AA?9?$AAw?$AAi?$AAn?$AAr?$AAt?$AA?9?$AAl?$AA1?$AA?9?$AA1?$AA?9?$AA0?$AA?$AA@ 0000000180053410     libucrt:winapi_thunks.obj
 0002:00002450       ??_C@_1DM@KGHDGBCM@?$AAa?$AAp?$AAi?$AA?9?$AAm?$AAs?$AA?9?$AAw?$AAi?$AAn?$AA?9?$AAc?$AAo?$AAr?$AAe?$AA?9?$AAx?$AAs?$AAt?$AAa?$AAt?$AAe?$AA?9?$AAl?$AA2?$AA?9?$AA1?$AA?9?$AA0?$AA?$AA@ 0000000180053450     libucrt:winapi_thunks.obj
 0002:00002490       ??_C@_1EO@IJIOEFOH@?$AAa?$AAp?$AAi?$AA?9?$AAm?$AAs?$AA?9?$AAw?$AAi?$AAn?$AA?9?$AAr?$AAt?$AAc?$AAo?$AAr?$AAe?$AA?9?$AAn?$AAt?$AAu?$AAs?$AAe?$AAr?$AA?9?$AAw?$AAi?$AAn?$AAd?$AAo?$AAw?$AA?9@ 0000000180053490     libucrt:winapi_thunks.obj
 0002:000024e0       ??_C@_1FG@HHGEKANL@?$AAa?$AAp?$AAi?$AA?9?$AAm?$AAs?$AA?9?$AAw?$AAi?$AAn?$AA?9?$AAs?$AAe?$AAc?$AAu?$AAr?$AAi?$AAt?$AAy?$AA?9?$AAs?$AAy?$AAs?$AAt?$AAe?$AAm?$AAf?$AAu?$AAn?$AAc?$AAt?$AAi@ 00000001800534e0     libucrt:winapi_thunks.obj
 0002:00002540       ??_C@_1FG@NCKKOLKO@?$AAe?$AAx?$AAt?$AA?9?$AAm?$AAs?$AA?9?$AAw?$AAi?$AAn?$AA?9?$AAk?$AAe?$AAr?$AAn?$AAe?$AAl?$AA3?$AA2?$AA?9?$AAp?$AAa?$AAc?$AAk?$AAa?$AAg?$AAe?$AA?9?$AAc?$AAu?$AAr?$AAr@ 0000000180053540     libucrt:winapi_thunks.obj
 0002:000025a0       ??_C@_1EG@DBIOJECG@?$AAe?$AAx?$AAt?$AA?9?$AAm?$AAs?$AA?9?$AAw?$AAi?$AAn?$AA?9?$AAn?$AAt?$AAu?$AAs?$AAe?$AAr?$AA?9?$AAd?$AAi?$AAa?$AAl?$AAo?$AAg?$AAb?$AAo?$AAx?$AA?9?$AAl?$AA1?$AA?9?$AA1@ 00000001800535a0     libucrt:winapi_thunks.obj
 0002:000025f0       ??_C@_1EO@FIHMJCLF@?$AAe?$AAx?$AAt?$AA?9?$AAm?$AAs?$AA?9?$AAw?$AAi?$AAn?$AA?9?$AAn?$AAt?$AAu?$AAs?$AAe?$AAr?$AA?9?$AAw?$AAi?$AAn?$AAd?$AAo?$AAw?$AAs?$AAt?$AAa?$AAt?$AAi?$AAo?$AAn?$AA?9@ 00000001800535f0     libucrt:winapi_thunks.obj
 0002:00002640       ??_C@_1O@BCCLBEOE@?$AAu?$AAs?$AAe?$AAr?$AA3?$AA2?$AA?$AA@ 0000000180053640     libucrt:winapi_thunks.obj
 0002:00002658       ??_C@_0BA@FHFNEAED@AreFileApisANSI?$AA@ 0000000180053658     libucrt:winapi_thunks.obj
 0002:00002670       ??_C@_0BA@IHGNDAEB@CompareStringEx?$AA@ 0000000180053670     libucrt:winapi_thunks.obj
 0002:000026a8       ??_C@_0BE@JOGNEJCI@GetCurrentPackageId?$AA@ 00000001800536a8     libucrt:winapi_thunks.obj
 0002:000026d0       ??_C@_0O@KKBNKAPF@LCMapStringEx?$AA@ 00000001800536d0     libucrt:winapi_thunks.obj
 0002:000026e8       ??_C@_0BB@HBDEELFH@LocaleNameToLCID?$AA@ 00000001800536e8     libucrt:winapi_thunks.obj
 0002:000026fc       ??_C@_03OEIAHPBN@INF?$AA@  00000001800536fc     libucrt:cvt.obj
 0002:00002700       ??_C@_03OJHLLCGB@inf?$AA@  0000000180053700     libucrt:cvt.obj
 0002:00002704       ??_C@_03LKNCIKJB@NAN?$AA@  0000000180053704     libucrt:cvt.obj
 0002:00002708       ??_C@_03LHCJEHON@nan?$AA@  0000000180053708     libucrt:cvt.obj
 0002:00002710       ??_C@_09OFJJIMPC@NAN?$CISNAN?$CJ?$AA@ 0000000180053710     libucrt:cvt.obj
 0002:00002720       ??_C@_09IPFBKMDL@nan?$CIsnan?$CJ?$AA@ 0000000180053720     libucrt:cvt.obj
 0002:00002730       ??_C@_08IKHNHAJ@NAN?$CIIND?$CJ?$AA@ 0000000180053730     libucrt:cvt.obj
 0002:00002740       ??_C@_08OFCDMILK@nan?$CIind?$CJ?$AA@ 0000000180053740     libucrt:cvt.obj
 0002:0000274c       ??_C@_05KLBDPFGC@e?$CL000?$AA@ 000000018005374c     libucrt:cvt.obj
 0002:00002760       __lc_time_c                0000000180053760     libucrt:nlsdata.obj
 0002:00002a20       ??_C@_03KOEHGMDN@Sun?$AA@  0000000180053a20     libucrt:nlsdata.obj
 0002:00002a24       ??_C@_03PDAGKDH@Mon?$AA@   0000000180053a24     libucrt:nlsdata.obj
 0002:00002a28       ??_C@_03NAGEINEP@Tue?$AA@  0000000180053a28     libucrt:nlsdata.obj
 0002:00002a2c       ??_C@_03MHOMLAJA@Wed?$AA@  0000000180053a2c     libucrt:nlsdata.obj
 0002:00002a30       ??_C@_03IOFIKPDN@Thu?$AA@  0000000180053a30     libucrt:nlsdata.obj
 0002:00002a34       ??_C@_03IDIOELNC@Fri?$AA@  0000000180053a34     libucrt:nlsdata.obj
 0002:00002a38       ??_C@_03FEFJNEK@Sat?$AA@   0000000180053a38     libucrt:nlsdata.obj
 0002:00002a3c       ??_C@_06OOPIFAJ@Sunday?$AA@ 0000000180053a3c     libucrt:nlsdata.obj
 0002:00002a44       ??_C@_06JLEDEDGH@Monday?$AA@ 0000000180053a44     libucrt:nlsdata.obj
 0002:00002a50       ??_C@_07BAAGCFCM@Tuesday?$AA@ 0000000180053a50     libucrt:nlsdata.obj
 0002:00002a58       ??_C@_09DLIGFAKA@Wednesday?$AA@ 0000000180053a58     libucrt:nlsdata.obj
 0002:00002a68       ??_C@_08HACCIKIA@Thursday?$AA@ 0000000180053a68     libucrt:nlsdata.obj
 0002:00002a74       ??_C@_06JECMNKMI@Friday?$AA@ 0000000180053a74     libucrt:nlsdata.obj
 0002:00002a80       ??_C@_08INBOOONO@Saturday?$AA@ 0000000180053a80     libucrt:nlsdata.obj
 0002:00002a8c       ??_C@_03JIHJHPIE@Jan?$AA@  0000000180053a8c     libucrt:nlsdata.obj
 0002:00002a90       ??_C@_03HJBDCHOM@Feb?$AA@  0000000180053a90     libucrt:nlsdata.obj
 0002:00002a94       ??_C@_03ODNJBKGA@Mar?$AA@  0000000180053a94     libucrt:nlsdata.obj
 0002:00002a98       ??_C@_03LEOLGMJP@Apr?$AA@  0000000180053a98     libucrt:nlsdata.obj
 0002:00002a9c       ??_C@_03CNMDKL@May?$AA@    0000000180053a9c     libucrt:nlsdata.obj
 0002:00002aa0       ??_C@_03IDFGHECI@Jun?$AA@  0000000180053aa0     libucrt:nlsdata.obj
 0002:00002aa4       ??_C@_03LBGABGKK@Jul?$AA@  0000000180053aa4     libucrt:nlsdata.obj
 0002:00002aa8       ??_C@_03IFJFEIGA@Aug?$AA@  0000000180053aa8     libucrt:nlsdata.obj
 0002:00002aac       ??_C@_03GGCAPAJC@Sep?$AA@  0000000180053aac     libucrt:nlsdata.obj
 0002:00002ab0       ??_C@_03BMAOKBAD@Oct?$AA@  0000000180053ab0     libucrt:nlsdata.obj
 0002:00002ab4       ??_C@_03JPJOFNIA@Nov?$AA@  0000000180053ab4     libucrt:nlsdata.obj
 0002:00002ab8       ??_C@_03MKABNOCG@Dec?$AA@  0000000180053ab8     libucrt:nlsdata.obj
 0002:00002ac0       ??_C@_07CGJPFGJA@January?$AA@ 0000000180053ac0     libucrt:nlsdata.obj
 0002:00002ac8       ??_C@_08GNJGEPFN@February?$AA@ 0000000180053ac8     libucrt:nlsdata.obj
 0002:00002ad4       ??_C@_05HPCKOFNC@March?$AA@ 0000000180053ad4     libucrt:nlsdata.obj
 0002:00002adc       ??_C@_05DMJDNLEJ@April?$AA@ 0000000180053adc     libucrt:nlsdata.obj
 0002:00002ae4       ??_C@_04CNLMGBGM@June?$AA@ 0000000180053ae4     libucrt:nlsdata.obj
 0002:00002aec       ??_C@_04MIEPOIFP@July?$AA@ 0000000180053aec     libucrt:nlsdata.obj
 0002:00002af4       ??_C@_06LBBHFDDG@August?$AA@ 0000000180053af4     libucrt:nlsdata.obj
 0002:00002b00       ??_C@_09BHHEALKD@September?$AA@ 0000000180053b00     libucrt:nlsdata.obj
 0002:00002b10       ??_C@_07JJNFCEND@October?$AA@ 0000000180053b10     libucrt:nlsdata.obj
 0002:00002b18       ??_C@_08HCHEGEOA@November?$AA@ 0000000180053b18     libucrt:nlsdata.obj
 0002:00002b28       ??_C@_08EDHMEBNP@December?$AA@ 0000000180053b28     libucrt:nlsdata.obj
 0002:00002b34       ??_C@_02DEDBPAFC@AM?$AA@   0000000180053b34     libucrt:nlsdata.obj
 0002:00002b38       ??_C@_02CJNFDJBF@PM?$AA@   0000000180053b38     libucrt:nlsdata.obj
 0002:00002b40       ??_C@_08BPBNCDIB@MM?1dd?1yy?$AA@ 0000000180053b40     libucrt:nlsdata.obj
 0002:00002b50       ??_C@_0BE@CKGJFCPC@dddd?0?5MMMM?5dd?0?5yyyy?$AA@ 0000000180053b50     libucrt:nlsdata.obj
 0002:00002b68       ??_C@_08JCCMCCIL@HH?3mm?3ss?$AA@ 0000000180053b68     libucrt:nlsdata.obj
 0002:00002b78       ??_C@_17MBGCMIPB@?$AAS?$AAu?$AAn?$AA?$AA@ 0000000180053b78     libucrt:nlsdata.obj
 0002:00002b80       ??_C@_17KBOMKBF@?$AAM?$AAo?$AAn?$AA?$AA@ 0000000180053b80     libucrt:nlsdata.obj
 0002:00002b88       ??_C@_17BMKGEGOJ@?$AAT?$AAu?$AAe?$AA?$AA@ 0000000180053b88     libucrt:nlsdata.obj
 0002:00002b90       ??_C@_17CJEDCEPE@?$AAW?$AAe?$AAd?$AA?$AA@ 0000000180053b90     libucrt:nlsdata.obj
 0002:00002b98       ??_C@_17PDPHAADD@?$AAT?$AAh?$AAu?$AA?$AA@ 0000000180053b98     libucrt:nlsdata.obj
 0002:00002ba0       ??_C@_17HFOLPPLP@?$AAF?$AAr?$AAi?$AA?$AA@ 0000000180053ba0     libucrt:nlsdata.obj
 0002:00002ba8       ??_C@_17GGIBDPIH@?$AAS?$AAa?$AAt?$AA?$AA@ 0000000180053ba8     libucrt:nlsdata.obj
 0002:00002bb0       ??_C@_1O@IHNHDHPB@?$AAS?$AAu?$AAn?$AAd?$AAa?$AAy?$AA?$AA@ 0000000180053bb0     libucrt:nlsdata.obj
 0002:00002bc0       ??_C@_1O@MMNBFLIA@?$AAM?$AAo?$AAn?$AAd?$AAa?$AAy?$AA?$AA@ 0000000180053bc0     libucrt:nlsdata.obj
 0002:00002bd0       ??_C@_1BA@ENFBFFEK@?$AAT?$AAu?$AAe?$AAs?$AAd?$AAa?$AAy?$AA?$AA@ 0000000180053bd0     libucrt:nlsdata.obj
 0002:00002be0       ??_C@_1BE@EBOGMDOH@?$AAW?$AAe?$AAd?$AAn?$AAe?$AAs?$AAd?$AAa?$AAy?$AA?$AA@ 0000000180053be0     libucrt:nlsdata.obj
 0002:00002bf8       ??_C@_1BC@HHMNLIHE@?$AAT?$AAh?$AAu?$AAr?$AAs?$AAd?$AAa?$AAy?$AA?$AA@ 0000000180053bf8     libucrt:nlsdata.obj
 0002:00002c10       ??_C@_1O@PDICJHAG@?$AAF?$AAr?$AAi?$AAd?$AAa?$AAy?$AA?$AA@ 0000000180053c10     libucrt:nlsdata.obj
 0002:00002c20       ??_C@_1BC@ENMNNPAJ@?$AAS?$AAa?$AAt?$AAu?$AAr?$AAd?$AAa?$AAy?$AA?$AA@ 0000000180053c20     libucrt:nlsdata.obj
 0002:00002c38       ??_C@_17DKNBKCHM@?$AAJ?$AAa?$AAn?$AA?$AA@ 0000000180053c38     libucrt:nlsdata.obj
 0002:00002c40       ??_C@_17LMDJEKJN@?$AAF?$AAe?$AAb?$AA?$AA@ 0000000180053c40     libucrt:nlsdata.obj
 0002:00002c48       ??_C@_17CKNLEDEC@?$AAM?$AAa?$AAr?$AA?$AA@ 0000000180053c48     libucrt:nlsdata.obj
 0002:00002c50       ??_C@_17LFPOIHDD@?$AAA?$AAp?$AAr?$AA?$AA@ 0000000180053c50     libucrt:nlsdata.obj
 0002:00002c58       ??_C@_17PNNKMEED@?$AAM?$AAa?$AAy?$AA?$AA@ 0000000180053c58     libucrt:nlsdata.obj
 0002:00002c60       ??_C@_17KCJGOCPB@?$AAJ?$AAu?$AAn?$AA?$AA@ 0000000180053c60     libucrt:nlsdata.obj
 0002:00002c68       ??_C@_17IJPCKHK@?$AAJ?$AAu?$AAl?$AA?$AA@ 0000000180053c68     libucrt:nlsdata.obj
 0002:00002c70       ??_C@_17ICPELBCN@?$AAA?$AAu?$AAg?$AA?$AA@ 0000000180053c70     libucrt:nlsdata.obj
 0002:00002c78       ??_C@_17HCHCOKMG@?$AAS?$AAe?$AAp?$AA?$AA@ 0000000180053c78     libucrt:nlsdata.obj
 0002:00002c80       ??_C@_17FNLKOI@?$AAO?$AAc?$AAt?$AA?$AA@ 0000000180053c80     libucrt:nlsdata.obj
 0002:00002c88       ??_C@_17BBDMLCIG@?$AAN?$AAo?$AAv?$AA?$AA@ 0000000180053c88     libucrt:nlsdata.obj
 0002:00002c90       ??_C@_17EGKACKIF@?$AAD?$AAe?$AAc?$AA?$AA@ 0000000180053c90     libucrt:nlsdata.obj
 0002:00002c98       ??_C@_1BA@EFMEIEBA@?$AAJ?$AAa?$AAn?$AAu?$AAa?$AAr?$AAy?$AA?$AA@ 0000000180053c98     libucrt:nlsdata.obj
 0002:00002ca8       ??_C@_1BC@JGDDFFAM@?$AAF?$AAe?$AAb?$AAr?$AAu?$AAa?$AAr?$AAy?$AA?$AA@ 0000000180053ca8     libucrt:nlsdata.obj
 0002:00002cc0       ??_C@_1M@IKEENEDF@?$AAM?$AAa?$AAr?$AAc?$AAh?$AA?$AA@ 0000000180053cc0     libucrt:nlsdata.obj
 0002:00002cd0       ??_C@_1M@GJNLMHFD@?$AAA?$AAp?$AAr?$AAi?$AAl?$AA?$AA@ 0000000180053cd0     libucrt:nlsdata.obj
 0002:00002ce0       ??_C@_19EPFLPGAP@?$AAJ?$AAu?$AAn?$AAe?$AA?$AA@ 0000000180053ce0     libucrt:nlsdata.obj
 0002:00002cf0       ??_C@_19BIFMLPCD@?$AAJ?$AAu?$AAl?$AAy?$AA?$AA@ 0000000180053cf0     libucrt:nlsdata.obj
 0002:00002d00       ??_C@_1O@PAHLKOAC@?$AAA?$AAu?$AAg?$AAu?$AAs?$AAt?$AA?$AA@ 0000000180053d00     libucrt:nlsdata.obj
 0002:00002d10       ??_C@_1BE@DKAAMBJL@?$AAS?$AAe?$AAp?$AAt?$AAe?$AAm?$AAb?$AAe?$AAr?$AA?$AA@ 0000000180053d10     libucrt:nlsdata.obj
 0002:00002d28       ??_C@_1BA@EPANDLNG@?$AAO?$AAc?$AAt?$AAo?$AAb?$AAe?$AAr?$AA?$AA@ 0000000180053d28     libucrt:nlsdata.obj
 0002:00002d38       ??_C@_1BC@BGLIFPF@?$AAN?$AAo?$AAv?$AAe?$AAm?$AAb?$AAe?$AAr?$AA?$AA@ 0000000180053d38     libucrt:nlsdata.obj
 0002:00002d50       ??_C@_1BC@FEMKIFH@?$AAD?$AAe?$AAc?$AAe?$AAm?$AAb?$AAe?$AAr?$AA?$AA@ 0000000180053d50     libucrt:nlsdata.obj
 0002:00002d64       ??_C@_15ODEHAHHF@?$AAA?$AAM?$AA?$AA@ 0000000180053d64     libucrt:nlsdata.obj
 0002:00002d6c       ??_C@_15CLMNNGEL@?$AAP?$AAM?$AA?$AA@ 0000000180053d6c     libucrt:nlsdata.obj
 0002:00002d78       ??_C@_1BC@IEBCMHCM@?$AAM?$AAM?$AA?1?$AAd?$AAd?$AA?1?$AAy?$AAy?$AA?$AA@ 0000000180053d78     libucrt:nlsdata.obj
 0002:00002d90       ??_C@_1CI@KNAKOEBC@?$AAd?$AAd?$AAd?$AAd?$AA?0?$AA?5?$AAM?$AAM?$AAM?$AAM?$AA?5?$AAd?$AAd?$AA?0?$AA?5?$AAy?$AAy?$AAy?$AAy?$AA?$AA@ 0000000180053d90     libucrt:nlsdata.obj
 0002:00002db8       ??_C@_1BC@GDGBMEMK@?$AAH?$AAH?$AA?3?$AAm?$AAm?$AA?3?$AAs?$AAs?$AA?$AA@ 0000000180053db8     libucrt:nlsdata.obj
 0002:00002dd0       ??_C@_1M@BMHNFIME@?$AAe?$AAn?$AA?9?$AAU?$AAS?$AA?$AA@ 0000000180053dd0     libucrt:nlsdata.obj
 0002:00002e00       __newctype                 0000000180053e00     libucrt:ctype.obj
 0002:00003100       __newclmap                 0000000180054100     libucrt:ctype.obj
 0002:00003280       __newcumap                 0000000180054280     libucrt:ctype.obj
 0002:00003420       ??_C@_1M@HPNHIDJI@?$AAj?$AAa?$AA?9?$AAJ?$AAP?$AA?$AA@ 0000000180054420     libucrt:mbctype.obj
 0002:00003430       ??_C@_1M@BIBDDEMK@?$AAz?$AAh?$AA?9?$AAC?$AAN?$AA?$AA@ 0000000180054430     libucrt:mbctype.obj
 0002:00003440       ??_C@_1M@JLOOOEGK@?$AAk?$AAo?$AA?9?$AAK?$AAR?$AA?$AA@ 0000000180054440     libucrt:mbctype.obj
 0002:00003450       ??_C@_1M@CLNBBOPM@?$AAz?$AAh?$AA?9?$AAT?$AAW?$AA?$AA@ 0000000180054450     libucrt:mbctype.obj
 0002:000042a0       ??_C@_15EMKDOKLE@?$AAa?$AAr?$AA?$AA@ 00000001800552a0     libucrt:lcidtoname_downlevel.obj
 0002:000042a8       ??_C@_15KNPADPLH@?$AAb?$AAg?$AA?$AA@ 00000001800552a8     libucrt:lcidtoname_downlevel.obj
 0002:000042b0       ??_C@_15EDMHLDMO@?$AAc?$AAa?$AA?$AA@ 00000001800552b0     libucrt:lcidtoname_downlevel.obj
 0002:000042b8       ??_C@_1O@BPEAJADD@?$AAz?$AAh?$AA?9?$AAC?$AAH?$AAS?$AA?$AA@ 00000001800552b8     libucrt:lcidtoname_downlevel.obj
 0002:000042c8       ??_C@_15LJNHCMNK@?$AAc?$AAs?$AA?$AA@ 00000001800552c8     libucrt:lcidtoname_downlevel.obj
 0002:000042d0       ??_C@_15FOMCIDHG@?$AAd?$AAa?$AA?$AA@ 00000001800552d0     libucrt:lcidtoname_downlevel.obj
 0002:000042d8       ??_C@_15NBKABECB@?$AAd?$AAe?$AA?$AA@ 00000001800552d8     libucrt:lcidtoname_downlevel.obj
 0002:000042e0       ??_C@_15GHPEIIAO@?$AAe?$AAl?$AA?$AA@ 00000001800552e0     libucrt:lcidtoname_downlevel.obj
 0002:000042e8       ??_C@_15MNPNEAIF@?$AAe?$AAn?$AA?$AA@ 00000001800552e8     libucrt:lcidtoname_downlevel.obj
 0002:000042f0       ??_C@_15GPIOMPMH@?$AAe?$AAs?$AA?$AA@ 00000001800552f0     libucrt:lcidtoname_downlevel.obj
 0002:000042f8       ??_C@_15NGLOAKJC@?$AAf?$AAi?$AA?$AA@ 00000001800552f8     libucrt:lcidtoname_downlevel.obj
 0002:00004300       ??_C@_15FBKGNKAM@?$AAf?$AAr?$AA?$AA@ 0000000180055300     libucrt:lcidtoname_downlevel.obj
 0002:00004308       ??_C@_15KGGCNEFK@?$AAh?$AAe?$AA?$AA@ 0000000180055308     libucrt:lcidtoname_downlevel.obj
 0002:00004310       ??_C@_15PGHLIDMF@?$AAh?$AAu?$AA?$AA@ 0000000180055310     libucrt:lcidtoname_downlevel.obj
 0002:00004318       ??_C@_15BIEMAPLM@?$AAi?$AAs?$AA?$AA@ 0000000180055318     libucrt:lcidtoname_downlevel.obj
 0002:00004320       ??_C@_15IFJLDHAF@?$AAi?$AAt?$AA?$AA@ 0000000180055320     libucrt:lcidtoname_downlevel.obj
 0002:00004328       ??_C@_15GEMIOCAG@?$AAj?$AAa?$AA?$AA@ 0000000180055328     libucrt:lcidtoname_downlevel.obj
 0002:00004330       ??_C@_15EPELEGJA@?$AAk?$AAo?$AA?$AA@ 0000000180055330     libucrt:lcidtoname_downlevel.obj
 0002:00004338       ??_C@_15NDDHIMN@?$AAn?$AAl?$AA?$AA@ 0000000180055338     libucrt:lcidtoname_downlevel.obj
 0002:00004340       ??_C@_15BPIGNHCD@?$AAn?$AAo?$AA?$AA@ 0000000180055340     libucrt:lcidtoname_downlevel.obj
 0002:00004348       ??_C@_15DEOPBLCG@?$AAp?$AAl?$AA?$AA@ 0000000180055348     libucrt:lcidtoname_downlevel.obj
 0002:00004350       ??_C@_15KBECGEFG@?$AAp?$AAt?$AA?$AA@ 0000000180055350     libucrt:lcidtoname_downlevel.obj
 0002:00004358       ??_C@_15GLJCBFMD@?$AAr?$AAo?$AA?$AA@ 0000000180055358     libucrt:lcidtoname_downlevel.obj
 0002:00004360       ??_C@_15FEDGKCDI@?$AAr?$AAu?$AA?$AA@ 0000000180055360     libucrt:lcidtoname_downlevel.obj
 0002:00004368       ??_C@_15GLKMLLHM@?$AAh?$AAr?$AA?$AA@ 0000000180055368     libucrt:lcidtoname_downlevel.obj
 0002:00004370       ??_C@_15CPKMFBDB@?$AAs?$AAk?$AA?$AA@ 0000000180055370     libucrt:lcidtoname_downlevel.obj
 0002:00004378       ??_C@_15BAAIOGMK@?$AAs?$AAq?$AA?$AA@ 0000000180055378     libucrt:lcidtoname_downlevel.obj
 0002:00004380       ??_C@_15INNPNOHD@?$AAs?$AAv?$AA?$AA@ 0000000180055380     libucrt:lcidtoname_downlevel.obj
 0002:00004388       ??_C@_15CABMMOGH@?$AAt?$AAh?$AA?$AA@ 0000000180055388     libucrt:lcidtoname_downlevel.obj
 0002:00004390       ??_C@_15BPLIHJJM@?$AAt?$AAr?$AA?$AA@ 0000000180055390     libucrt:lcidtoname_downlevel.obj
 0002:00004398       ??_C@_15NEOEKKDJ@?$AAu?$AAr?$AA?$AA@ 0000000180055398     libucrt:lcidtoname_downlevel.obj
 0002:000043a0       ??_C@_15NFICGAJK@?$AAi?$AAd?$AA?$AA@ 00000001800553a0     libucrt:lcidtoname_downlevel.obj
 0002:000043a8       ??_C@_15PJPFLCCM@?$AAu?$AAk?$AA?$AA@ 00000001800553a8     libucrt:lcidtoname_downlevel.obj
 0002:000043b0       ??_C@_15HPJPHDM@?$AAb?$AAe?$AA?$AA@ 00000001800553b0     libucrt:lcidtoname_downlevel.obj
 0002:000043b8       ??_C@_15LCHLGJII@?$AAs?$AAl?$AA?$AA@ 00000001800553b8     libucrt:lcidtoname_downlevel.obj
 0002:000043c0       ??_C@_15PCFJPHHO@?$AAe?$AAt?$AA?$AA@ 00000001800553c0     libucrt:lcidtoname_downlevel.obj
 0002:000043c8       ??_C@_15HPFPGODN@?$AAl?$AAv?$AA?$AA@ 00000001800553c8     libucrt:lcidtoname_downlevel.obj
 0002:000043d0       ??_C@_15NFFGKGLG@?$AAl?$AAt?$AA?$AA@ 00000001800553d0     libucrt:lcidtoname_downlevel.obj
 0002:000043d8       ??_C@_15BDAKCCHN@?$AAf?$AAa?$AA?$AA@ 00000001800553d8     libucrt:lcidtoname_downlevel.obj
 0002:000043e0       ??_C@_15NFGIAIAJ@?$AAv?$AAi?$AA?$AA@ 00000001800553e0     libucrt:lcidtoname_downlevel.obj
 0002:000043e8       ??_C@_15LMKNDMHN@?$AAh?$AAy?$AA?$AA@ 00000001800553e8     libucrt:lcidtoname_downlevel.obj
 0002:000043f0       ??_C@_15IJBHMCFL@?$AAa?$AAz?$AA?$AA@ 00000001800553f0     libucrt:lcidtoname_downlevel.obj
 0002:000043f8       ??_C@_15EKOFJABL@?$AAe?$AAu?$AA?$AA@ 00000001800553f8     libucrt:lcidtoname_downlevel.obj
 0002:00004400       ??_C@_15BGHADCNK@?$AAm?$AAk?$AA?$AA@ 0000000180055400     libucrt:lcidtoname_downlevel.obj
 0002:00004408       ??_C@_15JDNICKHM@?$AAa?$AAf?$AA?$AA@ 0000000180055408     libucrt:lcidtoname_downlevel.obj
 0002:00004410       ??_C@_15KPJEDBKD@?$AAk?$AAa?$AA?$AA@ 0000000180055410     libucrt:lcidtoname_downlevel.obj
 0002:00004418       ??_C@_15PDNFFFEO@?$AAf?$AAo?$AA?$AA@ 0000000180055418     libucrt:lcidtoname_downlevel.obj
 0002:00004420       ??_C@_15OMLEGLOC@?$AAh?$AAi?$AA?$AA@ 0000000180055420     libucrt:lcidtoname_downlevel.obj
 0002:00004428       ??_C@_15IDNNENKK@?$AAm?$AAs?$AA?$AA@ 0000000180055428     libucrt:lcidtoname_downlevel.obj
 0002:00004430       ??_C@_15MACJNBMH@?$AAk?$AAk?$AA?$AA@ 0000000180055430     libucrt:lcidtoname_downlevel.obj
 0002:00004438       ??_C@_15DKDJEOND@?$AAk?$AAy?$AA?$AA@ 0000000180055438     libucrt:lcidtoname_downlevel.obj
 0002:00004440       ??_C@_15DFGDLJBG@?$AAs?$AAw?$AA?$AA@ 0000000180055440     libucrt:lcidtoname_downlevel.obj
 0002:00004448       ??_C@_15BBFAICNG@?$AAu?$AAz?$AA?$AA@ 0000000180055448     libucrt:lcidtoname_downlevel.obj
 0002:00004450       ??_C@_15DKNDCGEA@?$AAt?$AAt?$AA?$AA@ 0000000180055450     libucrt:lcidtoname_downlevel.obj
 0002:00004458       ??_C@_15MGIFMDPL@?$AAp?$AAa?$AA?$AA@ 0000000180055458     libucrt:lcidtoname_downlevel.obj
 0002:00004460       ??_C@_15HCNDBBA@?$AAg?$AAu?$AA?$AA@ 0000000180055460     libucrt:lcidtoname_downlevel.obj
 0002:00004468       ??_C@_15FNBEIBON@?$AAt?$AAa?$AA?$AA@ 0000000180055468     libucrt:lcidtoname_downlevel.obj
 0002:00004470       ??_C@_15NCHGBGLK@?$AAt?$AAe?$AA?$AA@ 0000000180055470     libucrt:lcidtoname_downlevel.obj
 0002:00004478       ??_C@_15PHPHCBPF@?$AAk?$AAn?$AA?$AA@ 0000000180055478     libucrt:lcidtoname_downlevel.obj
 0002:00004480       ??_C@_15DLGBCKMP@?$AAm?$AAr?$AA?$AA@ 0000000180055480     libucrt:lcidtoname_downlevel.obj
 0002:00004488       ??_C@_15EABBLBFF@?$AAs?$AAa?$AA?$AA@ 0000000180055488     libucrt:lcidtoname_downlevel.obj
 0002:00004490       ??_C@_15CBKOMCOI@?$AAm?$AAn?$AA?$AA@ 0000000180055490     libucrt:lcidtoname_downlevel.obj
 0002:00004498       ??_C@_15CKDMCJAF@?$AAg?$AAl?$AA?$AA@ 0000000180055498     libucrt:lcidtoname_downlevel.obj
 0002:000044a0       ??_C@_17CNJFBPG@?$AAk?$AAo?$AAk?$AA?$AA@ 00000001800554a0     libucrt:lcidtoname_downlevel.obj
 0002:000044a8       ??_C@_17FFBJICPL@?$AAs?$AAy?$AAr?$AA?$AA@ 00000001800554a8     libucrt:lcidtoname_downlevel.obj
 0002:000044b0       ??_C@_17KPNDCPAF@?$AAd?$AAi?$AAv?$AA?$AA@ 00000001800554b0     libucrt:lcidtoname_downlevel.obj
 0002:000044b8       ??_C@_11LOCGONAA@?$AA?$AA@ 00000001800554b8     libucrt:lcidtoname_downlevel.obj
 0002:000044c0       ??_C@_1M@OKAHONE@?$AAa?$AAr?$AA?9?$AAS?$AAA?$AA?$AA@ 00000001800554c0     libucrt:lcidtoname_downlevel.obj
 0002:000044d0       ??_C@_1M@FFFIGIGK@?$AAb?$AAg?$AA?9?$AAB?$AAG?$AA?$AA@ 00000001800554d0     libucrt:lcidtoname_downlevel.obj
 0002:000044e0       ??_C@_1M@BJNKEDC@?$AAc?$AAa?$AA?9?$AAE?$AAS?$AA?$AA@ 00000001800554e0     libucrt:lcidtoname_downlevel.obj
 0002:000044f0       ??_C@_1M@IJJHFJHA@?$AAc?$AAs?$AA?9?$AAC?$AAZ?$AA?$AA@ 00000001800554f0     libucrt:lcidtoname_downlevel.obj
 0002:00004500       ??_C@_1M@CLPEOBGI@?$AAd?$AAa?$AA?9?$AAD?$AAK?$AA?$AA@ 0000000180055500     libucrt:lcidtoname_downlevel.obj
 0002:00004510       ??_C@_1M@MCMADGCB@?$AAd?$AAe?$AA?9?$AAD?$AAE?$AA?$AA@ 0000000180055510     libucrt:lcidtoname_downlevel.obj
 0002:00004520       ??_C@_1M@OOCKEMAM@?$AAe?$AAl?$AA?9?$AAG?$AAR?$AA?$AA@ 0000000180055520     libucrt:lcidtoname_downlevel.obj
 0002:00004530       ??_C@_1M@DDNJFGID@?$AAf?$AAi?$AA?9?$AAF?$AAI?$AA?$AA@ 0000000180055530     libucrt:lcidtoname_downlevel.obj
 0002:00004540       ??_C@_1M@GLIPPMAC@?$AAf?$AAr?$AA?9?$AAF?$AAR?$AA?$AA@ 0000000180055540     libucrt:lcidtoname_downlevel.obj
 0002:00004550       ??_C@_1M@GFMCHPE@?$AAh?$AAe?$AA?9?$AAI?$AAL?$AA?$AA@ 0000000180055550     libucrt:lcidtoname_downlevel.obj
 0002:00004560       ??_C@_1M@MHLPGNKM@?$AAh?$AAu?$AA?9?$AAH?$AAU?$AA?$AA@ 0000000180055560     libucrt:lcidtoname_downlevel.obj
 0002:00004570       ??_C@_1M@LPDDNNPN@?$AAi?$AAs?$AA?9?$AAI?$AAS?$AA?$AA@ 0000000180055570     libucrt:lcidtoname_downlevel.obj
 0002:00004580       ??_C@_1M@MADIPODN@?$AAi?$AAt?$AA?9?$AAI?$AAT?$AA?$AA@ 0000000180055580     libucrt:lcidtoname_downlevel.obj
 0002:00004590       ??_C@_1M@IHBJJGG@?$AAn?$AAl?$AA?9?$AAN?$AAL?$AA?$AA@ 0000000180055590     libucrt:lcidtoname_downlevel.obj
 0002:000045a0       ??_C@_1M@EANAGDL@?$AAn?$AAb?$AA?9?$AAN?$AAO?$AA?$AA@ 00000001800555a0     libucrt:lcidtoname_downlevel.obj
 0002:000045b0       ??_C@_1M@NEIEMEGP@?$AAp?$AAl?$AA?9?$AAP?$AAL?$AA?$AA@ 00000001800555b0     libucrt:lcidtoname_downlevel.obj
 0002:000045c0       ??_C@_1M@BOCFIGEP@?$AAp?$AAt?$AA?9?$AAB?$AAR?$AA?$AA@ 00000001800555c0     libucrt:lcidtoname_downlevel.obj
 0002:000045d0       ??_C@_1M@IMPFOPBG@?$AAr?$AAo?$AA?9?$AAR?$AAO?$AA?$AA@ 00000001800555d0     libucrt:lcidtoname_downlevel.obj
 0002:000045e0       ??_C@_1M@IDNNEJMM@?$AAr?$AAu?$AA?9?$AAR?$AAU?$AA?$AA@ 00000001800555e0     libucrt:lcidtoname_downlevel.obj
 0002:000045f0       ??_C@_1M@LILEEOGM@?$AAh?$AAr?$AA?9?$AAH?$AAR?$AA?$AA@ 00000001800555f0     libucrt:lcidtoname_downlevel.obj
 0002:00004600       ??_C@_1M@FKIFEHPB@?$AAs?$AAk?$AA?9?$AAS?$AAK?$AA?$AA@ 0000000180055600     libucrt:lcidtoname_downlevel.obj
 0002:00004610       ??_C@_1M@LJMAMNPJ@?$AAs?$AAq?$AA?9?$AAA?$AAL?$AA?$AA@ 0000000180055610     libucrt:lcidtoname_downlevel.obj
 0002:00004620       ??_C@_1M@GIAKDKJK@?$AAs?$AAv?$AA?9?$AAS?$AAE?$AA?$AA@ 0000000180055620     libucrt:lcidtoname_downlevel.obj
 0002:00004630       ??_C@_1M@MKJKIKCL@?$AAt?$AAh?$AA?9?$AAT?$AAH?$AA?$AA@ 0000000180055630     libucrt:lcidtoname_downlevel.obj
 0002:00004640       ??_C@_1M@MFLCCMPB@?$AAt?$AAr?$AA?9?$AAT?$AAR?$AA?$AA@ 0000000180055640     libucrt:lcidtoname_downlevel.obj
 0002:00004650       ??_C@_1M@OIJHDKJN@?$AAu?$AAr?$AA?9?$AAP?$AAK?$AA?$AA@ 0000000180055650     libucrt:lcidtoname_downlevel.obj
 0002:00004660       ??_C@_1M@LHIPCIEK@?$AAi?$AAd?$AA?9?$AAI?$AAD?$AA?$AA@ 0000000180055660     libucrt:lcidtoname_downlevel.obj
 0002:00004670       ??_C@_1M@MFMOBGI@?$AAu?$AAk?$AA?9?$AAU?$AAA?$AA?$AA@ 0000000180055670     libucrt:lcidtoname_downlevel.obj
 0002:00004680       ??_C@_1M@OBGLJIPL@?$AAb?$AAe?$AA?9?$AAB?$AAY?$AA?$AA@ 0000000180055680     libucrt:lcidtoname_downlevel.obj
 0002:00004690       ??_C@_1M@BCFAJEAD@?$AAs?$AAl?$AA?9?$AAS?$AAI?$AA?$AA@ 0000000180055690     libucrt:lcidtoname_downlevel.obj
 0002:000046a0       ??_C@_1M@FKFFEDDN@?$AAe?$AAt?$AA?9?$AAE?$AAE?$AA?$AA@ 00000001800556a0     libucrt:lcidtoname_downlevel.obj
 0002:000046b0       ??_C@_1M@KGKKAACI@?$AAl?$AAv?$AA?9?$AAL?$AAV?$AA?$AA@ 00000001800556b0     libucrt:lcidtoname_downlevel.obj
 0002:000046c0       ??_C@_1M@IFGBIJO@?$AAl?$AAt?$AA?9?$AAL?$AAT?$AA?$AA@ 00000001800556c0     libucrt:lcidtoname_downlevel.obj
 0002:000046d0       ??_C@_1M@FGEAHEDM@?$AAf?$AAa?$AA?9?$AAI?$AAR?$AA?$AA@ 00000001800556d0     libucrt:lcidtoname_downlevel.obj
 0002:000046e0       ??_C@_1M@KBMAIBFN@?$AAv?$AAi?$AA?9?$AAV?$AAN?$AA?$AA@ 00000001800556e0     libucrt:lcidtoname_downlevel.obj
 0002:000046f0       ??_C@_1M@GPCBKDJK@?$AAh?$AAy?$AA?9?$AAA?$AAM?$AA?$AA@ 00000001800556f0     libucrt:lcidtoname_downlevel.obj
 0002:00004700       ??_C@_1BG@BECMDDJB@?$AAa?$AAz?$AA?9?$AAA?$AAZ?$AA?9?$AAL?$AAa?$AAt?$AAn?$AA?$AA@ 0000000180055700     libucrt:lcidtoname_downlevel.obj
 0002:00004718       ??_C@_1M@MAOFCAEA@?$AAe?$AAu?$AA?9?$AAE?$AAS?$AA?$AA@ 0000000180055718     libucrt:lcidtoname_downlevel.obj
 0002:00004728       ??_C@_1M@IGHABKPI@?$AAm?$AAk?$AA?9?$AAM?$AAK?$AA?$AA@ 0000000180055728     libucrt:lcidtoname_downlevel.obj
 0002:00004738       ??_C@_1M@IAIGNEJG@?$AAt?$AAn?$AA?9?$AAZ?$AAA?$AA?$AA@ 0000000180055738     libucrt:lcidtoname_downlevel.obj
 0002:00004748       ??_C@_1M@IIJCOJFA@?$AAx?$AAh?$AA?9?$AAZ?$AAA?$AA?$AA@ 0000000180055748     libucrt:lcidtoname_downlevel.obj
 0002:00004758       ??_C@_1M@LGPJHNJH@?$AAz?$AAu?$AA?9?$AAZ?$AAA?$AA?$AA@ 0000000180055758     libucrt:lcidtoname_downlevel.obj
 0002:00004768       ??_C@_1M@HOKAOIO@?$AAa?$AAf?$AA?9?$AAZ?$AAA?$AA?$AA@ 0000000180055768     libucrt:lcidtoname_downlevel.obj
 0002:00004778       ??_C@_1M@DPCLHLIE@?$AAk?$AAa?$AA?9?$AAG?$AAE?$AA?$AA@ 0000000180055778     libucrt:lcidtoname_downlevel.obj
 0002:00004788       ??_C@_1M@BLKMHJBI@?$AAf?$AAo?$AA?9?$AAF?$AAO?$AA?$AA@ 0000000180055788     libucrt:lcidtoname_downlevel.obj
 0002:00004798       ??_C@_1M@LGGJAPPB@?$AAh?$AAi?$AA?9?$AAI?$AAN?$AA?$AA@ 0000000180055798     libucrt:lcidtoname_downlevel.obj
 0002:000047a8       ??_C@_1M@FIKPIHFE@?$AAm?$AAt?$AA?9?$AAM?$AAT?$AA?$AA@ 00000001800557a8     libucrt:lcidtoname_downlevel.obj
 0002:000047b8       ??_C@_1M@HEGGPBFA@?$AAs?$AAe?$AA?9?$AAN?$AAO?$AA?$AA@ 00000001800557b8     libucrt:lcidtoname_downlevel.obj
 0002:000047c8       ??_C@_1M@EIBJEEPA@?$AAm?$AAs?$AA?9?$AAM?$AAY?$AA?$AA@ 00000001800557c8     libucrt:lcidtoname_downlevel.obj
 0002:000047d8       ??_C@_1M@FHLBGMPP@?$AAk?$AAk?$AA?9?$AAK?$AAZ?$AA?$AA@ 00000001800557d8     libucrt:lcidtoname_downlevel.obj
 0002:000047e8       ??_C@_1M@NGJJLCGI@?$AAk?$AAy?$AA?9?$AAK?$AAG?$AA?$AA@ 00000001800557e8     libucrt:lcidtoname_downlevel.obj
 0002:000047f8       ??_C@_1M@GIENNBFC@?$AAs?$AAw?$AA?9?$AAK?$AAE?$AA?$AA@ 00000001800557f8     libucrt:lcidtoname_downlevel.obj
 0002:00004808       ??_C@_1BG@NDGMJIMJ@?$AAu?$AAz?$AA?9?$AAU?$AAZ?$AA?9?$AAL?$AAa?$AAt?$AAn?$AA?$AA@ 0000000180055808     libucrt:lcidtoname_downlevel.obj
 0002:00004820       ??_C@_1M@IDCCIHBC@?$AAt?$AAt?$AA?9?$AAR?$AAU?$AA?$AA@ 0000000180055820     libucrt:lcidtoname_downlevel.obj
 0002:00004830       ??_C@_1M@LOICPMOJ@?$AAb?$AAn?$AA?9?$AAI?$AAN?$AA?$AA@ 0000000180055830     libucrt:lcidtoname_downlevel.obj
 0002:00004840       ??_C@_1M@KPKKNEAH@?$AAp?$AAa?$AA?9?$AAI?$AAN?$AA?$AA@ 0000000180055840     libucrt:lcidtoname_downlevel.obj
 0002:00004850       ??_C@_1M@PJGPPBOG@?$AAg?$AAu?$AA?9?$AAI?$AAN?$AA?$AA@ 0000000180055850     libucrt:lcidtoname_downlevel.obj
 0002:00004860       ??_C@_1M@KMKMOPHI@?$AAt?$AAa?$AA?9?$AAI?$AAN?$AA?$AA@ 0000000180055860     libucrt:lcidtoname_downlevel.obj
 0002:00004870       ??_C@_1M@KFEHEPAC@?$AAt?$AAe?$AA?9?$AAI?$AAN?$AA?$AA@ 0000000180055870     libucrt:lcidtoname_downlevel.obj
 0002:00004880       ??_C@_1M@CDCLMGHI@?$AAk?$AAn?$AA?9?$AAI?$AAN?$AA?$AA@ 0000000180055880     libucrt:lcidtoname_downlevel.obj
 0002:00004890       ??_C@_1M@MIODLDKF@?$AAm?$AAl?$AA?9?$AAI?$AAN?$AA?$AA@ 0000000180055890     libucrt:lcidtoname_downlevel.obj
 0002:000048a0       ??_C@_1M@PBIEACPO@?$AAm?$AAr?$AA?9?$AAI?$AAN?$AA?$AA@ 00000001800558a0     libucrt:lcidtoname_downlevel.obj
 0002:000048b0       ??_C@_1M@NIDEAGPH@?$AAs?$AAa?$AA?9?$AAI?$AAN?$AA?$AA@ 00000001800558b0     libucrt:lcidtoname_downlevel.obj
 0002:000048c0       ??_C@_1M@FHIHCBIO@?$AAm?$AAn?$AA?9?$AAM?$AAN?$AA?$AA@ 00000001800558c0     libucrt:lcidtoname_downlevel.obj
 0002:000048d0       ??_C@_1M@JAIJPENP@?$AAc?$AAy?$AA?9?$AAG?$AAB?$AA?$AA@ 00000001800558d0     libucrt:lcidtoname_downlevel.obj
 0002:000048e0       ??_C@_1M@PHGFBEPN@?$AAg?$AAl?$AA?9?$AAE?$AAS?$AA?$AA@ 00000001800558e0     libucrt:lcidtoname_downlevel.obj
 0002:000048f0       ??_C@_1O@KPIPDNCP@?$AAk?$AAo?$AAk?$AA?9?$AAI?$AAN?$AA?$AA@ 00000001800558f0     libucrt:lcidtoname_downlevel.obj
 0002:00004900       ??_C@_1O@KNHJLDJA@?$AAs?$AAy?$AAr?$AA?9?$AAS?$AAY?$AA?$AA@ 0000000180055900     libucrt:lcidtoname_downlevel.obj
 0002:00004910       ??_C@_1O@MKEKBLAH@?$AAd?$AAi?$AAv?$AA?9?$AAM?$AAV?$AA?$AA@ 0000000180055910     libucrt:lcidtoname_downlevel.obj
 0002:00004920       ??_C@_1O@OHDCKDDF@?$AAq?$AAu?$AAz?$AA?9?$AAB?$AAO?$AA?$AA@ 0000000180055920     libucrt:lcidtoname_downlevel.obj
 0002:00004930       ??_C@_1M@LEPJNLFD@?$AAn?$AAs?$AA?9?$AAZ?$AAA?$AA?$AA@ 0000000180055930     libucrt:lcidtoname_downlevel.obj
 0002:00004940       ??_C@_1M@OMLEIIJB@?$AAm?$AAi?$AA?9?$AAN?$AAZ?$AA?$AA@ 0000000180055940     libucrt:lcidtoname_downlevel.obj
 0002:00004950       ??_C@_1M@PMPEAILG@?$AAa?$AAr?$AA?9?$AAI?$AAQ?$AA?$AA@ 0000000180055950     libucrt:lcidtoname_downlevel.obj
 0002:00004960       ??_C@_1M@CNKPNOEE@?$AAd?$AAe?$AA?9?$AAC?$AAH?$AA?$AA@ 0000000180055960     libucrt:lcidtoname_downlevel.obj
 0002:00004970       ??_C@_1M@LKMGMLKO@?$AAe?$AAn?$AA?9?$AAG?$AAB?$AA?$AA@ 0000000180055970     libucrt:lcidtoname_downlevel.obj
 0002:00004980       ??_C@_1M@PGKJFFGL@?$AAe?$AAs?$AA?9?$AAM?$AAX?$AA?$AA@ 0000000180055980     libucrt:lcidtoname_downlevel.obj
 0002:00004990       ??_C@_1M@DNNANBDC@?$AAf?$AAr?$AA?9?$AAB?$AAE?$AA?$AA@ 0000000180055990     libucrt:lcidtoname_downlevel.obj
 0002:000049a0       ??_C@_1M@HLGMDFHM@?$AAi?$AAt?$AA?9?$AAC?$AAH?$AA?$AA@ 00000001800559a0     libucrt:lcidtoname_downlevel.obj
 0002:000049b0       ??_C@_1M@CLLBGJH@?$AAn?$AAl?$AA?9?$AAB?$AAE?$AA?$AA@ 00000001800559b0     libucrt:lcidtoname_downlevel.obj
 0002:000049c0       ??_C@_1M@BODBOGLF@?$AAn?$AAn?$AA?9?$AAN?$AAO?$AA?$AA@ 00000001800559c0     libucrt:lcidtoname_downlevel.obj
 0002:000049d0       ??_C@_1M@HFFAHKAD@?$AAp?$AAt?$AA?9?$AAP?$AAT?$AA?$AA@ 00000001800559d0     libucrt:lcidtoname_downlevel.obj
 0002:000049e0       ??_C@_1BG@LNOAKHIE@?$AAs?$AAr?$AA?9?$AAS?$AAP?$AA?9?$AAL?$AAa?$AAt?$AAn?$AA?$AA@ 00000001800559e0     libucrt:lcidtoname_downlevel.obj
 0002:000049f8       ??_C@_1M@HBMHBGAK@?$AAs?$AAv?$AA?9?$AAF?$AAI?$AA?$AA@ 00000001800559f8     libucrt:lcidtoname_downlevel.obj
 0002:00004a08       ??_C@_1BG@DGCJGJBE@?$AAa?$AAz?$AA?9?$AAA?$AAZ?$AA?9?$AAC?$AAy?$AAr?$AAl?$AA?$AA@ 0000000180055a08     libucrt:lcidtoname_downlevel.obj
 0002:00004a20       ??_C@_1M@KEJDAAHB@?$AAs?$AAe?$AA?9?$AAS?$AAE?$AA?$AA@ 0000000180055a20     libucrt:lcidtoname_downlevel.obj
 0002:00004a30       ??_C@_1M@HEIBJJAD@?$AAm?$AAs?$AA?9?$AAB?$AAN?$AA?$AA@ 0000000180055a30     libucrt:lcidtoname_downlevel.obj
 0002:00004a40       ??_C@_1BG@PBGJMCEM@?$AAu?$AAz?$AA?9?$AAU?$AAZ?$AA?9?$AAC?$AAy?$AAr?$AAl?$AA?$AA@ 0000000180055a40     libucrt:lcidtoname_downlevel.obj
 0002:00004a58       ??_C@_1O@LAOBCMDF@?$AAq?$AAu?$AAz?$AA?9?$AAE?$AAC?$AA?$AA@ 0000000180055a58     libucrt:lcidtoname_downlevel.obj
 0002:00004a68       ??_C@_1M@POEEMAIO@?$AAa?$AAr?$AA?9?$AAE?$AAG?$AA?$AA@ 0000000180055a68     libucrt:lcidtoname_downlevel.obj
 0002:00004a78       ??_C@_1M@EFAKDEDL@?$AAz?$AAh?$AA?9?$AAH?$AAK?$AA?$AA@ 0000000180055a78     libucrt:lcidtoname_downlevel.obj
 0002:00004a88       ??_C@_1M@HKKIJHGI@?$AAd?$AAe?$AA?9?$AAA?$AAT?$AA?$AA@ 0000000180055a88     libucrt:lcidtoname_downlevel.obj
 0002:00004a98       ??_C@_1M@KBFBEHJF@?$AAe?$AAn?$AA?9?$AAA?$AAU?$AA?$AA@ 0000000180055a98     libucrt:lcidtoname_downlevel.obj
 0002:00004aa8       ??_C@_1M@MNPLFAAH@?$AAe?$AAs?$AA?9?$AAE?$AAS?$AA?$AA@ 0000000180055aa8     libucrt:lcidtoname_downlevel.obj
 0002:00004ab8       ??_C@_1M@HJOOJFMA@?$AAf?$AAr?$AA?9?$AAC?$AAA?$AA?$AA@ 0000000180055ab8     libucrt:lcidtoname_downlevel.obj
 0002:00004ac8       ??_C@_1BG@JPOFPNAB@?$AAs?$AAr?$AA?9?$AAS?$AAP?$AA?9?$AAC?$AAy?$AAr?$AAl?$AA?$AA@ 0000000180055ac8     libucrt:lcidtoname_downlevel.obj
 0002:00004ae0       ??_C@_1M@LNFOCMOB@?$AAs?$AAe?$AA?9?$AAF?$AAI?$AA?$AA@ 0000000180055ae0     libucrt:lcidtoname_downlevel.obj
 0002:00004af0       ??_C@_1O@MGJBOAMB@?$AAq?$AAu?$AAz?$AA?9?$AAP?$AAE?$AA?$AA@ 0000000180055af0     libucrt:lcidtoname_downlevel.obj
 0002:00004b00       ??_C@_1M@GJINLBOK@?$AAa?$AAr?$AA?9?$AAL?$AAY?$AA?$AA@ 0000000180055b00     libucrt:lcidtoname_downlevel.obj
 0002:00004b10       ??_C@_1M@GGMNHJNL@?$AAz?$AAh?$AA?9?$AAS?$AAG?$AA?$AA@ 0000000180055b10     libucrt:lcidtoname_downlevel.obj
 0002:00004b20       ??_C@_1M@HOIKODND@?$AAd?$AAe?$AA?9?$AAL?$AAU?$AA?$AA@ 0000000180055b20     libucrt:lcidtoname_downlevel.obj
 0002:00004b30       ??_C@_1M@DDOCCGFG@?$AAe?$AAn?$AA?9?$AAC?$AAA?$AA?$AA@ 0000000180055b30     libucrt:lcidtoname_downlevel.obj
 0002:00004b40       ??_C@_1M@BNOEMJLF@?$AAe?$AAs?$AA?9?$AAG?$AAT?$AA?$AA@ 0000000180055b40     libucrt:lcidtoname_downlevel.obj
 0002:00004b50       ??_C@_1M@EOGNKEK@?$AAf?$AAr?$AA?9?$AAC?$AAH?$AA?$AA@ 0000000180055b50     libucrt:lcidtoname_downlevel.obj
 0002:00004b60       ??_C@_1M@FLIDJFHL@?$AAh?$AAr?$AA?9?$AAB?$AAA?$AA?$AA@ 0000000180055b60     libucrt:lcidtoname_downlevel.obj
 0002:00004b70       ??_C@_1O@FMCELNAJ@?$AAs?$AAm?$AAj?$AA?9?$AAN?$AAO?$AA?$AA@ 0000000180055b70     libucrt:lcidtoname_downlevel.obj
 0002:00004b80       ??_C@_1M@JHGLJMGJ@?$AAa?$AAr?$AA?9?$AAD?$AAZ?$AA?$AA@ 0000000180055b80     libucrt:lcidtoname_downlevel.obj
 0002:00004b90       ??_C@_1M@JKKFDCNP@?$AAz?$AAh?$AA?9?$AAM?$AAO?$AA?$AA@ 0000000180055b90     libucrt:lcidtoname_downlevel.obj
 0002:00004ba0       ??_C@_1M@GEEFALPE@?$AAd?$AAe?$AA?9?$AAL?$AAI?$AA?$AA@ 0000000180055ba0     libucrt:lcidtoname_downlevel.obj
 0002:00004bb0       ??_C@_1M@IGEOFBG@?$AAe?$AAn?$AA?9?$AAN?$AAZ?$AA?$AA@ 0000000180055bb0     libucrt:lcidtoname_downlevel.obj
 0002:00004bc0       ??_C@_1M@KDBONEHP@?$AAe?$AAs?$AA?9?$AAC?$AAR?$AA?$AA@ 0000000180055bc0     libucrt:lcidtoname_downlevel.obj
 0002:00004bd0       ??_C@_1M@FHMDOHNN@?$AAf?$AAr?$AA?9?$AAL?$AAU?$AA?$AA@ 0000000180055bd0     libucrt:lcidtoname_downlevel.obj
 0002:00004be0       ??_C@_1BG@NFKKMAFG@?$AAb?$AAs?$AA?9?$AAB?$AAA?$AA?9?$AAL?$AAa?$AAt?$AAn?$AA?$AA@ 0000000180055be0     libucrt:lcidtoname_downlevel.obj
 0002:00004bf8       ??_C@_1O@IMNBEMCI@?$AAs?$AAm?$AAj?$AA?9?$AAS?$AAE?$AA?$AA@ 0000000180055bf8     libucrt:lcidtoname_downlevel.obj
 0002:00004c08       ??_C@_1M@DHHMBNDP@?$AAa?$AAr?$AA?9?$AAM?$AAA?$AA?$AA@ 0000000180055c08     libucrt:lcidtoname_downlevel.obj
 0002:00004c18       ??_C@_1M@BNBLJCGH@?$AAe?$AAn?$AA?9?$AAI?$AAE?$AA?$AA@ 0000000180055c18     libucrt:lcidtoname_downlevel.obj
 0002:00004c28       ??_C@_1M@GEPAFMDL@?$AAe?$AAs?$AA?9?$AAP?$AAA?$AA?$AA@ 0000000180055c28     libucrt:lcidtoname_downlevel.obj
 0002:00004c38       ??_C@_1M@OJONDMDL@?$AAf?$AAr?$AA?9?$AAM?$AAC?$AA?$AA@ 0000000180055c38     libucrt:lcidtoname_downlevel.obj
 0002:00004c48       ??_C@_1BG@OBCNFJB@?$AAs?$AAr?$AA?9?$AAB?$AAA?$AA?9?$AAL?$AAa?$AAt?$AAn?$AA?$AA@ 0000000180055c48     libucrt:lcidtoname_downlevel.obj
 0002:00004c60       ??_C@_1O@KEMEEGPO@?$AAs?$AAm?$AAa?$AA?9?$AAN?$AAO?$AA?$AA@ 0000000180055c60     libucrt:lcidtoname_downlevel.obj
 0002:00004c70       ??_C@_1M@ELMGFODK@?$AAa?$AAr?$AA?9?$AAT?$AAN?$AA?$AA@ 0000000180055c70     libucrt:lcidtoname_downlevel.obj
 0002:00004c80       ??_C@_1M@BHDLHFAF@?$AAe?$AAn?$AA?9?$AAZ?$AAA?$AA?$AA@ 0000000180055c80     libucrt:lcidtoname_downlevel.obj
 0002:00004c90       ??_C@_1M@BMGIGLIF@?$AAe?$AAs?$AA?9?$AAD?$AAO?$AA?$AA@ 0000000180055c90     libucrt:lcidtoname_downlevel.obj
 0002:00004ca0       ??_C@_1BG@CMBHIPBE@?$AAs?$AAr?$AA?9?$AAB?$AAA?$AA?9?$AAC?$AAy?$AAr?$AAl?$AA?$AA@ 0000000180055ca0     libucrt:lcidtoname_downlevel.obj
 0002:00004cb8       ??_C@_1O@HEDBLHNP@?$AAs?$AAm?$AAa?$AA?9?$AAS?$AAE?$AA?$AA@ 0000000180055cb8     libucrt:lcidtoname_downlevel.obj
 0002:00004cc8       ??_C@_1M@DAGCADIM@?$AAa?$AAr?$AA?9?$AAO?$AAM?$AA?$AA@ 0000000180055cc8     libucrt:lcidtoname_downlevel.obj
 0002:00004cd8       ??_C@_1M@FODLMICG@?$AAe?$AAn?$AA?9?$AAJ?$AAM?$AA?$AA@ 0000000180055cd8     libucrt:lcidtoname_downlevel.obj
 0002:00004ce8       ??_C@_1M@DNMLCIHB@?$AAe?$AAs?$AA?9?$AAV?$AAE?$AA?$AA@ 0000000180055ce8     libucrt:lcidtoname_downlevel.obj
 0002:00004cf8       ??_C@_1O@EOKHMKJK@?$AAs?$AAm?$AAs?$AA?9?$AAF?$AAI?$AA?$AA@ 0000000180055cf8     libucrt:lcidtoname_downlevel.obj
 0002:00004d08       ??_C@_1M@CAFJMKOF@?$AAa?$AAr?$AA?9?$AAY?$AAE?$AA?$AA@ 0000000180055d08     libucrt:lcidtoname_downlevel.obj
 0002:00004d18       ??_C@_1M@CBFHIJLI@?$AAe?$AAn?$AA?9?$AAC?$AAB?$AA?$AA@ 0000000180055d18     libucrt:lcidtoname_downlevel.obj
 0002:00004d28       ??_C@_1M@BGNFLDN@?$AAe?$AAs?$AA?9?$AAC?$AAO?$AA?$AA@ 0000000180055d28     libucrt:lcidtoname_downlevel.obj
 0002:00004d38       ??_C@_1O@JMPHMAMC@?$AAs?$AAm?$AAn?$AA?9?$AAF?$AAI?$AA?$AA@ 0000000180055d38     libucrt:lcidtoname_downlevel.obj
 0002:00004d48       ??_C@_1M@JLANABKE@?$AAa?$AAr?$AA?9?$AAS?$AAY?$AA?$AA@ 0000000180055d48     libucrt:lcidtoname_downlevel.obj
 0002:00004d58       ??_C@_1M@HPKGCFGN@?$AAe?$AAn?$AA?9?$AAB?$AAZ?$AA?$AA@ 0000000180055d58     libucrt:lcidtoname_downlevel.obj
 0002:00004d68       ??_C@_1M@OLJCMLGM@?$AAe?$AAs?$AA?9?$AAP?$AAE?$AA?$AA@ 0000000180055d68     libucrt:lcidtoname_downlevel.obj
 0002:00004d78       ??_C@_1M@MKKGFKLE@?$AAa?$AAr?$AA?9?$AAJ?$AAO?$AA?$AA@ 0000000180055d78     libucrt:lcidtoname_downlevel.obj
 0002:00004d88       ??_C@_1M@EKPGLDNI@?$AAe?$AAn?$AA?9?$AAT?$AAT?$AA?$AA@ 0000000180055d88     libucrt:lcidtoname_downlevel.obj
 0002:00004d98       ??_C@_1M@OONGHFHE@?$AAe?$AAs?$AA?9?$AAA?$AAR?$AA?$AA@ 0000000180055d98     libucrt:lcidtoname_downlevel.obj
 0002:00004da8       ??_C@_1M@OOJFGBHE@?$AAa?$AAr?$AA?9?$AAL?$AAB?$AA?$AA@ 0000000180055da8     libucrt:lcidtoname_downlevel.obj
 0002:00004db8       ??_C@_1M@GCEJHNEG@?$AAe?$AAn?$AA?9?$AAZ?$AAW?$AA?$AA@ 0000000180055db8     libucrt:lcidtoname_downlevel.obj
 0002:00004dc8       ??_C@_1M@JNOCAHJI@?$AAe?$AAs?$AA?9?$AAE?$AAC?$AA?$AA@ 0000000180055dc8     libucrt:lcidtoname_downlevel.obj
 0002:00004dd8       ??_C@_1M@JEFHPGGB@?$AAa?$AAr?$AA?9?$AAK?$AAW?$AA?$AA@ 0000000180055dd8     libucrt:lcidtoname_downlevel.obj
 0002:00004de8       ??_C@_1M@MLKIBJOJ@?$AAe?$AAn?$AA?9?$AAP?$AAH?$AA?$AA@ 0000000180055de8     libucrt:lcidtoname_downlevel.obj
 0002:00004df8       ??_C@_1M@BDNIPEND@?$AAe?$AAs?$AA?9?$AAC?$AAL?$AA?$AA@ 0000000180055df8     libucrt:lcidtoname_downlevel.obj
 0002:00004e08       ??_C@_1M@MPNMEKBD@?$AAa?$AAr?$AA?9?$AAA?$AAE?$AA?$AA@ 0000000180055e08     libucrt:lcidtoname_downlevel.obj
 0002:00004e18       ??_C@_1M@KBJALCPI@?$AAe?$AAs?$AA?9?$AAU?$AAY?$AA?$AA@ 0000000180055e18     libucrt:lcidtoname_downlevel.obj
 0002:00004e28       ??_C@_1M@LLCCOAGA@?$AAa?$AAr?$AA?9?$AAB?$AAH?$AA?$AA@ 0000000180055e28     libucrt:lcidtoname_downlevel.obj
 0002:00004e38       ??_C@_1M@PBFNCDEL@?$AAe?$AAs?$AA?9?$AAP?$AAY?$AA?$AA@ 0000000180055e38     libucrt:lcidtoname_downlevel.obj
 0002:00004e48       ??_C@_1M@EDGINPNP@?$AAa?$AAr?$AA?9?$AAQ?$AAA?$AA?$AA@ 0000000180055e48     libucrt:lcidtoname_downlevel.obj
 0002:00004e58       ??_C@_1M@MKDBIIJI@?$AAe?$AAs?$AA?9?$AAB?$AAO?$AA?$AA@ 0000000180055e58     libucrt:lcidtoname_downlevel.obj
 0002:00004e68       ??_C@_1M@CPKKEBLD@?$AAe?$AAs?$AA?9?$AAS?$AAV?$AA?$AA@ 0000000180055e68     libucrt:lcidtoname_downlevel.obj
 0002:00004e78       ??_C@_1M@NDBGMMJL@?$AAe?$AAs?$AA?9?$AAH?$AAN?$AA?$AA@ 0000000180055e78     libucrt:lcidtoname_downlevel.obj
 0002:00004e88       ??_C@_1M@JIJIBHDP@?$AAe?$AAs?$AA?9?$AAN?$AAI?$AA?$AA@ 0000000180055e88     libucrt:lcidtoname_downlevel.obj
 0002:00004e98       ??_C@_1M@CGFMKEEK@?$AAe?$AAs?$AA?9?$AAP?$AAR?$AA?$AA@ 0000000180055e98     libucrt:lcidtoname_downlevel.obj
 0002:00004ea8       ??_C@_1O@ICJHKIIK@?$AAz?$AAh?$AA?9?$AAC?$AAH?$AAT?$AA?$AA@ 0000000180055ea8     libucrt:lcidtoname_downlevel.obj
 0002:00004eb8       ??_C@_15CLNEJCE@?$AAs?$AAr?$AA?$AA@ 0000000180055eb8     libucrt:lcidtoname_downlevel.obj
 0002:00005d00       ??_C@_1M@KAHEKEIG@?$AAa?$AAf?$AA?9?$AAz?$AAa?$AA?$AA@ 0000000180056d00     libucrt:lcidtoname_downlevel.obj
 0002:00005d10       ??_C@_1M@GIECOABL@?$AAa?$AAr?$AA?9?$AAa?$AAe?$AA?$AA@ 0000000180056d10     libucrt:lcidtoname_downlevel.obj
 0002:00005d20       ??_C@_1M@BMLMEKGI@?$AAa?$AAr?$AA?9?$AAb?$AAh?$AA?$AA@ 0000000180056d20     libucrt:lcidtoname_downlevel.obj
 0002:00005d30       ??_C@_1M@DAPFDGGB@?$AAa?$AAr?$AA?9?$AAd?$AAz?$AA?$AA@ 0000000180056d30     libucrt:lcidtoname_downlevel.obj
 0002:00005d40       ??_C@_1M@FJNKGKIG@?$AAa?$AAr?$AA?9?$AAe?$AAg?$AA?$AA@ 0000000180056d40     libucrt:lcidtoname_downlevel.obj
 0002:00005d50       ??_C@_1M@FLGKKCLO@?$AAa?$AAr?$AA?9?$AAi?$AAq?$AA?$AA@ 0000000180056d50     libucrt:lcidtoname_downlevel.obj
 0002:00005d60       ??_C@_1M@GNDIPALM@?$AAa?$AAr?$AA?9?$AAj?$AAo?$AA?$AA@ 0000000180056d60     libucrt:lcidtoname_downlevel.obj
 0002:00005d70       ??_C@_1M@DDMJFMGJ@?$AAa?$AAr?$AA?9?$AAk?$AAw?$AA?$AA@ 0000000180056d70     libucrt:lcidtoname_downlevel.obj
 0002:00005d80       ??_C@_1M@EJALMLHM@?$AAa?$AAr?$AA?9?$AAl?$AAb?$AA?$AA@ 0000000180056d80     libucrt:lcidtoname_downlevel.obj
 0002:00005d90       ??_C@_1M@MOBDBLOC@?$AAa?$AAr?$AA?9?$AAl?$AAy?$AA?$AA@ 0000000180056d90     libucrt:lcidtoname_downlevel.obj
 0002:00005da0       ??_C@_1M@JAOCLHDH@?$AAa?$AAr?$AA?9?$AAm?$AAa?$AA?$AA@ 0000000180056da0     libucrt:lcidtoname_downlevel.obj
 0002:00005db0       ??_C@_1M@JHPMKJIE@?$AAa?$AAr?$AA?9?$AAo?$AAm?$AA?$AA@ 0000000180056db0     libucrt:lcidtoname_downlevel.obj
 0002:00005dc0       ??_C@_1M@OEPGHFNH@?$AAa?$AAr?$AA?9?$AAq?$AAa?$AA?$AA@ 0000000180056dc0     libucrt:lcidtoname_downlevel.obj
 0002:00005dd0       ??_C@_1M@KJDONENM@?$AAa?$AAr?$AA?9?$AAs?$AAa?$AA?$AA@ 0000000180056dd0     libucrt:lcidtoname_downlevel.obj
 0002:00005de0       ??_C@_1M@DMJDKLKM@?$AAa?$AAr?$AA?9?$AAs?$AAy?$AA?$AA@ 0000000180056de0     libucrt:lcidtoname_downlevel.obj
 0002:00005df0       ??_C@_1M@OMFIPEDC@?$AAa?$AAr?$AA?9?$AAt?$AAn?$AA?$AA@ 0000000180056df0     libucrt:lcidtoname_downlevel.obj
 0002:00005e00       ??_C@_1M@IHMHGAON@?$AAa?$AAr?$AA?9?$AAy?$AAe?$AA?$AA@ 0000000180056e00     libucrt:lcidtoname_downlevel.obj
 0002:00005e10       ??_C@_1BG@KDCPGJGB@?$AAa?$AAz?$AA?9?$AAa?$AAz?$AA?9?$AAc?$AAy?$AAr?$AAl?$AA?$AA@ 0000000180056e10     libucrt:lcidtoname_downlevel.obj
 0002:00005e28       ??_C@_1BG@IBCKDDOE@?$AAa?$AAz?$AA?9?$AAa?$AAz?$AA?9?$AAl?$AAa?$AAt?$AAn?$AA?$AA@ 0000000180056e28     libucrt:lcidtoname_downlevel.obj
 0002:00005e40       ??_C@_1M@EGPFDCPD@?$AAb?$AAe?$AA?9?$AAb?$AAy?$AA?$AA@ 0000000180056e40     libucrt:lcidtoname_downlevel.obj
 0002:00005e50       ??_C@_1M@PCMGMCGC@?$AAb?$AAg?$AA?9?$AAb?$AAg?$AA?$AA@ 0000000180056e50     libucrt:lcidtoname_downlevel.obj
 0002:00005e60       ??_C@_1M@BJBMFGOB@?$AAb?$AAn?$AA?9?$AAi?$AAn?$AA?$AA@ 0000000180056e60     libucrt:lcidtoname_downlevel.obj
 0002:00005e70       ??_C@_1BG@EAKMMACD@?$AAb?$AAs?$AA?9?$AAb?$AAa?$AA?9?$AAl?$AAa?$AAt?$AAn?$AA?$AA@ 0000000180056e70     libucrt:lcidtoname_downlevel.obj
 0002:00005e88       ??_C@_1M@KGADAODK@?$AAc?$AAa?$AA?9?$AAe?$AAs?$AA?$AA@ 0000000180056e88     libucrt:lcidtoname_downlevel.obj
 0002:00005e98       ??_C@_1M@COAJPDHI@?$AAc?$AAs?$AA?9?$AAc?$AAz?$AA?$AA@ 0000000180056e98     libucrt:lcidtoname_downlevel.obj
 0002:00005ea8       ??_C@_1M@DHBHFONH@?$AAc?$AAy?$AA?9?$AAg?$AAb?$AA?$AA@ 0000000180056ea8     libucrt:lcidtoname_downlevel.obj
 0002:00005eb8       ??_C@_1M@IMGKELGA@?$AAd?$AAa?$AA?9?$AAd?$AAk?$AA?$AA@ 0000000180056eb8     libucrt:lcidtoname_downlevel.obj
 0002:00005ec8       ??_C@_1M@NNDGDNGA@?$AAd?$AAe?$AA?9?$AAa?$AAt?$AA?$AA@ 0000000180056ec8     libucrt:lcidtoname_downlevel.obj
 0002:00005ed8       ??_C@_1M@IKDBHEEM@?$AAd?$AAe?$AA?9?$AAc?$AAh?$AA?$AA@ 0000000180056ed8     libucrt:lcidtoname_downlevel.obj
 0002:00005ee8       ??_C@_1M@GFFOJMCJ@?$AAd?$AAe?$AA?9?$AAd?$AAe?$AA?$AA@ 0000000180056ee8     libucrt:lcidtoname_downlevel.obj
 0002:00005ef8       ??_C@_1M@MDNLKBPM@?$AAd?$AAe?$AA?9?$AAl?$AAi?$AA?$AA@ 0000000180056ef8     libucrt:lcidtoname_downlevel.obj
 0002:00005f08       ??_C@_1M@NJBEEJNL@?$AAd?$AAe?$AA?9?$AAl?$AAu?$AA?$AA@ 0000000180056f08     libucrt:lcidtoname_downlevel.obj
 0002:00005f18       ??_C@_1O@GNNELBAP@?$AAd?$AAi?$AAv?$AA?9?$AAm?$AAv?$AA?$AA@ 0000000180056f18     libucrt:lcidtoname_downlevel.obj
 0002:00005f28       ??_C@_1M@EJLEOGAE@?$AAe?$AAl?$AA?9?$AAg?$AAr?$AA?$AA@ 0000000180056f28     libucrt:lcidtoname_downlevel.obj
 0002:00005f38       ??_C@_1M@GMPONJN@?$AAe?$AAn?$AA?9?$AAa?$AAu?$AA?$AA@ 0000000180056f38     libucrt:lcidtoname_downlevel.obj
 0002:00005f48       ??_C@_1M@NIDIIPGF@?$AAe?$AAn?$AA?9?$AAb?$AAz?$AA?$AA@ 0000000180056f48     libucrt:lcidtoname_downlevel.obj
 0002:00005f58       ??_C@_1M@JEHMIMFO@?$AAe?$AAn?$AA?9?$AAc?$AAa?$AA?$AA@ 0000000180056f58     libucrt:lcidtoname_downlevel.obj
 0002:00005f68       ??_C@_1M@IGMJCDLA@?$AAe?$AAn?$AA?9?$AAc?$AAb?$AA?$AA@ 0000000180056f68     libucrt:lcidtoname_downlevel.obj
 0002:00005f78       ??_C@_1M@BNFIGBKG@?$AAe?$AAn?$AA?9?$AAg?$AAb?$AA?$AA@ 0000000180056f78     libucrt:lcidtoname_downlevel.obj
 0002:00005f88       ??_C@_1M@LKIFDIGP@?$AAe?$AAn?$AA?9?$AAi?$AAe?$AA?$AA@ 0000000180056f88     libucrt:lcidtoname_downlevel.obj
 0002:00005f98       ??_C@_1M@PJKFGCCO@?$AAe?$AAn?$AA?9?$AAj?$AAm?$AA?$AA@ 0000000180056f98     libucrt:lcidtoname_downlevel.obj
 0002:00005fa8       ??_C@_1M@KPPKEPBO@?$AAe?$AAn?$AA?9?$AAn?$AAz?$AA?$AA@ 0000000180056fa8     libucrt:lcidtoname_downlevel.obj
 0002:00005fb8       ??_C@_1M@GMDGLDOB@?$AAe?$AAn?$AA?9?$AAp?$AAh?$AA?$AA@ 0000000180056fb8     libucrt:lcidtoname_downlevel.obj
 0002:00005fc8       ??_C@_1M@ONGIBJNA@?$AAe?$AAn?$AA?9?$AAt?$AAt?$AA?$AA@ 0000000180056fc8     libucrt:lcidtoname_downlevel.obj
 0002:00005fd8       ??_C@_1M@LLODPCMM@?$AAe?$AAn?$AA?9?$AAu?$AAs?$AA?$AA@ 0000000180056fd8     libucrt:lcidtoname_downlevel.obj
 0002:00005fe8       ??_C@_1M@LAKFNPAN@?$AAe?$AAn?$AA?9?$AAz?$AAa?$AA?$AA@ 0000000180056fe8     libucrt:lcidtoname_downlevel.obj
 0002:00005ff8       ??_C@_1M@MFNHNHEO@?$AAe?$AAn?$AA?9?$AAz?$AAw?$AA?$AA@ 0000000180056ff8     libucrt:lcidtoname_downlevel.obj
 0002:00006008       ??_C@_1M@EJEINPHM@?$AAe?$AAs?$AA?9?$AAa?$AAr?$AA?$AA@ 0000000180057008     libucrt:lcidtoname_downlevel.obj
 0002:00006018       ??_C@_1M@GNKPCCJA@?$AAe?$AAs?$AA?9?$AAb?$AAo?$AA?$AA@ 0000000180057018     libucrt:lcidtoname_downlevel.obj
 0002:00006028       ??_C@_1M@LEEGFONL@?$AAe?$AAs?$AA?9?$AAc?$AAl?$AA?$AA@ 0000000180057028     libucrt:lcidtoname_downlevel.obj
 0002:00006038       ??_C@_1M@KGPDPBDF@?$AAe?$AAs?$AA?9?$AAc?$AAo?$AA?$AA@ 0000000180057038     libucrt:lcidtoname_downlevel.obj
 0002:00006048       ??_C@_1M@EIAHOHH@?$AAe?$AAs?$AA?9?$AAc?$AAr?$AA?$AA@ 0000000180057048     libucrt:lcidtoname_downlevel.obj
 0002:00006058       ??_C@_1M@LLPGMBIN@?$AAe?$AAs?$AA?9?$AAd?$AAo?$AA?$AA@ 0000000180057058     libucrt:lcidtoname_downlevel.obj
 0002:00006068       ??_C@_1M@DKHMKNJA@?$AAe?$AAs?$AA?9?$AAe?$AAc?$AA?$AA@ 0000000180057068     libucrt:lcidtoname_downlevel.obj
 0002:00006078       ??_C@_1M@GKGFPKAP@?$AAe?$AAs?$AA?9?$AAe?$AAs?$AA?$AA@ 0000000180057078     libucrt:lcidtoname_downlevel.obj
 0002:00006088       ??_C@_1M@LKHKGDLN@?$AAe?$AAs?$AA?9?$AAg?$AAt?$AA?$AA@ 0000000180057088     libucrt:lcidtoname_downlevel.obj
 0002:00006098       ??_C@_1M@HEIIGGJD@?$AAe?$AAs?$AA?9?$AAh?$AAn?$AA?$AA@ 0000000180057098     libucrt:lcidtoname_downlevel.obj
 0002:000060a8       ??_C@_1M@FBDHPPGD@?$AAe?$AAs?$AA?9?$AAm?$AAx?$AA?$AA@ 00000001800570a8     libucrt:lcidtoname_downlevel.obj
 0002:000060b8       ??_C@_1M@DPAGLNDH@?$AAe?$AAs?$AA?9?$AAn?$AAi?$AA?$AA@ 00000001800570b8     libucrt:lcidtoname_downlevel.obj
 0002:000060c8       ??_C@_1M@MDGOPGDD@?$AAe?$AAs?$AA?9?$AAp?$AAa?$AA?$AA@ 00000001800570c8     libucrt:lcidtoname_downlevel.obj
 0002:000060d8       ??_C@_1M@EMAMGBGE@?$AAe?$AAs?$AA?9?$AAp?$AAe?$AA?$AA@ 00000001800570d8     libucrt:lcidtoname_downlevel.obj
 0002:000060e8       ??_C@_1M@IBMCAOEC@?$AAe?$AAs?$AA?9?$AAp?$AAr?$AA?$AA@ 00000001800570e8     libucrt:lcidtoname_downlevel.obj
 0002:000060f8       ??_C@_1M@FGMDIJED@?$AAe?$AAs?$AA?9?$AAp?$AAy?$AA?$AA@ 00000001800570f8     libucrt:lcidtoname_downlevel.obj
 0002:00006108       ??_C@_1M@IIDEOLLL@?$AAe?$AAs?$AA?9?$AAs?$AAv?$AA?$AA@ 0000000180057108     libucrt:lcidtoname_downlevel.obj
 0002:00006118       ??_C@_1M@GAOBIPA@?$AAe?$AAs?$AA?9?$AAu?$AAy?$AA?$AA@ 0000000180057118     libucrt:lcidtoname_downlevel.obj
 0002:00006128       ??_C@_1M@JKFFICHJ@?$AAe?$AAs?$AA?9?$AAv?$AAe?$AA?$AA@ 0000000180057128     libucrt:lcidtoname_downlevel.obj
 0002:00006138       ??_C@_1M@PNMLOJDF@?$AAe?$AAt?$AA?9?$AAe?$AAe?$AA?$AA@ 0000000180057138     libucrt:lcidtoname_downlevel.obj
 0002:00006148       ??_C@_1M@GHHLIKEI@?$AAe?$AAu?$AA?9?$AAe?$AAs?$AA?$AA@ 0000000180057148     libucrt:lcidtoname_downlevel.obj
 0002:00006158       ??_C@_1M@PBNONODE@?$AAf?$AAa?$AA?9?$AAi?$AAr?$AA?$AA@ 0000000180057158     libucrt:lcidtoname_downlevel.obj
 0002:00006168       ??_C@_1M@JEEHPMIL@?$AAf?$AAi?$AA?9?$AAf?$AAi?$AA?$AA@ 0000000180057168     libucrt:lcidtoname_downlevel.obj
 0002:00006178       ??_C@_1M@LMDCNDBA@?$AAf?$AAo?$AA?9?$AAf?$AAo?$AA?$AA@ 0000000180057178     libucrt:lcidtoname_downlevel.obj
 0002:00006188       ??_C@_1M@JKEOHLDK@?$AAf?$AAr?$AA?9?$AAb?$AAe?$AA?$AA@ 0000000180057188     libucrt:lcidtoname_downlevel.obj
 0002:00006198       ??_C@_1M@NOHADPMI@?$AAf?$AAr?$AA?9?$AAc?$AAa?$AA?$AA@ 0000000180057198     libucrt:lcidtoname_downlevel.obj
 0002:000061a8       ??_C@_1M@KDHIHAEC@?$AAf?$AAr?$AA?9?$AAc?$AAh?$AA?$AA@ 00000001800571a8     libucrt:lcidtoname_downlevel.obj
 0002:000061b8       ??_C@_1M@MMBBFGAK@?$AAf?$AAr?$AA?9?$AAf?$AAr?$AA?$AA@ 00000001800571b8     libucrt:lcidtoname_downlevel.obj
 0002:000061c8       ??_C@_1M@PAFNENNF@?$AAf?$AAr?$AA?9?$AAl?$AAu?$AA?$AA@ 00000001800571c8     libucrt:lcidtoname_downlevel.obj
 0002:000061d8       ??_C@_1M@EOHDJGDD@?$AAf?$AAr?$AA?9?$AAm?$AAc?$AA?$AA@ 00000001800571d8     libucrt:lcidtoname_downlevel.obj
 0002:000061e8       ??_C@_1M@FAPLLOPF@?$AAg?$AAl?$AA?9?$AAe?$AAs?$AA?$AA@ 00000001800571e8     libucrt:lcidtoname_downlevel.obj
 0002:000061f8       ??_C@_1M@FOPBFLOO@?$AAg?$AAu?$AA?9?$AAi?$AAn?$AA?$AA@ 00000001800571f8     libucrt:lcidtoname_downlevel.obj
 0002:00006208       ??_C@_1M@KBMCINPM@?$AAh?$AAe?$AA?9?$AAi?$AAl?$AA?$AA@ 0000000180057208     libucrt:lcidtoname_downlevel.obj
 0002:00006218       ??_C@_1M@BBPHKFPJ@?$AAh?$AAi?$AA?9?$AAi?$AAn?$AA?$AA@ 0000000180057218     libucrt:lcidtoname_downlevel.obj
 0002:00006228       ??_C@_1M@PMBNDPHD@?$AAh?$AAr?$AA?9?$AAb?$AAa?$AA?$AA@ 0000000180057228     libucrt:lcidtoname_downlevel.obj
 0002:00006238       ??_C@_1M@BPCKOEGE@?$AAh?$AAr?$AA?9?$AAh?$AAr?$AA?$AA@ 0000000180057238     libucrt:lcidtoname_downlevel.obj
 0002:00006248       ??_C@_1M@GACBMHKE@?$AAh?$AAu?$AA?9?$AAh?$AAu?$AA?$AA@ 0000000180057248     libucrt:lcidtoname_downlevel.obj
 0002:00006258       ??_C@_1M@MILPAJJC@?$AAh?$AAy?$AA?9?$AAa?$AAm?$AA?$AA@ 0000000180057258     libucrt:lcidtoname_downlevel.obj
 0002:00006268       ??_C@_1M@BABBICEC@?$AAi?$AAd?$AA?9?$AAi?$AAd?$AA?$AA@ 0000000180057268     libucrt:lcidtoname_downlevel.obj
 0002:00006278       ??_C@_1M@BIKNHHPF@?$AAi?$AAs?$AA?9?$AAi?$AAs?$AA?$AA@ 0000000180057278     libucrt:lcidtoname_downlevel.obj
 0002:00006288       ??_C@_1M@NMPCJPHE@?$AAi?$AAt?$AA?9?$AAc?$AAh?$AA?$AA@ 0000000180057288     libucrt:lcidtoname_downlevel.obj
 0002:00006298       ??_C@_1M@GHKGFEDF@?$AAi?$AAt?$AA?9?$AAi?$AAt?$AA?$AA@ 0000000180057298     libucrt:lcidtoname_downlevel.obj
 0002:000062a8       ??_C@_1M@NIEJCJJA@?$AAj?$AAa?$AA?9?$AAj?$AAp?$AA?$AA@ 00000001800572a8     libucrt:lcidtoname_downlevel.obj
 0002:000062b8       ??_C@_1M@JILFNBIM@?$AAk?$AAa?$AA?9?$AAg?$AAe?$AA?$AA@ 00000001800572b8     libucrt:lcidtoname_downlevel.obj
 0002:000062c8       ??_C@_1M@PACPMGPH@?$AAk?$AAk?$AA?9?$AAk?$AAz?$AA?$AA@ 00000001800572c8     libucrt:lcidtoname_downlevel.obj
 0002:000062d8       ??_C@_1M@IELFGMHA@?$AAk?$AAn?$AA?9?$AAi?$AAn?$AA?$AA@ 00000001800572d8     libucrt:lcidtoname_downlevel.obj
 0002:000062e8       ??_C@_1O@IBBJHCH@?$AAk?$AAo?$AAk?$AA?9?$AAi?$AAn?$AA?$AA@ 00000001800572e8     libucrt:lcidtoname_downlevel.obj
 0002:000062f8       ??_C@_1M@DMHAEOGC@?$AAk?$AAo?$AA?9?$AAk?$AAr?$AA?$AA@ 00000001800572f8     libucrt:lcidtoname_downlevel.obj
 0002:00006308       ??_C@_1M@HBAHBIGA@?$AAk?$AAy?$AA?9?$AAk?$AAg?$AA?$AA@ 0000000180057308     libucrt:lcidtoname_downlevel.obj
 0002:00006318       ??_C@_1M@KPMILCJG@?$AAl?$AAt?$AA?9?$AAl?$AAt?$AA?$AA@ 0000000180057318     libucrt:lcidtoname_downlevel.obj
 0002:00006328       ??_C@_1M@BDEKKCA@?$AAl?$AAv?$AA?9?$AAl?$AAv?$AA?$AA@ 0000000180057328     libucrt:lcidtoname_downlevel.obj
 0002:00006338       ??_C@_1M@ELCKCCJJ@?$AAm?$AAi?$AA?9?$AAn?$AAz?$AA?$AA@ 0000000180057338     libucrt:lcidtoname_downlevel.obj
 0002:00006348       ??_C@_1M@CBOOLAPA@?$AAm?$AAk?$AA?9?$AAm?$AAk?$AA?$AA@ 0000000180057348     libucrt:lcidtoname_downlevel.obj
 0002:00006358       ??_C@_1M@GPHNBJKN@?$AAm?$AAl?$AA?9?$AAi?$AAn?$AA?$AA@ 0000000180057358     libucrt:lcidtoname_downlevel.obj
 0002:00006368       ??_C@_1M@PABJILIG@?$AAm?$AAn?$AA?9?$AAm?$AAn?$AA?$AA@ 0000000180057368     libucrt:lcidtoname_downlevel.obj
 0002:00006378       ??_C@_1M@FGBKKIPG@?$AAm?$AAr?$AA?9?$AAi?$AAn?$AA?$AA@ 0000000180057378     libucrt:lcidtoname_downlevel.obj
 0002:00006388       ??_C@_1M@NDBPDDAL@?$AAm?$AAs?$AA?9?$AAb?$AAn?$AA?$AA@ 0000000180057388     libucrt:lcidtoname_downlevel.obj
 0002:00006398       ??_C@_1M@OPIHOOPI@?$AAm?$AAs?$AA?9?$AAm?$AAy?$AA?$AA@ 0000000180057398     libucrt:lcidtoname_downlevel.obj
 0002:000063a8       ??_C@_1M@PPDBCNFM@?$AAm?$AAt?$AA?9?$AAm?$AAt?$AA?$AA@ 00000001800573a8     libucrt:lcidtoname_downlevel.obj
 0002:000063b8       ??_C@_1M@KDJDKMDD@?$AAn?$AAb?$AA?9?$AAn?$AAo?$AA?$AA@ 00000001800573b8     libucrt:lcidtoname_downlevel.obj
 0002:000063c8       ??_C@_1M@KFCFLMJP@?$AAn?$AAl?$AA?9?$AAb?$AAe?$AA?$AA@ 00000001800573c8     libucrt:lcidtoname_downlevel.obj
 0002:000063d8       ??_C@_1M@KPOPDDGO@?$AAn?$AAl?$AA?9?$AAn?$AAl?$AA?$AA@ 00000001800573d8     libucrt:lcidtoname_downlevel.obj
 0002:000063e8       ??_C@_1M@LJKPEMLN@?$AAn?$AAn?$AA?9?$AAn?$AAo?$AA?$AA@ 00000001800573e8     libucrt:lcidtoname_downlevel.obj
 0002:000063f8       ??_C@_1M@BDGHHBFL@?$AAn?$AAs?$AA?9?$AAz?$AAa?$AA?$AA@ 00000001800573f8     libucrt:lcidtoname_downlevel.obj
 0002:00006408       ??_C@_1M@IDEHOAP@?$AAp?$AAa?$AA?9?$AAi?$AAn?$AA?$AA@ 0000000180057408     libucrt:lcidtoname_downlevel.obj
 0002:00006418       ??_C@_1M@HDBKGOGH@?$AAp?$AAl?$AA?9?$AAp?$AAl?$AA?$AA@ 0000000180057418     libucrt:lcidtoname_downlevel.obj
 0002:00006428       ??_C@_1M@LJLLCMEH@?$AAp?$AAt?$AA?9?$AAb?$AAr?$AA?$AA@ 0000000180057428     libucrt:lcidtoname_downlevel.obj
 0002:00006438       ??_C@_1M@NCMONAAL@?$AAp?$AAt?$AA?9?$AAp?$AAt?$AA?$AA@ 0000000180057438     libucrt:lcidtoname_downlevel.obj
 0002:00006448       ??_C@_1O@EAKMAJDN@?$AAq?$AAu?$AAz?$AA?9?$AAb?$AAo?$AA?$AA@ 0000000180057448     libucrt:lcidtoname_downlevel.obj
 0002:00006458       ??_C@_1O@BHHPIGDN@?$AAq?$AAu?$AAz?$AA?9?$AAe?$AAc?$AA?$AA@ 0000000180057458     libucrt:lcidtoname_downlevel.obj
 0002:00006468       ??_C@_1O@GBAPEKMJ@?$AAq?$AAu?$AAz?$AA?9?$AAp?$AAe?$AA?$AA@ 0000000180057468     libucrt:lcidtoname_downlevel.obj
 0002:00006478       ??_C@_1M@CLGLEFBO@?$AAr?$AAo?$AA?9?$AAr?$AAo?$AA?$AA@ 0000000180057478     libucrt:lcidtoname_downlevel.obj
 0002:00006488       ??_C@_1M@CEEDODME@?$AAr?$AAu?$AA?9?$AAr?$AAu?$AA?$AA@ 0000000180057488     libucrt:lcidtoname_downlevel.obj
 0002:00006498       ??_C@_1M@HPKKKMPP@?$AAs?$AAa?$AA?9?$AAi?$AAn?$AA?$AA@ 0000000180057498     libucrt:lcidtoname_downlevel.obj
 0002:000064a8       ??_C@_1M@BKMAIGOJ@?$AAs?$AAe?$AA?9?$AAf?$AAi?$AA?$AA@ 00000001800574a8     libucrt:lcidtoname_downlevel.obj
 0002:000064b8       ??_C@_1M@NDPIFLFI@?$AAs?$AAe?$AA?9?$AAn?$AAo?$AA?$AA@ 00000001800574b8     libucrt:lcidtoname_downlevel.obj
 0002:000064c8       ??_C@_1M@DANKKHJ@?$AAs?$AAe?$AA?9?$AAs?$AAe?$AA?$AA@ 00000001800574c8     libucrt:lcidtoname_downlevel.obj
 0002:000064d8       ??_C@_1M@PNBLONPJ@?$AAs?$AAk?$AA?9?$AAs?$AAk?$AA?$AA@ 00000001800574d8     libucrt:lcidtoname_downlevel.obj
 0002:000064e8       ??_C@_1M@LFMODOAL@?$AAs?$AAl?$AA?9?$AAs?$AAi?$AA?$AA@ 00000001800574e8     libucrt:lcidtoname_downlevel.obj
 0002:000064f8       ??_C@_1O@DFKOMPG@?$AAs?$AAm?$AAa?$AA?9?$AAn?$AAo?$AA?$AA@ 00000001800574f8     libucrt:lcidtoname_downlevel.obj
 0002:00006508       ??_C@_1O@NDKPBNNH@?$AAs?$AAm?$AAa?$AA?9?$AAs?$AAe?$AA?$AA@ 0000000180057508     libucrt:lcidtoname_downlevel.obj
 0002:00006518       ??_C@_1O@PLLKBHAB@?$AAs?$AAm?$AAj?$AA?9?$AAn?$AAo?$AA?$AA@ 0000000180057518     libucrt:lcidtoname_downlevel.obj
 0002:00006528       ??_C@_1O@CLEPOGCA@?$AAs?$AAm?$AAj?$AA?9?$AAs?$AAe?$AA?$AA@ 0000000180057528     libucrt:lcidtoname_downlevel.obj
 0002:00006538       ??_C@_1O@DLGJGKMK@?$AAs?$AAm?$AAn?$AA?9?$AAf?$AAi?$AA?$AA@ 0000000180057538     libucrt:lcidtoname_downlevel.obj
 0002:00006548       ??_C@_1O@OJDJGAJC@?$AAs?$AAm?$AAs?$AA?9?$AAf?$AAi?$AA?$AA@ 0000000180057548     libucrt:lcidtoname_downlevel.obj
 0002:00006558       ??_C@_1M@BOFOGHPB@?$AAs?$AAq?$AA?9?$AAa?$AAl?$AA?$AA@ 0000000180057558     libucrt:lcidtoname_downlevel.obj
 0002:00006568       ??_C@_1BG@LJBBIPGB@?$AAs?$AAr?$AA?9?$AAb?$AAa?$AA?9?$AAc?$AAy?$AAr?$AAl?$AA?$AA@ 0000000180057568     libucrt:lcidtoname_downlevel.obj
 0002:00006580       ??_C@_1BG@JLBENFOE@?$AAs?$AAr?$AA?9?$AAb?$AAa?$AA?9?$AAl?$AAa?$AAt?$AAn?$AA?$AA@ 0000000180057580     libucrt:lcidtoname_downlevel.obj
 0002:00006598       ??_C@_1BG@KODPNHE@?$AAs?$AAr?$AA?9?$AAs?$AAp?$AA?9?$AAc?$AAy?$AAr?$AAl?$AA?$AA@ 0000000180057598     libucrt:lcidtoname_downlevel.obj
 0002:000065b0       ??_C@_1BG@CIOGKHPB@?$AAs?$AAr?$AA?9?$AAs?$AAp?$AA?9?$AAl?$AAa?$AAt?$AAn?$AA?$AA@ 00000001800575b0     libucrt:lcidtoname_downlevel.obj
 0002:000065c8       ??_C@_1M@NGFJLMAC@?$AAs?$AAv?$AA?9?$AAf?$AAi?$AA?$AA@ 00000001800575c8     libucrt:lcidtoname_downlevel.obj
 0002:000065d8       ??_C@_1M@MPJEJAJC@?$AAs?$AAv?$AA?9?$AAs?$AAe?$AA?$AA@ 00000001800575d8     libucrt:lcidtoname_downlevel.obj
 0002:000065e8       ??_C@_1M@MPNDHLFK@?$AAs?$AAw?$AA?9?$AAk?$AAe?$AA?$AA@ 00000001800575e8     libucrt:lcidtoname_downlevel.obj
 0002:000065f8       ??_C@_1O@KOHBJJI@?$AAs?$AAy?$AAr?$AA?9?$AAs?$AAy?$AA?$AA@ 00000001800575f8     libucrt:lcidtoname_downlevel.obj
 0002:00006608       ??_C@_1M@LDCEFHA@?$AAt?$AAa?$AA?9?$AAi?$AAn?$AA?$AA@ 0000000180057608     libucrt:lcidtoname_downlevel.obj
 0002:00006618       ??_C@_1M@CNJOFAK@?$AAt?$AAe?$AA?9?$AAi?$AAn?$AA?$AA@ 0000000180057618     libucrt:lcidtoname_downlevel.obj
 0002:00006628       ??_C@_1M@GNAECACD@?$AAt?$AAh?$AA?9?$AAt?$AAh?$AA?$AA@ 0000000180057628     libucrt:lcidtoname_downlevel.obj
 0002:00006638       ??_C@_1M@CHBIHOJO@?$AAt?$AAn?$AA?9?$AAz?$AAa?$AA?$AA@ 0000000180057638     libucrt:lcidtoname_downlevel.obj
 0002:00006648       ??_C@_1M@GCCMIGPJ@?$AAt?$AAr?$AA?9?$AAt?$AAr?$AA?$AA@ 0000000180057648     libucrt:lcidtoname_downlevel.obj
 0002:00006658       ??_C@_1M@CELMCNBK@?$AAt?$AAt?$AA?9?$AAr?$AAu?$AA?$AA@ 0000000180057658     libucrt:lcidtoname_downlevel.obj
 0002:00006668       ??_C@_1M@KLMCELGA@?$AAu?$AAk?$AA?9?$AAu?$AAa?$AA?$AA@ 0000000180057668     libucrt:lcidtoname_downlevel.obj
 0002:00006678       ??_C@_1M@EPAJJAJF@?$AAu?$AAr?$AA?9?$AAp?$AAk?$AA?$AA@ 0000000180057678     libucrt:lcidtoname_downlevel.obj
 0002:00006688       ??_C@_1BG@GEGPMCDJ@?$AAu?$AAz?$AA?9?$AAu?$AAz?$AA?9?$AAc?$AAy?$AAr?$AAl?$AA?$AA@ 0000000180057688     libucrt:lcidtoname_downlevel.obj
 0002:000066a0       ??_C@_1BG@EGGKJILM@?$AAu?$AAz?$AA?9?$AAu?$AAz?$AA?9?$AAl?$AAa?$AAt?$AAn?$AA?$AA@ 00000001800576a0     libucrt:lcidtoname_downlevel.obj
 0002:000066b8       ??_C@_1M@GFOCLFF@?$AAv?$AAi?$AA?9?$AAv?$AAn?$AA?$AA@ 00000001800576b8     libucrt:lcidtoname_downlevel.obj
 0002:000066c8       ??_C@_1M@CPAMEDFI@?$AAx?$AAh?$AA?9?$AAz?$AAa?$AA?$AA@ 00000001800576c8     libucrt:lcidtoname_downlevel.obj
 0002:000066d8       ??_C@_1O@EBKIFIGN@?$AAz?$AAh?$AA?9?$AAc?$AAh?$AAs?$AA?$AA@ 00000001800576d8     libucrt:lcidtoname_downlevel.obj
 0002:000066e8       ??_C@_1O@NMHPGANE@?$AAz?$AAh?$AA?9?$AAc?$AAh?$AAt?$AA?$AA@ 00000001800576e8     libucrt:lcidtoname_downlevel.obj
 0002:000066f8       ??_C@_1M@LPINJOMC@?$AAz?$AAh?$AA?9?$AAc?$AAn?$AA?$AA@ 00000001800576f8     libucrt:lcidtoname_downlevel.obj
 0002:00006708       ??_C@_1M@OCJEJODD@?$AAz?$AAh?$AA?9?$AAh?$AAk?$AA?$AA@ 0000000180057708     libucrt:lcidtoname_downlevel.obj
 0002:00006718       ??_C@_1M@DNDLJINH@?$AAz?$AAh?$AA?9?$AAm?$AAo?$AA?$AA@ 0000000180057718     libucrt:lcidtoname_downlevel.obj
 0002:00006728       ??_C@_1M@MBFDNDND@?$AAz?$AAh?$AA?9?$AAs?$AAg?$AA?$AA@ 0000000180057728     libucrt:lcidtoname_downlevel.obj
 0002:00006738       ??_C@_1M@IMEPLEPE@?$AAz?$AAh?$AA?9?$AAt?$AAw?$AA?$AA@ 0000000180057738     libucrt:lcidtoname_downlevel.obj
 0002:00006748       ??_C@_1M@BBGHNHJP@?$AAz?$AAu?$AA?9?$AAz?$AAa?$AA?$AA@ 0000000180057748     libucrt:lcidtoname_downlevel.obj
 0002:00006754       ??_C@_01GBGANLPD@0?$AA@    0000000180057754     libucrt:cfout.obj
 0002:00006758       ??_C@_05DNEBIAHO@1?$CDINF?$AA@ 0000000180057758     libucrt:cfout.obj
 0002:00006760       ??_C@_06IMKFLFPG@1?$CDQNAN?$AA@ 0000000180057760     libucrt:cfout.obj
 0002:00006768       ??_C@_06PGGFOGJG@1?$CDSNAN?$AA@ 0000000180057768     libucrt:cfout.obj
 0002:00006770       ??_C@_05PHHOCPM@1?$CDIND?$AA@ 0000000180057770     libucrt:cfout.obj
 0002:000069d0       ??_C@_1BA@BALFACEM@?$AAC?$AAO?$AAN?$AAO?$AAU?$AAT?$AA$?$AA?$AA@ 00000001800579d0     libucrt:initcon.obj
 0002:000069f0       __log10_256_lead           00000001800579f0     libucrt:log10_256_lead_tail_table.obj
 0002:00007200       __log10_256_tail           0000000180058200     libucrt:log10_256_lead_tail_table.obj
 0002:00007a10       __log_F_inv_qword          0000000180058a10     libucrt:log_f_inv_qword_table.obj
 0002:00008220       ??_C@_03MGHMBJCF@log?$AA@  0000000180059220     libucrt:log_special.obj
 0002:00008224       ??_C@_05HGHHAHAP@log10?$AA@ 0000000180059224     libucrt:log_special.obj
 0002:0000822c       ??_C@_03KHJOGHMM@exp?$AA@  000000018005922c     libucrt:fpexcept.obj
 0002:00008230       ??_C@_1BK@DBDEIDLH@?$AAK?$AAE?$AAR?$AAN?$AAE?$AAL?$AA3?$AA2?$AA?4?$AAD?$AAL?$AAL?$AA?$AA@ 0000000180059230     DelayImp:delayhlp.obj
 0002:00008250       ??_C@_0BI@OMNLIJDB@AcquireSRWLockExclusive?$AA@ 0000000180059250     DelayImp:delayhlp.obj
 0002:00008268       ??_C@_0BI@HMIEPCNJ@ReleaseSRWLockExclusive?$AA@ 0000000180059268     DelayImp:delayhlp.obj
 0002:00008280       __pfnDliFailureHook2       0000000180059280     DelayImp:delayhk1.obj
 0002:00008290       _load_config_used          0000000180059290     LIBCMT:loadcfg.obj
 0002:00008324       ??_C@_06HBNONAG@create?$AA@ 0000000180059324     hcaptha.obj
 0002:00008330       ??_C@_0BE@CEKNLDAE@?4?4?2addon?2hcaptha?4cc?$AA@ 0000000180059330     hcaptha.obj
 0002:00008348       ??_C@_07MHIIAGGF@hcaptha?$AA@ 0000000180059348     hcaptha.obj
 0002:00008350       ??_C@_0BC@BDKFLDHL@unknown?5exception?$AA@ 0000000180059350     cap.obj
 0002:00008362       ??_C@_00CNPNBAHC@?$AA@     0000000180059362     cap.obj
 0002:00008368       ??_C@_07CIFAGBMG@unknown?$AA@ 0000000180059368     cap.obj
 0002:00008370       ??_C@_0BL@EAGPGGJL@?6?$CFs?$FLCImg?$FN?5?$CK?$CK?$CK?5?$CFs?5?$CK?$CK?$CK?$CFs?5?$CFs?6?$AA@ 0000000180059370     cap.obj
 0002:0000838c       ??_C@_05BGKIEECB@Abort?$AA@ 000000018005938c     cap.obj
 0002:00008398       ??_C@_0BG@IOCOPDAE@CImgInstanceException?$AA@ 0000000180059398     cap.obj
 0002:000083b0       ??_C@_0BG@KMDADBLO@CImgArgumentException?$AA@ 00000001800593b0     cap.obj
 0002:000083c8       ??_C@_0BA@EFAPIJMM@CImgIOException?$AA@ 00000001800593c8     cap.obj
 0002:000083d8       ??_C@_04DDKJGDCM@bool?$AA@ 00000001800593d8     cap.obj
 0002:000083e0       ??_C@_02DKCKIIND@?$CFs?$AA@ 00000001800593e0     cap.obj
 0002:000083e8       ??_C@_0O@PPAIJIHF@unsigned?5char?$AA@ 00000001800593e8     cap.obj
 0002:000083f8       ??_C@_02GMHACPFF@?$CFu?$AA@ 00000001800593f8     cap.obj
 0002:000083fc       ??_C@_04ENMBGAPA@char?$AA@ 00000001800593fc     cap.obj
 0002:00008408       ??_C@_0P@IIMKEEHB@unsigned?5short?$AA@ 0000000180059408     cap.obj
 0002:00008418       ??_C@_05BFKKPKCG@short?$AA@ 0000000180059418     cap.obj
 0002:00008420       ??_C@_0N@OFHMGPAL@unsigned?5int?$AA@ 0000000180059420     cap.obj
 0002:00008430       ??_C@_03JBIPMCLC@int?$AA@  0000000180059430     cap.obj
 0002:00008438       ??_C@_0O@NMGGJGDE@unsigned?5long?$AA@ 0000000180059438     cap.obj
 0002:00008448       ??_C@_04GOKPGOLB@long?$AA@ 0000000180059448     cap.obj
 0002:00008450       ??_C@_06BNJCAIGJ@double?$AA@ 0000000180059450     cap.obj
 0002:00008458       ??_C@_05KNFBNCOH@float?$AA@ 0000000180059458     cap.obj
 0002:00008460       ??_C@_0BO@KMOFCCNE@?6?$CFs?$FLCImg?$FN?5?$CK?$CK?$CK?5Warning?5?$CK?$CK?$CK?$CFs?$CFs?$AA@ 0000000180059460     cap.obj
 0002:00008480       ??_C@_01LKDEMHDF@s?$AA@    0000000180059480     cap.obj
 0002:00008488       ??_C@_0L@OBBAIDHB@?$CFlu?5byte?$CFs?$AA@ 0000000180059488     cap.obj
 0002:00008498       ??_C@_08MFGCGJIH@?$CF?41f?5Kio?$AA@ 0000000180059498     cap.obj
 0002:000084a8       ??_C@_08OAAJDGFL@?$CF?41f?5Mio?$AA@ 00000001800594a8     cap.obj
 0002:000084b8       ??_C@_08IPLENGDP@?$CF?41f?5Gio?$AA@ 00000001800594b8     cap.obj
 0002:000084c8       ??_C@_0CO@MPJIAPON@cimg?3?3fopen?$CI?$CJ?3?5Specified?5file?5pa@ 00000001800594c8     cap.obj
 0002:000084f8       ??_C@_0DE@FHMJCCAJ@cimg?3?3fopen?$CI?$CJ?3?5File?5?8?$CFs?8?0?5specif@ 00000001800594f8     cap.obj
 0002:00008530       ??_C@_0DI@BBICNEHM@cimg?3?3fopen?$CI?$CJ?3?5Failed?5to?5open?5fi@ 0000000180059530     cap.obj
 0002:00008568       ??_C@_0CK@NEJGLCGN@cimg?3?3fclose?$CI?$CJ?3?5Specified?5file?5i@ 0000000180059568     cap.obj
 0002:00008598       ??_C@_0DM@IBNMJMCA@cimg?3?3fclose?$CI?$CJ?3?5Error?5code?5?$CFd?5re@ 0000000180059598     cap.obj
 0002:000085d4       ??_C@_06IHDMMOPO@?$CFs?4tmp?$AA@ 00000001800595d4     cap.obj
 0002:000085dc       ??_C@_03FICNPLNB@TMP?$AA@  00000001800595dc     cap.obj
 0002:000085e0       ??_C@_04JKHNIKCB@TEMP?$AA@ 00000001800595e0     cap.obj
 0002:000085e8       ??_C@_06GIIGBPHC@?$CFs?$CFc?$CFs?$AA@ 00000001800595e8     cap.obj
 0002:000085f0       ??_C@_02GMLFBBN@wb?$AA@    00000001800595f0     cap.obj
 0002:000085f8       ??_C@_0O@MCLGOIG@C?3?2WINNT?2Temp?$AA@ 00000001800595f8     cap.obj
 0002:00008608       ??_C@_0BA@OBBKBLLO@C?3?2WINDOWS?2Temp?$AA@ 0000000180059608     cap.obj
 0002:00008618       ??_C@_07OEMLJILH@C?3?2Temp?$AA@ 0000000180059618     cap.obj
 0002:00008620       ??_C@_02FHMLMLAN@C?3?$AA@  0000000180059620     cap.obj
 0002:00008628       ??_C@_0O@GJOGMEEG@D?3?2WINNT?2Temp?$AA@ 0000000180059628     cap.obj
 0002:00008638       ??_C@_0BA@BMODODML@D?3?2WINDOWS?2Temp?$AA@ 0000000180059638     cap.obj
 0002:00008648       ??_C@_07OOAOJBKO@D?3?2Temp?$AA@ 0000000180059648     cap.obj
 0002:00008650       ??_C@_02FCIENNII@D?3?$AA@  0000000180059650     cap.obj
 0002:00008660       ??_C@_0EM@MFNNFKJO@cimg?3?3temporary_path?$CI?$CJ?3?5Failed?5t@ 0000000180059660     cap.obj
 0002:000086b0       ??_C@_0N@DGDPHBCF@PROGRAMFILES?$AA@ 00000001800596b0     cap.obj
 0002:000086c0       ??_C@_0M@JGDMECFM@C?3?2PROGRA?$HO1?$AA@ 00000001800596c0     cap.obj
 0002:000086d0       ??_C@_0O@CINCGHCE@?4?2convert?4exe?$AA@ 00000001800596d0     cap.obj
 0002:000086e0       ??_C@_01KDCPPGHE@r?$AA@    00000001800596e0     cap.obj
 0002:000086e8       ??_C@_0BO@BEENKDDB@?$CFs?2IMAGEM?$HO1?4?$CF?42d?9?2convert?4exe?$AA@ 00000001800596e8     cap.obj
 0002:00008708       ??_C@_0BN@DEFKOHAO@?$CFs?2IMAGEM?$HO1?4?$CFd?9Q?2convert?4exe?$AA@ 0000000180059708     cap.obj
 0002:00008728       ??_C@_0BL@MJEIJKFG@?$CFs?2IMAGEM?$HO1?4?$CFd?2convert?4exe?$AA@ 0000000180059728     cap.obj
 0002:00008748       ??_C@_0CK@IDDGABKN@?$CFs?2IMAGEM?$HO1?4?$CF?42d?9?2VISUA?$HO1?2BIN?2co@ 0000000180059748     cap.obj
 0002:00008778       ??_C@_0CJ@MEJJNKIH@?$CFs?2IMAGEM?$HO1?4?$CFd?9Q?2VISUA?$HO1?2BIN?2con@ 0000000180059778     cap.obj
 0002:000087a8       ??_C@_0CH@IPLKJMJJ@?$CFs?2IMAGEM?$HO1?4?$CFd?2VISUA?$HO1?2BIN?2conve@ 00000001800597a8     cap.obj
 0002:000087d0       ??_C@_0BO@NPHMEFBN@C?3?2IMAGEM?$HO1?4?$CF?42d?9?2convert?4exe?$AA@ 00000001800597d0     cap.obj
 0002:000087f0       ??_C@_0BN@GEAPEHLO@C?3?2IMAGEM?$HO1?4?$CFd?9Q?2convert?4exe?$AA@ 00000001800597f0     cap.obj
 0002:00008810       ??_C@_0BL@BNLFNGCG@C?3?2IMAGEM?$HO1?4?$CFd?2convert?4exe?$AA@ 0000000180059810     cap.obj
 0002:00008830       ??_C@_0CK@OMCOIKKD@C?3?2IMAGEM?$HO1?4?$CF?42d?9?2VISUA?$HO1?2BIN?2co@ 0000000180059830     cap.obj
 0002:00008860       ??_C@_0CJ@GMGFDFFB@C?3?2IMAGEM?$HO1?4?$CFd?9Q?2VISUA?$HO1?2BIN?2con@ 0000000180059860     cap.obj
 0002:00008890       ??_C@_0CH@NLPLIBFJ@C?3?2IMAGEM?$HO1?4?$CFd?2VISUA?$HO1?2BIN?2conve@ 0000000180059890     cap.obj
 0002:000088b8       ??_C@_0BO@GKFOOMCF@D?3?2IMAGEM?$HO1?4?$CF?42d?9?2convert?4exe?$AA@ 00000001800598b8     cap.obj
 0002:000088d8       ??_C@_0BN@JGGJEOAD@D?3?2IMAGEM?$HO1?4?$CFd?9Q?2convert?4exe?$AA@ 00000001800598d8     cap.obj
 0002:000088f8       ??_C@_0BL@MPGAJAKA@D?3?2IMAGEM?$HO1?4?$CFd?2convert?4exe?$AA@ 00000001800598f8     cap.obj
 0002:00008918       ??_C@_0CK@DNGABIKL@D?3?2IMAGEM?$HO1?4?$CF?42d?9?2VISUA?$HO1?2BIN?2co@ 0000000180059918     cap.obj
 0002:00008948       ??_C@_0CJ@JJJAMMPF@D?3?2IMAGEM?$HO1?4?$CFd?9Q?2VISUA?$HO1?2BIN?2con@ 0000000180059948     cap.obj
 0002:00008978       ??_C@_0CH@OJDFLFEH@D?3?2IMAGEM?$HO1?4?$CFd?2VISUA?$HO1?2BIN?2conve@ 0000000180059978     cap.obj
 0002:000089a0       ??_C@_0M@BHHDHLFO@convert?4exe?$AA@ 00000001800599a0     cap.obj
 0002:000089b0       ??_C@_08JLFGAKFI@?4?2gm?4exe?$AA@ 00000001800599b0     cap.obj
 0002:000089c0       ??_C@_0BJ@KIJEJDFC@?$CFs?2GRAPHI?$HO1?4?$CF?42d?9?2gm?4exe?$AA@ 00000001800599c0     cap.obj
 0002:000089e0       ??_C@_0BI@JLKBGOLD@?$CFs?2GRAPHI?$HO1?4?$CFd?9Q?2gm?4exe?$AA@ 00000001800599e0     cap.obj
 0002:000089f8       ??_C@_0BG@NEOPBCGI@?$CFs?2GRAPHI?$HO1?4?$CFd?2gm?4exe?$AA@ 00000001800599f8     cap.obj
 0002:00008a10       ??_C@_0CF@HGNIKPKC@?$CFs?2GRAPHI?$HO1?4?$CF?42d?9?2VISUA?$HO1?2BIN?2gm@ 0000000180059a10     cap.obj
 0002:00008a38       ??_C@_0CE@HONJHPCF@?$CFs?2GRAPHI?$HO1?4?$CFd?9Q?2VISUA?$HO1?2BIN?2gm?4@ 0000000180059a38     cap.obj
 0002:00008a60       ??_C@_0CC@CGJHNFDG@?$CFs?2GRAPHI?$HO1?4?$CFd?2VISUA?$HO1?2BIN?2gm?4ex@ 0000000180059a60     cap.obj
 0002:00008a88       ??_C@_0BJ@LNLIIJPN@C?3?2GRAPHI?$HO1?4?$CF?42d?9?2gm?4exe?$AA@ 0000000180059a88     cap.obj
 0002:00008aa8       ??_C@_0BI@GNJGIIOO@C?3?2GRAPHI?$HO1?4?$CFd?9Q?2gm?4exe?$AA@ 0000000180059aa8     cap.obj
 0002:00008ac0       ??_C@_0BG@KKAGDOPF@C?3?2GRAPHI?$HO1?4?$CFd?2gm?4exe?$AA@ 0000000180059ac0     cap.obj
 0002:00008ad8       ??_C@_0CF@IDNFPMOE@C?3?2GRAPHI?$HO1?4?$CF?42d?9?2VISUA?$HO1?2BIN?2gm@ 0000000180059ad8     cap.obj
 0002:00008b00       ??_C@_0CE@HMEOGOHC@C?3?2GRAPHI?$HO1?4?$CFd?9Q?2VISUA?$HO1?2BIN?2gm?4@ 0000000180059b00     cap.obj
 0002:00008b28       ??_C@_0CC@KLPHHFCI@C?3?2GRAPHI?$HO1?4?$CFd?2VISUA?$HO1?2BIN?2gm?4ex@ 0000000180059b28     cap.obj
 0002:00008b50       ??_C@_0BJ@HDOIHFFF@D?3?2GRAPHI?$HO1?4?$CF?42d?9?2gm?4exe?$AA@ 0000000180059b50     cap.obj
 0002:00008b70       ??_C@_0BI@FMIOLPJJ@D?3?2GRAPHI?$HO1?4?$CFd?9Q?2gm?4exe?$AA@ 0000000180059b70     cap.obj
 0002:00008b88       ??_C@_0BG@MPNPAALF@D?3?2GRAPHI?$HO1?4?$CFd?2gm?4exe?$AA@ 0000000180059b88     cap.obj
 0002:00008ba0       ??_C@_0CF@LHOHJFDL@D?3?2GRAPHI?$HO1?4?$CF?42d?9?2VISUA?$HO1?2BIN?2gm@ 0000000180059ba0     cap.obj
 0002:00008bc8       ??_C@_0CE@CAPOENBL@D?3?2GRAPHI?$HO1?4?$CFd?9Q?2VISUA?$HO1?2BIN?2gm?4@ 0000000180059bc8     cap.obj
 0002:00008bf0       ??_C@_0CC@FEHIMCKK@D?3?2GRAPHI?$HO1?4?$CFd?2VISUA?$HO1?2BIN?2gm?4ex@ 0000000180059bf0     cap.obj
 0002:00008c14       ??_C@_06KIIJHODA@gm?4exe?$AA@ 0000000180059c14     cap.obj
 0002:00008c20       ??_C@_0N@MGGOIDG@?4?2medcon?4exe?$AA@ 0000000180059c20     cap.obj
 0002:00008c30       ??_C@_0BK@NDJGANHB@?$CFs?2XMedCon?2bin?2medcon?4bat?$AA@ 0000000180059c30     cap.obj
 0002:00008c50       ??_C@_0BK@OGPIOCH@?$CFs?2XMedCon?2bin?2medcon?4exe?$AA@ 0000000180059c50     cap.obj
 0002:00008c70       ??_C@_0L@BIHMEPJA@medcon?4exe?$AA@ 0000000180059c70     cap.obj
 0002:00008c80       ??_C@_0N@BJJIFKGE@?4?2ffmpeg?4exe?$AA@ 0000000180059c80     cap.obj
 0002:00008c90       ??_C@_0L@NICPNMC@ffmpeg?4exe?$AA@ 0000000180059c90     cap.obj
 0002:00008ca0       ??_C@_0L@MDEFNJJI@?4?2gzip?4exe?$AA@ 0000000180059ca0     cap.obj
 0002:00008cb0       ??_C@_08DJAJLOMN@gzip?4exe?$AA@ 0000000180059cb0     cap.obj
 0002:00008cbc       ??_C@_03CHJOHDLP@pnm?$AA@  0000000180059cbc     cap.obj
 0002:00008cc0       ??_C@_03CJINCCAH@pfm?$AA@  0000000180059cc0     cap.obj
 0002:00008cc4       ??_C@_03CAKEDOOO@bmp?$AA@  0000000180059cc4     cap.obj
 0002:00008cc8       ??_C@_03PEGNKCLE@jpg?$AA@  0000000180059cc8     cap.obj
 0002:00008ccc       ??_C@_03HOPGHEB@pan?$AA@   0000000180059ccc     cap.obj
 0002:00008cd0       ??_C@_03NNHBJLDF@png?$AA@  0000000180059cd0     cap.obj
 0002:00008cd4       ??_C@_03EOEHCLKG@tif?$AA@  0000000180059cd4     cap.obj
 0002:00008cd8       ??_C@_03MHNFGFDE@inr?$AA@  0000000180059cd8     cap.obj
 0002:00008cdc       ??_C@_03PADNCACE@dcm?$AA@  0000000180059cdc     cap.obj
 0002:00008ce0       ??_C@_0DB@PNKIPPOD@cimg?3?3file_type?$CI?$CJ?3?5Specified?5fil@ 0000000180059ce0     cap.obj
 0002:00008d14       ??_C@_02JDPG@rb?$AA@       0000000180059d14     cap.obj
 0002:00008d18       ??_C@_08LIODNHFG@20?311?351?$AA@ 0000000180059d18     cap.obj
 0002:00008d28       ??_C@_0M@CJPGFCEF@Jan?5?56?52017?$AA@ 0000000180059d28     cap.obj
 0002:00008d40       ??_C@_0EO@PPEPCMLA@?6?5?$CFs?$CFsCImg?5Library?5?$CFu?4?$CFu?4?$CFu?$CFs?0?5c@ 0000000180059d40     cap.obj
 0002:00008d90       ??_C@_07LDLFNPGN@Windows?$AA@ 0000000180059d90     cap.obj
 0002:00008d98       ??_C@_0DK@CAOOHPPH@?5?5?$DO?5Operating?5System?3?5?5?5?5?5?5?5?$CFs?$CF?9@ 0000000180059d98     cap.obj
 0002:00008dd4       ??_C@_06HPILLNHM@Little?$AA@ 0000000180059dd4     cap.obj
 0002:00008de0       ??_C@_0CL@MALEOICL@?5?5?$DO?5CPU?5endianness?3?5?5?5?5?5?5?5?5?5?$CFs?$CFs@ 0000000180059de0     cap.obj
 0002:00008e0c       ??_C@_06EBLJEIEC@Dialog?$AA@ 0000000180059e0c     cap.obj
 0002:00008e20       ??_C@_0EB@IDKGNHGM@?5?5?$DO?5Verbosity?5mode?3?5?5?5?5?5?5?5?5?5?$CFs?$CF?9@ 0000000180059e20     cap.obj
 0002:00008e68       ??_C@_09MLGAJAED@undefined?$AA@ 0000000180059e68     cap.obj
 0002:00008e74       ??_C@_02JINPPBEP@No?$AA@   0000000180059e74     cap.obj
 0002:00008e80       ??_C@_0EH@LAGENLPE@?5?5?$DO?5Stricts?5warnings?3?5?5?5?5?5?5?5?$CFs?$CF?9@ 0000000180059e80     cap.obj
 0002:00008ed0       ??_C@_0EB@JAEOMHJH@?5?5?$DO?5Using?5VT100?5messages?3?5?5?5?$CFs?$CF?9@ 0000000180059ed0     cap.obj
 0002:00008f18       ??_C@_0M@BFGJHLMI@Windows?5GDI?$AA@ 0000000180059f18     cap.obj
 0002:00008f28       ??_C@_0DP@CBALMADN@?5?5?$DO?5Display?5type?3?5?5?5?5?5?5?5?5?5?5?5?$CFs?$CF?9@ 0000000180059f28     cap.obj
 0002:00008f70       ??_C@_0EC@DJMNKPJN@?5?5?$DO?5Using?5OpenMP?3?5?5?5?5?5?5?5?5?5?5?5?$CFs?$CF?9@ 0000000180059f70     cap.obj
 0002:00008fb8       ??_C@_0DP@ELDHPPAH@?5?5?$DO?5Using?5PNG?5library?3?5?5?5?5?5?5?$CFs?$CF?9@ 0000000180059fb8     cap.obj
 0002:00009000       ??_C@_0EA@BIPAABKJ@?5?5?$DO?5Using?5JPEG?5library?3?5?5?5?5?5?$CFs?$CF?9@ 000000018005a000     cap.obj
 0002:00009040       ??_C@_0EA@GNPBIGKO@?5?5?$DO?5Using?5TIFF?5library?3?5?5?5?5?5?$CFs?$CF?9@ 000000018005a040     cap.obj
 0002:00009080       ??_C@_0EC@LHFPOJJ@?5?5?$DO?5Using?5Magick?$CL?$CL?5library?3?5?$CFs?$CF?9@ 000000018005a080     cap.obj
 0002:000090d0       ??_C@_0EB@IMBGEGC@?5?5?$DO?5Using?5FFTW3?5library?3?5?5?5?5?$CFs?$CF?9@ 000000018005a0d0     cap.obj
 0002:00009120       ??_C@_0EC@EDAJEHKG@?5?5?$DO?5Using?5LAPACK?5library?3?5?5?5?$CFs?$CF?9@ 000000018005a120     cap.obj
 0002:00009168       ??_C@_09KDOGNJMJ@?$CC?$CF?41020s?$CC?$AA@ 000000018005a168     cap.obj
 0002:00009178       ??_C@_0CH@JOMNENBJ@?5?5?$DO?5Path?5of?5ImageMagick?3?5?5?5?5?$CFs?$CF?9@ 000000018005a178     cap.obj
 0002:000091a0       ??_C@_0CH@GJHENCAJ@?5?5?$DO?5Path?5of?5GraphicsMagick?3?5?$CFs?$CF?9@ 000000018005a1a0     cap.obj
 0002:000091c8       ??_C@_0CH@DIFINHOM@?5?5?$DO?5Path?5of?5?8medcon?8?3?5?5?5?5?5?5?5?$CFs?$CF?9@ 000000018005a1c8     cap.obj
 0002:000091f0       ??_C@_0CH@NBHEOCD@?5?5?$DO?5Temporary?5path?3?5?5?5?5?5?5?5?5?5?$CFs?$CF?9@ 000000018005a1f0     cap.obj
 0002:00009218       ??_C@_01EEMJAFIK@?6?$AA@   000000018005a218     cap.obj
 0002:0000921c       ??_C@_01CLKCMJKC@?5?$AA@   000000018005a21c     cap.obj
 0002:00009220       ??_C@_09JCBOJPAK@MDICLIENT?$AA@ 000000018005a220     cap.obj
 0002:0000922c       ??_C@_04BOPJJKFO@non?9?$AA@ 000000018005a22c     cap.obj
 0002:00009240       ??_C@_0FE@FCAEKFGI@?$FLinstance?$CI?$CFu?0?$CFu?0?$CFu?0?$CFu?0?$CFp?0?$CFsshare@ 000000018005a240     cap.obj
 0002:00009294       ??_C@_03EFEGFOOI@asc?$AA@  000000018005a294     cap.obj
 0002:00009298       ??_C@_03PLGBGHBJ@dlm?$AA@  000000018005a298     cap.obj
 0002:0000929c       ??_C@_03CLFHJCDC@txt?$AA@  000000018005a29c     cap.obj
 0002:000092a0       ??_C@_03IMOGGJKI@cpp?$AA@  000000018005a2a0     cap.obj
 0002:000092a4       ??_C@_03FLOHOOKJ@hpp?$AA@  000000018005a2a4     cap.obj
 0002:000092a8       ??_C@_01BDACAMKP@h?$AA@    000000018005a2a8     cap.obj
 0002:000092ac       ??_C@_01PAPGNFGE@c?$AA@    000000018005a2ac     cap.obj
 0002:000092b0       ??_C@_04OFMADDDJ@jpeg?$AA@ 000000018005a2b0     cap.obj
 0002:000092b8       ??_C@_03MGFLMADG@jpe?$AA@  000000018005a2b8     cap.obj
 0002:000092bc       ??_C@_04IALDPDFP@jfif?$AA@ 000000018005a2bc     cap.obj
 0002:000092c4       ??_C@_03POIBALAK@jif?$AA@  000000018005a2c4     cap.obj
 0002:000092c8       ??_C@_03FNOJMHE@rgb?$AA@   000000018005a2c8     cap.obj
 0002:000092cc       ??_C@_04CLILDBFP@rgba?$AA@ 000000018005a2cc     cap.obj
 0002:000092d4       ??_C@_03CIEPEIDA@pgm?$AA@  000000018005a2d4     cap.obj
 0002:000092d8       ??_C@_03DBCGPNMF@ppm?$AA@  000000018005a2d8     cap.obj
 0002:000092dc       ??_C@_03HBMENEDJ@pnk?$AA@  000000018005a2dc     cap.obj
 0002:000092e0       ??_C@_03JFKIAFEO@exr?$AA@  000000018005a2e0     cap.obj
 0002:000092e4       ??_C@_04MFMINNH@tiff?$AA@  000000018005a2e4     cap.obj
 0002:000092ec       ??_C@_05FHLFFJD@cimgz?$AA@ 000000018005a2ec     cap.obj
 0002:000092f4       ??_C@_04MLNCBIOF@cimg?$AA@ 000000018005a2f4     cap.obj
 0002:000092fc       ??_C@_03HCPOIHIH@hdr?$AA@  000000018005a2fc     cap.obj
 0002:00009300       ??_C@_03PGHLIAJC@nii?$AA@  000000018005a300     cap.obj
 0002:00009304       ??_C@_03BLGONBHD@mnc?$AA@  000000018005a304     cap.obj
 0002:00009308       ??_C@_03DGOGAGNC@raw?$AA@  000000018005a308     cap.obj
 0002:0000930c       ??_C@_02JIPGGKDE@gz?$AA@   000000018005a30c     cap.obj
 0002:00009310       ??_C@_03ODNDLLDO@yuv?$AA@  000000018005a310     cap.obj
 0002:00009314       ??_C@_03LJGCHEIJ@avi?$AA@  000000018005a314     cap.obj
 0002:00009318       ??_C@_03CNBJFNFA@mov?$AA@  000000018005a318     cap.obj
 0002:0000931c       ??_C@_03DIDBKKKN@asf?$AA@  000000018005a31c     cap.obj
 0002:00009320       ??_C@_04KENLIGPK@divx?$AA@ 000000018005a320     cap.obj
 0002:00009328       ??_C@_03PIFOGEAI@flv?$AA@  000000018005a328     cap.obj
 0002:0000932c       ??_C@_03GJLKJKAN@mpg?$AA@  000000018005a32c     cap.obj
 0002:00009330       ??_C@_03ELDLFOOK@m1v?$AA@  000000018005a330     cap.obj
 0002:00009334       ??_C@_03EJHNOALD@m2v?$AA@  000000018005a334     cap.obj
 0002:00009338       ??_C@_03ENPAJMAB@m4v?$AA@  000000018005a338     cap.obj
 0002:0000933c       ??_C@_03HNIIDIDN@mjp?$AA@  000000018005a33c     cap.obj
 0002:00009340       ??_C@_03CKBAPFIM@mkv?$AA@  000000018005a340     cap.obj
 0002:00009344       ??_C@_03FLIMPIIP@mpe?$AA@  000000018005a344     cap.obj
 0002:00009348       ??_C@_05PAONDCEJ@movie?$AA@ 000000018005a348     cap.obj
 0002:00009350       ??_C@_03CADFAPPJ@ogm?$AA@  000000018005a350     cap.obj
 0002:00009354       ??_C@_03NKNKOHHD@ogg?$AA@  000000018005a354     cap.obj
 0002:00009358       ??_C@_02BONOJIHI@qt?$AA@   000000018005a358     cap.obj
 0002:0000935c       ??_C@_02IHJIIPDJ@rm?$AA@   000000018005a35c     cap.obj
 0002:00009360       ??_C@_03IEKPFKJL@vob?$AA@  000000018005a360     cap.obj
 0002:00009364       ??_C@_03BBDJDOMF@wmv?$AA@  000000018005a364     cap.obj
 0002:00009368       ??_C@_04PILMACKA@xvid?$AA@ 000000018005a368     cap.obj
 0002:00009370       ??_C@_04FHOAOPCJ@mpeg?$AA@ 000000018005a370     cap.obj
 0002:00009380       ??_C@_0GO@IJKBBBF@?$FLinstance?$CI?$CFu?0?$CFu?0?$CFu?0?$CFu?0?$CFp?0?$CFsshare@ 000000018005a380     cap.obj
 0002:000093f0       ??_C@_0FK@BCIDBJGL@?$FLinstance?$CI?$CFu?0?$CFu?0?$CFu?0?$CFu?0?$CFp?0?$CFsshare@ 000000018005a3f0     cap.obj
 0002:00009450       ??_C@_0JM@PPDGCLNK@?$FLinstance?$CI?$CFu?0?$CFu?0?$CFu?0?$CFu?0?$CFp?0?$CFsshare@ 000000018005a450     cap.obj
 0002:000094f0       ??_C@_0GE@FOKMGDPH@?$FLinstance?$CI?$CFu?0?$CFu?0?$CFu?0?$CFu?0?$CFp?0?$CFsshare@ 000000018005a4f0     cap.obj
 0002:00009554       ??_C@_06KABEHPNE@?$CFs?4hdr?$AA@ 000000018005a554     cap.obj
 0002:00009560       ??_C@_0BP@ODMLMHFM@?$CFs?5?9w?5?9c?5dicom?5?9o?5?$CC?$CFs?$CC?5?9f?5?$CC?$CFs?$CC?$AA@ 000000018005a560     cap.obj
 0002:00009580       ??_C@_06CAMMMFCK@?$CFs?4img?$AA@ 000000018005a580     cap.obj
 0002:00009588       ??_C@_07LEMHFGFI@m000?9?$CFs?$AA@ 000000018005a588     cap.obj
 0002:00009590       ??_C@_0HP@DIOPIKEJ@?$FLinstance?$CI?$CFu?0?$CFu?0?$CFu?0?$CFu?0?$CFp?0?$CFsshare@ 000000018005a590     cap.obj
 0002:00009610       ??_C@_0GC@KLIFNHNE@?$FLinstance?$CI?$CFu?0?$CFu?0?$CFu?0?$CFu?0?$CFp?0?$CFsshare@ 000000018005a610     cap.obj
 0002:00009678       ??_C@_09OEINOCOO@?$CFs?$CFc?$CFs?4?$CFs?$AA@ 000000018005a678     cap.obj
 0002:00009688       ??_C@_0M@MFNAGLK@?$CFs?$CFc?$CFs?4cimg?$AA@ 000000018005a688     cap.obj
 0002:00009698       ??_C@_0BC@FPJGFCBI@?$CFs?5?9c?5?$CC?$CFs?$CC?5?$DO?5?$CC?$CFs?$CC?$AA@ 000000018005a698     cap.obj
 0002:000096b0       ??_C@_0HL@BCMFNMO@?$FLinstance?$CI?$CFu?0?$CFu?0?$CFu?0?$CFu?0?$CFp?0?$CFsshare@ 000000018005a6b0     cap.obj
 0002:00009730       ??_C@_0FL@HLFDFFJO@?$FLinstance?$CI?$CFu?0?$CFu?0?$CFu?0?$CFu?0?$CFp?0?$CFsshare@ 000000018005a730     cap.obj
 0002:00009790       ??_C@_0FI@FPDFDOOO@?$FLinstance?$CI?$CFu?0?$CFu?0?$CFu?0?$CFu?0?$CFp?0?$CFsshare@ 000000018005a790     cap.obj
 0002:000097f0       ??_C@_0ID@BADBFBMI@?$FLinstance?$CI?$CFu?0?$CFu?0?$CFu?0?$CFu?0?$CFp?0?$CFsshare@ 000000018005a7f0     cap.obj
 0002:00009880       ??_C@_0FM@KMAGFGGE@?$FLinstance?$CI?$CFu?0?$CFu?0?$CFu?0?$CFu?0?$CFp?0?$CFsshare@ 000000018005a880     cap.obj
 0002:000098dc       ??_C@_03PCCGDNHJ@img?$AA@  000000018005a8dc     cap.obj
 0002:000098e0       ??_C@_04KKCBJINP@CImg?$AA@ 000000018005a8e0     cap.obj
 0002:000098f0       ??_C@_0GJ@EKMFCABK@?$FLinstance?$CI?$CFu?0?$CFu?0?$CFu?0?$CFu?0?$CFp?0?$CFsshare@ 000000018005a8f0     cap.obj
 0002:00009960       ??_C@_0FK@MCOAJJDK@?$FLinstance?$CI?$CFu?0?$CFu?0?$CFu?0?$CFu?0?$CFp?0?$CFsshare@ 000000018005a960     cap.obj
 0002:000099c0       ??_C@_0FJ@LGHAALEF@?$FLinstance?$CI?$CFu?0?$CFu?0?$CFu?0?$CFu?0?$CFp?0?$CFsshare@ 000000018005a9c0     cap.obj
 0002:00009a20       ??_C@_0FJ@LKGHIIJK@?$FLinstance?$CI?$CFu?0?$CFu?0?$CFu?0?$CFu?0?$CFp?0?$CFsshare@ 000000018005aa20     cap.obj
 0002:00009a80       ??_C@_0IE@OINPCMNA@?$FLinstance?$CI?$CFu?0?$CFu?0?$CFu?0?$CFu?0?$CFp?0?$CFsshare@ 000000018005aa80     cap.obj
 0002:00009b10       ??_C@_0IB@JAFGNNNA@?$FLinstance?$CI?$CFu?0?$CFu?0?$CFu?0?$CFu?0?$CFp?0?$CFsshare@ 000000018005ab10     cap.obj
 0002:00009ba0       ??_C@_0HN@LNNNGPDL@?$FLinstance?$CI?$CFu?0?$CFu?0?$CFu?0?$CFu?0?$CFp?0?$CFsshare@ 000000018005aba0     cap.obj
 0002:00009c20       ??_C@_0LO@CIICCCPG@?$FLinstance?$CI?$CFu?0?$CFu?0?$CFu?0?$CFu?0?$CFp?0?$CFsshare@ 000000018005ac20     cap.obj
 0002:00009ce0       ??_C@_0IL@FBEMFEEL@?$FLinstance?$CI?$CFu?0?$CFu?0?$CFu?0?$CFu?0?$CFp?0?$CFsshare@ 000000018005ace0     cap.obj
 0002:00009d70       ??_C@_0HA@LNIOEEDA@?$FLinstance?$CI?$CFu?0?$CFu?0?$CFu?0?$CFu?0?$CFp?0?$CFsshare@ 000000018005ad70     cap.obj
 0002:00009de0       ??_C@_01NOFIACDB@w?$AA@    000000018005ade0     cap.obj
 0002:00009de4       ??_C@_02HDBGODGB@?2?2?$AA@ 000000018005ade4     cap.obj
 0002:00009de8       ??_C@_02MCKKLHBJ@?2?$CC?$AA@ 000000018005ade8     cap.obj
 0002:00009dec       ??_C@_04JNDKKOGL@?$CC?2?$CB?$CC?$AA@ 000000018005adec     cap.obj
 0002:00009df4       ??_C@_02OFJKJO@?2?$GA?$AA@ 000000018005adf4     cap.obj
 0002:00009df8       ??_C@_02JEPABAJP@?2$?$AA@  000000018005adf8     cap.obj
 0002:00009e00       ??_C@_0GJ@BGGJGJBP@?$FLinstance?$CI?$CFu?0?$CFu?0?$CFu?0?$CFu?0?$CFp?0?$CFsshare@ 000000018005ae00     cap.obj
 0002:00009e70       ??_C@_0BJ@HIPJCFGJ@?$CFs?5?9quality?5?$CFu?5?$CC?$CFs?$CC?5?$CC?$CFs?$CC?$AA@ 000000018005ae70     cap.obj
 0002:00009e90       ??_C@_0IF@KGKHDNJL@?$FLinstance?$CI?$CFu?0?$CFu?0?$CFu?0?$CFu?0?$CFp?0?$CFsshare@ 000000018005ae90     cap.obj
 0002:00009f20       ??_C@_0GM@JICEPKMK@?$FLinstance?$CI?$CFu?0?$CFu?0?$CFu?0?$CFu?0?$CFp?0?$CFsshare@ 000000018005af20     cap.obj
 0002:00009f90       ??_C@_0CB@IGJLADBO@?$CFs?5convert?5?9quality?5?$CFu?5?$CC?$CFs?$CC?5?$CC?$CFs?$CC@ 000000018005af90     cap.obj
 0002:00009fc0       ??_C@_0ID@IBABGPPF@?$FLinstance?$CI?$CFu?0?$CFu?0?$CFu?0?$CFu?0?$CFp?0?$CFsshare@ 000000018005afc0     cap.obj
 0002:0000a050       ??_C@_0GE@FGPHOGPK@?$FLinstance?$CI?$CFu?0?$CFu?0?$CFu?0?$CFu?0?$CFp?0?$CFsshare@ 000000018005b050     cap.obj
 0002:0000a0c0       ??_C@_0FI@EKKOEIAB@?$FLinstance?$CI?$CFu?0?$CFu?0?$CFu?0?$CFu?0?$CFp?0?$CFsshare@ 000000018005b0c0     cap.obj
 0002:0000a120       ??_C@_0FM@KEIEIGCF@?$FLinstance?$CI?$CFu?0?$CFu?0?$CFu?0?$CFu?0?$CFp?0?$CFsshare@ 000000018005b120     cap.obj
 0002:0000a180       ??_C@_0FI@MFEBFAIP@?$FLinstance?$CI?$CFu?0?$CFu?0?$CFu?0?$CFu?0?$CFp?0?$CFsshare@ 000000018005b180     cap.obj
 0002:0000a1d8       ??_C@_0CJ@FPBHCJH@unsigned?5fixed?6PIXSIZE?$DN8?5bits?6SC@ 000000018005b1d8     cap.obj
 0002:0000a208       ??_C@_0CA@PIADCKHI@fixed?6PIXSIZE?$DN8?5bits?6SCALE?$DN2?$CK?$CK0?$AA@ 000000018005b208     cap.obj
 0002:0000a228       ??_C@_0CK@PGPEANCM@unsigned?5fixed?6PIXSIZE?$DN16?5bits?6S@ 000000018005b228     cap.obj
 0002:0000a258       ??_C@_0CB@MGLMAAJN@fixed?6PIXSIZE?$DN16?5bits?6SCALE?$DN2?$CK?$CK0@ 000000018005b258     cap.obj
 0002:0000a280       ??_C@_0CK@IJOINMNL@unsigned?5fixed?6PIXSIZE?$DN32?5bits?6S@ 000000018005b280     cap.obj
 0002:0000a2b0       ??_C@_0CB@LJKANBGK@fixed?6PIXSIZE?$DN32?5bits?6SCALE?$DN2?$CK?$CK0@ 000000018005b2b0     cap.obj
 0002:0000a2d8       ??_C@_0BG@KJBNJMDM@float?6PIXSIZE?$DN32?5bits?$AA@ 000000018005b2d8     cap.obj
 0002:0000a2f0       ??_C@_0BG@ICCNKHGC@float?6PIXSIZE?$DN64?5bits?$AA@ 000000018005b2f0     cap.obj
 0002:0000a310       ??_C@_0GE@JLEHBACI@?$FLinstance?$CI?$CFu?0?$CFu?0?$CFu?0?$CFu?0?$CFp?0?$CFsshare@ 000000018005b310     cap.obj
 0002:0000a378       ??_C@_0CP@BHGBAANO@?$CDINRIMAGE?94?$CD?$HL?6XDIM?$DN?$CFu?6YDIM?$DN?$CFu?6ZD@ 000000018005b378     cap.obj
 0002:0000a3a8       ??_C@_04MDFFLOMN@decm?$AA@ 000000018005b3a8     cap.obj
 0002:0000a3b0       ??_C@_0BA@DPPCCCAO@TYPE?$DN?$CFs?6CPU?$DN?$CFs?6?$AA@ 000000018005b3b0     cap.obj
 0002:0000a3c0       ??_C@_0FJ@HONNONBJ@?$FLinstance?$CI?$CFu?0?$CFu?0?$CFu?0?$CFu?0?$CFp?0?$CFsshare@ 000000018005b3c0     cap.obj
 0002:0000a420       ??_C@_0HF@EPCAIHCM@?$FLinstance?$CI?$CFu?0?$CFu?0?$CFu?0?$CFu?0?$CFp?0?$CFsshare@ 000000018005b420     cap.obj
 0002:0000a4a0       ??_C@_0FI@ILJALPNM@?$FLinstance?$CI?$CFu?0?$CFu?0?$CFu?0?$CFu?0?$CFp?0?$CFsshare@ 000000018005b4a0     cap.obj
 0002:0000a500       ??_C@_0HE@PAKLFEBK@?$FLinstance?$CI?$CFu?0?$CFu?0?$CFu?0?$CFu?0?$CFp?0?$CFsshare@ 000000018005b500     cap.obj
 0002:0000a580       ??_C@_0FI@NHNIPII@?$FLinstance?$CI?$CFu?0?$CFu?0?$CFu?0?$CFu?0?$CFp?0?$CFsshare@ 000000018005b580     cap.obj
 0002:0000a5e0       ??_C@_0ID@JHOBFNOP@?$FLinstance?$CI?$CFu?0?$CFu?0?$CFu?0?$CFu?0?$CFp?0?$CFsshare@ 000000018005b5e0     cap.obj
 0002:0000a670       ??_C@_0JF@IEIPEPGA@?$FLinstance?$CI?$CFu?0?$CFu?0?$CFu?0?$CFu?0?$CFp?0?$CFsshare@ 000000018005b670     cap.obj
 0002:0000a708       ??_C@_0P@HPFDELHN@P?$CFc?6?$CFu?5?$CFu?61?40?6?$AA@ 000000018005b708     cap.obj
 0002:0000a720       ??_C@_0FI@LBAKEENF@?$FLinstance?$CI?$CFu?0?$CFu?0?$CFu?0?$CFu?0?$CFp?0?$CFsshare@ 000000018005b720     cap.obj
 0002:0000a780       ??_C@_0II@HJCPHDBH@?$FLinstance?$CI?$CFu?0?$CFu?0?$CFu?0?$CFu?0?$CFp?0?$CFsshare@ 000000018005b780     cap.obj
 0002:0000a808       ??_C@_0BB@GJDIGGEE@P5?6?$CFu?5?$CFu?5?$CFu?6255?6?$AA@ 000000018005b808     cap.obj
 0002:0000a820       ??_C@_0FI@HNNNDOKG@?$FLinstance?$CI?$CFu?0?$CFu?0?$CFu?0?$CFu?0?$CFp?0?$CFsshare@ 000000018005b820     cap.obj
 0002:0000a880       ??_C@_0ID@KFLJONKE@?$FLinstance?$CI?$CFu?0?$CFu?0?$CFu?0?$CFu?0?$CFp?0?$CFsshare@ 000000018005b880     cap.obj
 0002:0000a910       ??_C@_0IP@MGMDALA@?$FLinstance?$CI?$CFu?0?$CFu?0?$CFu?0?$CFu?0?$CFp?0?$CFsshare@ 000000018005b910     cap.obj
 0002:0000a9a0       ??_C@_0IF@BNFNFKFM@?$FLinstance?$CI?$CFu?0?$CFu?0?$CFu?0?$CFu?0?$CFp?0?$CFsshare@ 000000018005b9a0     cap.obj
 0002:0000aa28       ??_C@_0O@EDKIPALC@P?$CFc?6?$CFu?5?$CFu?6?$CFu?6?$AA@ 000000018005ba28     cap.obj
 0002:0000aa40       ??_C@_0FI@PDNFLGHC@?$FLinstance?$CI?$CFu?0?$CFu?0?$CFu?0?$CFu?0?$CFp?0?$CFsshare@ 000000018005ba40     cap.obj
 0002:0000aaa0       ??_C@_0FL@NLCGLEGD@?$FLinstance?$CI?$CFu?0?$CFu?0?$CFu?0?$CFu?0?$CFp?0?$CFsshare@ 000000018005baa0     cap.obj
 0002:0000ab00       ??_C@_0HF@EBJOOABH@?$FLinstance?$CI?$CFu?0?$CFu?0?$CFu?0?$CFu?0?$CFp?0?$CFsshare@ 000000018005bb00     cap.obj
 0002:0000ab80       ??_C@_0FI@GDCLJALO@?$FLinstance?$CI?$CFu?0?$CFu?0?$CFu?0?$CFu?0?$CFp?0?$CFsshare@ 000000018005bb80     cap.obj
 0002:0000abe0       ??_C@_0ID@LPCMHPGK@?$FLinstance?$CI?$CFu?0?$CFu?0?$CFu?0?$CFu?0?$CFp?0?$CFsshare@ 000000018005bbe0     cap.obj
 0002:0000ac70       ??_C@_0IP@CKOOPIGJ@?$FLinstance?$CI?$CFu?0?$CFu?0?$CFu?0?$CFu?0?$CFp?0?$CFsshare@ 000000018005bc70     cap.obj
 0002:0000ad00       ??_C@_0FI@IACCJLMP@?$FLinstance?$CI?$CFu?0?$CFu?0?$CFu?0?$CFu?0?$CFp?0?$CFsshare@ 000000018005bd00     cap.obj
 0002:0000ad60       ??_C@_0IA@EIHJHHPB@?$FLinstance?$CI?$CFu?0?$CFu?0?$CFu?0?$CFu?0?$CFp?0?$CFsshare@ 000000018005bd60     cap.obj
 0002:0000ade0       ??_C@_0ID@IMJNKMGJ@?$FLinstance?$CI?$CFu?0?$CFu?0?$CFu?0?$CFu?0?$CFp?0?$CFsshare@ 000000018005bde0     cap.obj
 0002:0000ae64       ??_C@_01IHBHIGKO@?0?$AA@   000000018005be64     cap.obj
 0002:0000ae68       ??_C@_07MJOLPGMP@?$CF?416g?$CFs?$AA@ 000000018005be68     cap.obj
 0002:0000ae70       ??_C@_0FI@NPBKNINB@?$FLinstance?$CI?$CFu?0?$CFu?0?$CFu?0?$CFu?0?$CFp?0?$CFsshare@ 000000018005be70     cap.obj
 0002:0000aec8       ??_C@_0BC@NIJHAFME@?$CF1023?$FLa?9zA?9Z0?99_?$FN?$AA@ 000000018005bec8     cap.obj
 0002:0000aee0       ??_C@_07LFIJDALL@unnamed?$AA@ 000000018005bee0     cap.obj
 0002:0000aee8       ??_C@_02GACFDCNG@?$HN?$DL?$AA@ 000000018005bee8     cap.obj
 0002:0000aef0       ??_C@_0FB@FOKIPNN@?1?$CK?5Define?5image?5?8?$CFs?8?5of?5size?5?$CFux@ 000000018005bef0     cap.obj
 0002:0000af44       ??_C@_04LDJILNFM@?5?$HN?$DL?6?$AA@ 000000018005bf44     cap.obj
 0002:0000af4c       ??_C@_04PPJIEIMB@?0?6?5?5?$AA@ 000000018005bf4c     cap.obj
 0002:0000af54       ??_C@_02KEGNLNML@?0?5?$AA@ 000000018005bf54     cap.obj
 0002:0000af60       ??_C@_0FK@KBBMCMIL@?$FLinstance?$CI?$CFu?0?$CFu?0?$CFu?0?$CFu?0?$CFp?0?$CFsshare@ 000000018005bf60     cap.obj
 0002:0000afc0       ??_C@_0N@LGALKMIA@?$CFu?5?$CFu?5?$CFu?5?$CFu?6?$AA@ 000000018005bfc0     cap.obj
 0002:0000afd0       ??_C@_06FDKNJNLA@?$CF?416g?5?$AA@ 000000018005bfd0     cap.obj
 0002:0000afe0       ??_C@_0EG@MMNHNNC@?$FLinstance?$CI?$CFu?0?$CFu?0?$CFu?0?$CFu?0?$CFp?0?$CFsshare@ 000000018005bfe0     cap.obj
 0002:0000b028       ??_C@_0BA@JFNIOLAK@string?5too?5long?$AA@ 000000018005c028     cap.obj
 0002:0000b040       ??_C@_0FJ@CLKDAMHA@?$FLinstance?$CI?$CFu?0?$CFu?0?$CFp?$CJ?$FN?5CImgList?$DM?$CFs@ 000000018005c040     cap.obj
 0002:0000b0a0       ??_C@_0L@FLDDCMJB@mpeg2video?$AA@ 000000018005c0a0     cap.obj
 0002:0000b0b0       ??_C@_0GG@FCPHILAA@?$FLinstance?$CI?$CFu?0?$CFu?0?$CFp?$CJ?$FN?5CImgList?$DM?$CFs@ 000000018005c0b0     cap.obj
 0002:0000b118       ??_C@_0O@DDBOCCCI@?$CFs_000001?4ppm?$AA@ 000000018005c118     cap.obj
 0002:0000b128       ??_C@_0M@OMNILJO@?$CFs_?$CF?46u?4ppm?$AA@ 000000018005c128     cap.obj
 0002:0000b140       ??_C@_0EA@HMAEBEAE@?$CC?$CFs?5?9i?5?$CC?$CFs_?$CF?$CF6d?4ppm?$CC?5?9vcodec?5?$CFs?5@ 000000018005c140     cap.obj
 0002:0000b180       ??_C@_0HE@DEEIAJMK@?$FLinstance?$CI?$CFu?0?$CFu?0?$CFp?$CJ?$FN?5CImgList?$DM?$CFs@ 000000018005c180     cap.obj
 0002:0000b200       ??_C@_0EO@NOJGGDDB@?$FLinstance?$CI?$CFu?0?$CFu?0?$CFp?$CJ?$FN?5CImgList?$DM?$CFs@ 000000018005c200     cap.obj
 0002:0000b250       ??_C@_0IO@MKADCNLA@?$FLinstance?$CI?$CFu?0?$CFu?0?$CFp?$CJ?$FN?5CImgList?$DM?$CFs@ 000000018005c250     cap.obj
 0002:0000b2e0       ??_C@_06LADGIEOA@little?$AA@ 000000018005c2e0     cap.obj
 0002:0000b2e8       ??_C@_08CLLOMHGD@unsigned?$AA@ 000000018005c2e8     cap.obj
 0002:0000b2f8       ??_C@_0BK@HANAGAOF@?$CFu?5unsigned_?$CFs?5?$CFs_endian?6?$AA@ 000000018005c2f8     cap.obj
 0002:0000b318       ??_C@_0BB@KPIIJBNK@?$CFu?5?$CFs?5?$CFs_endian?6?$AA@ 000000018005c318     cap.obj
 0002:0000b330       ??_C@_0M@INFEFECB@?$CFu?5?$CFu?5?$CFu?5?$CFu?$AA@ 000000018005c330     cap.obj
 0002:0000b340       ??_C@_0EN@NCCHIAIG@?$FLinstance?$CI?$CFu?0?$CFu?0?$CFp?$CJ?$FN?5CImgList?$DM?$CFs@ 000000018005c340     cap.obj
 0002:0000b390       ??_C@_0GG@GOFPAMFD@?$FLinstance?$CI?$CFu?0?$CFu?0?$CFp?$CJ?$FN?5CImgList?$DM?$CFs@ 000000018005c390     cap.obj
 0002:0000b3f8       ??_C@_0BI@CFPLBAOH@invalid?5string?5position?$AA@ 000000018005c3f8     cap.obj
 0002:0000b410       ??_C@_0FJ@CBNGKBNH@?$FLinstance?$CI?$CFu?0?$CFu?0?$CFu?0?$CFu?0?$CFp?0?$CFsshare@ 000000018005c410     cap.obj
 0002:0000b470       ??_C@_0CO@DKBDEIML@cimg?3?3dialog?$CI?$CJ?3?5No?5buttons?5have?5@ 000000018005c470     cap.obj
 0002:0000b4a0       ??_C@_0FI@MCOOLKIN@?$FLinstance?$CI?$CFu?0?$CFu?0?$CFu?0?$CFu?0?$CFp?0?$CFsshare@ 000000018005c4a0     cap.obj
 0002:0000b500       ??_C@_0FG@IMNKJLNJ@?$FLinstance?$CI?$CFu?0?$CFu?0?$CFu?0?$CFu?0?$CFp?0?$CFsshare@ 000000018005c500     cap.obj
 0002:0000b560       ??_C@_0EJ@LHJLHKGB@?$FLinstance?$CI?$CFu?0?$CFu?0?$CFu?0?$CFu?0?$CFp?0?$CFsshare@ 000000018005c560     cap.obj
 0002:0000b5b0       ??_C@_0EJ@NFOECNDP@?$FLinstance?$CI?$CFu?0?$CFu?0?$CFu?0?$CFu?0?$CFp?0?$CFsshare@ 000000018005c5b0     cap.obj
 0002:0000b600       ??_C@_0EO@EEHBHGIL@cimg?3?3fwrite?$CI?$CJ?3?5Invalid?5writing?5@ 000000018005c600     cap.obj
 0002:0000b650       ??_C@_0DO@DHGGFIIF@cimg?3?3fwrite?$CI?$CJ?3?5Only?5?$CFu?1?$CFu?5eleme@ 000000018005c650     cap.obj
 0002:0000b690       ??_C@_0ID@CGAIHPAO@?$FLinstance?$CI?$CFu?0?$CFu?0?$CFu?0?$CFu?0?$CFp?0?$CFsshare@ 000000018005c690     cap.obj
 0002:0000b720       ??_C@_0GG@IFNNPGGA@?$FLinstance?$CI?$CFu?0?$CFu?0?$CFu?0?$CFu?0?$CFp?0?$CFsshare@ 000000018005c720     cap.obj
 0002:0000b790       ??_C@_0HL@HECNDJDG@?$FLinstance?$CI?$CFu?0?$CFu?0?$CFp?$CJ?$FN?5CImgList?$DM?$CFs@ 000000018005c790     cap.obj
 0002:0000b810       ??_C@_08GDFANMDE@untitled?$AA@ 000000018005c810     cap.obj
 0002:0000b820       ??_C@_0EL@JOAOPFAN@?$FLinstance?$CI?$CFu?0?$CFu?0?$CFu?0?$CFc?$CFs?$CFc?$CJ?$FN?5CImg@ 000000018005c820     cap.obj
 0002:0000b870       ??_C@_0FB@LBAKBEII@?$FLinstance?$CI?$CFu?0?$CFu?0?$CFu?0?$CFu?0?$CFp?0?$CFsshare@ 000000018005c870     cap.obj
 0002:0000b8d0       ??_C@_0FL@JNNLBHHC@?$FLinstance?$CI?$CFu?0?$CFu?0?$CFu?0?$CFu?0?$CFp?0?$CFsshare@ 000000018005c8d0     cap.obj
 0002:0000b930       ??_C@_0FH@CLDHCAPG@?$FLinstance?$CI?$CFu?0?$CFu?0?$CFu?0?$CFu?0?$CFp?0?$CFsshare@ 000000018005c930     cap.obj
 0002:0000b990       ??_C@_0EK@PLHCECDA@?$FLinstance?$CI?$CFu?0?$CFu?0?$CFu?0?$CFc?$CFs?$CFc?$CJ?$FN?5CImg@ 000000018005c990     cap.obj
 0002:0000b9dc       ??_C@_04OBANIIKP@xzyc?$AA@ 000000018005c9dc     cap.obj
 0002:0000b9f0       ??_C@_0IL@PKKAHNID@?$FLinstance?$CI?$CFu?0?$CFu?0?$CFu?0?$CFu?0?$CFp?0?$CFsshare@ 000000018005c9f0     cap.obj
 0002:0000ba80       ??_C@_0EF@BKIFAFKJ@?$FLinstance?$CI?$CFu?0?$CFu?0?$CFu?0?$CFu?0?$CFp?0?$CFsshare@ 000000018005ca80     cap.obj
 0002:0000bac8       ??_C@_04PBPOJJBI@xyzc?$AA@ 000000018005cac8     cap.obj
 0002:0000bad0       ??_C@_04HJAJKIPP@xycz?$AA@ 000000018005cad0     cap.obj
 0002:0000bad8       ??_C@_04EAJBFENC@xzcy?$AA@ 000000018005cad8     cap.obj
 0002:0000bae0       ??_C@_04FHBMDJKC@xcyz?$AA@ 000000018005cae0     cap.obj
 0002:0000bae8       ??_C@_04HOHHNEDI@xczy?$AA@ 000000018005cae8     cap.obj
 0002:0000baf0       ??_C@_04HECCNHMN@yxzc?$AA@ 000000018005caf0     cap.obj
 0002:0000baf8       ??_C@_04PMNFOGCK@yxcz?$AA@ 000000018005caf8     cap.obj
 0002:0000bb00       ??_C@_04NNKPMLCI@yzxc?$AA@ 000000018005cb00     cap.obj
 0002:0000bb08       ??_C@_04GEOKEMCD@yzcx?$AA@ 000000018005cb08     cap.obj
 0002:0000bb10       ??_C@_04GLLOHKCF@ycxz?$AA@ 000000018005cb10     cap.obj
 0002:0000bb18       ??_C@_04FKAMMMMJ@yczx?$AA@ 000000018005cb18     cap.obj
 0002:0000bb20       ??_C@_04DBMEBDEE@zxyc?$AA@ 000000018005cb20     cap.obj
 0002:0000bb28       ??_C@_04JAFIMPDJ@zxcy?$AA@ 000000018005cb28     cap.obj
 0002:0000bb30       ??_C@_04IILKBOBG@zyxc?$AA@ 000000018005cb30     cap.obj
 0002:0000bb38       ??_C@_04DBPPJJBN@zycx?$AA@ 000000018005cb38     cap.obj
 0002:0000bb40       ??_C@_04HDDFDDG@zcxy?$AA@  000000018005cb40     cap.obj
 0002:0000bb48       ??_C@_04BPOKAIEA@zcyx?$AA@ 000000018005cb48     cap.obj
 0002:0000bb50       ??_C@_04MHDEEPKP@cxyz?$AA@ 000000018005cb50     cap.obj
 0002:0000bb58       ??_C@_04OOFPKCDF@cxzy?$AA@ 000000018005cb58     cap.obj
 0002:0000bb60       ??_C@_04HOEKECPN@cyxz?$AA@ 000000018005cb60     cap.obj
 0002:0000bb68       ??_C@_04EPPIPEBB@cyzx?$AA@ 000000018005cb68     cap.obj
 0002:0000bb70       ??_C@_04EHNCLONA@czxy?$AA@ 000000018005cb70     cap.obj
 0002:0000bb78       ??_C@_04FPALOFKG@czyx?$AA@ 000000018005cb78     cap.obj
 0002:0000bb80       ??_C@_0GC@GNHBHFPK@?$FLinstance?$CI?$CFu?0?$CFu?0?$CFu?0?$CFu?0?$CFp?0?$CFsshare@ 000000018005cb80     cap.obj
 0002:0000bbf0       ??_C@_0IM@BPMMPHHD@?$FLinstance?$CI?$CFu?0?$CFu?0?$CFu?0?$CFu?0?$CFp?0?$CFsshare@ 000000018005cbf0     cap.obj
 0002:0000bc80       ??_C@_0JE@PDKCJODM@?$FLinstance?$CI?$CFu?0?$CFu?0?$CFu?0?$CFu?0?$CFp?0?$CFsshare@ 000000018005cc80     cap.obj
 0002:0000bd18       ??_7exception@stdext@@6B@  000000018005cd18     cap.obj
 0002:00021210       __pfnDliNotifyHook2        0000000180072210     win_delay_load_hook.obj
 0002:00021218       ??_7CImgIOException@cimg_library@@6B@ 0000000180072218     cap.obj
 0002:00021218       ??_7CImgException@cimg_library@@6B@ 0000000180072218     cap.obj
 0002:00021218       ??_7CImgArgumentException@cimg_library@@6B@ 0000000180072218     cap.obj
 0002:00021218       ??_7CImgInstanceException@cimg_library@@6B@ 0000000180072218     cap.obj
 0002:00021230       ??_C@_08HCOMDCCD@iojs?4exe?$AA@ 0000000180072230     win_delay_load_hook.obj
 0002:00021240       ??_C@_08JDDNMFDB@node?4exe?$AA@ 0000000180072240     win_delay_load_hook.obj
 0002:0002124c       __real@30800000            000000018007224c     cap.obj
 0002:00021250       __real@35800000            0000000180072250     cap.obj
 0002:00021254       __real@3a800000            0000000180072254     cap.obj
 0002:00021258       __real@3b800000            0000000180072258     cap.obj
 0002:0002125c       __real@3dcccccd            000000018007225c     cap.obj
 0002:00021260       __real@3f000000            0000000180072260     cap.obj
 0002:00021264       __real@3f19999a            0000000180072264     cap.obj
 0002:00021268       __real@3f800000            0000000180072268     cap.obj
 0002:0002126c       __real@3fd8f5c3            000000018007226c     cap.obj
 0002:00021270       __real@3fe0000000000000    0000000180072270     cap.obj
 0002:00021278       __real@3ff0000000000000    0000000180072278     cap.obj
 0002:00021280       __real@40000000            0000000180072280     cap.obj
 0002:00021288       __real@4000000000000000    0000000180072288     cap.obj
 0002:00021290       __real@4020000000000000    0000000180072290     cap.obj
 0002:00021298       __real@4024000000000000    0000000180072298     cap.obj
 0002:000212a0       __real@4028000000000000    00000001800722a0     cap.obj
 0002:000212a8       __real@403e000000000000    00000001800722a8     cap.obj
 0002:000212b0       __real@40400000            00000001800722b0     cap.obj
 0002:000212b4       __real@40490fdb            00000001800722b4     cap.obj
 0002:000212b8       __real@4059000000000000    00000001800722b8     cap.obj
 0002:000212c0       __real@405fc00000000000    00000001800722c0     cap.obj
 0002:000212c8       __real@4060000000000000    00000001800722c8     cap.obj
 0002:000212d0       __real@4070000000000000    00000001800722d0     cap.obj
 0002:000212d8       __real@40800000            00000001800722d8     cap.obj
 0002:000212dc       __real@40a00000            00000001800722dc     cap.obj
 0002:000212e0       __real@40b0000000000000    00000001800722e0     cap.obj
 0002:000212e8       __real@40dfffc000000000    00000001800722e8     cap.obj
 0002:000212f0       __real@40e00000            00000001800722f0     cap.obj
 0002:000212f8       __real@40f0000000000000    00000001800722f8     cap.obj
 0002:00021300       __real@41800000            0000000180072300     cap.obj
 0002:00021304       __real@41900000            0000000180072304     cap.obj
 0002:00021308       __real@41c80000            0000000180072308     cap.obj
 0002:0002130c       __real@42180000            000000018007230c     cap.obj
 0002:00021310       __real@42840000            0000000180072310     cap.obj
 0002:00021314       __real@42940000            0000000180072314     cap.obj
 0002:00021318       __real@42bc0000            0000000180072318     cap.obj
 0002:0002131c       __real@42e00000            000000018007231c     cap.obj
 0002:00021320       __real@43000000            0000000180072320     cap.obj
 0002:00021324       __real@43010000            0000000180072324     cap.obj
 0002:00021328       __real@43140000            0000000180072328     cap.obj
 0002:0002132c       __real@437f0000            000000018007232c     cap.obj
 0002:00021330       __real@7f7fc99e            0000000180072330     cap.obj
 0002:00021334       __real@c0000000            0000000180072334     cap.obj
 0002:00021338       __real@c2c80000            0000000180072338     cap.obj
 0002:0002133c       __real@ff7fc99e            000000018007233c     cap.obj
 0002:00021340       __xmm@7fffffffffffffff7fffffffffffffff 0000000180072340     cap.obj
 0002:00021350       __xmm@80000000800000008000000080000000 0000000180072350     cap.obj
 0002:000217b8       _pDestructExceptionObject  00000001800727b8     libvcruntime:frame.obj
 0002:000217c8       ??_7bad_exception@std@@6B@ 00000001800727c8     libvcruntime:frame.obj
 0002:000217d8       ??_C@_0O@DPKOEFFH@bad?5exception?$AA@ 00000001800727d8     libvcruntime:frame.obj
 0002:00021f50       ??_C@_04LAGPAAHP@sinf?$AA@ 0000000180072f50     libucrt:sincos_special.obj
 0002:00021f58       ??_C@_04OBBKPIAC@cosf?$AA@ 0000000180072f58     libucrt:sincos_special.obj
 0002:00021f60       __Lcosfarray               0000000180072f60     libucrt:lsincosf_array.obj
 0002:00021f90       __Lsinfarray               0000000180072f90     libucrt:lsincosf_array.obj
 0002:00021fb0       __two_to_jby64_table       0000000180072fb0     libucrt:two_to_jby64_table.obj
 0002:000221b0       __two_to_jby64_head_table  00000001800731b0     libucrt:two_to_jby64_head_tail_table.obj
 0002:000223b0       __two_to_jby64_tail_table  00000001800733b0     libucrt:two_to_jby64_head_tail_table.obj
 0002:000225b0       ??_C@_04KBNCNMNN@expf?$AA@ 00000001800735b0     libucrt:exp_special.obj
 0002:000225c0       __log_256_lead             00000001800735c0     libucrt:log_256_lead_tail_table.obj
 0002:00022dd0       __log_256_tail             0000000180073dd0     libucrt:log_256_lead_tail_table.obj
 0002:000235e0       __L_2_by_pi_bits           00000001800745e0     libucrt:l2_by_pi_bits.obj
 0002:00023788       _tls_used                  0000000180074788     LIBCMT:tlssup.obj
 0002:000237b0       ??_R4exception@std@@6B@    00000001800747b0     libcpmt:xthrow.obj
 0002:000237d8       ??_R3exception@std@@8      00000001800747d8     libcpmt:xthrow.obj
 0002:000237f0       ??_R2exception@std@@8      00000001800747f0     libcpmt:xthrow.obj
 0002:00023800       ??_R1A@?0A@EA@exception@std@@8 0000000180074800     libcpmt:xthrow.obj
 0002:00023828       ??_R4bad_alloc@std@@6B@    0000000180074828     libcpmt:xthrow.obj
 0002:00023850       ??_R3bad_alloc@std@@8      0000000180074850     libcpmt:xthrow.obj
 0002:00023868       ??_R2bad_alloc@std@@8      0000000180074868     libcpmt:xthrow.obj
 0002:00023880       ??_R1A@?0A@EA@bad_alloc@std@@8 0000000180074880     libcpmt:xthrow.obj
 0002:000238a8       ??_R4logic_error@std@@6B@  00000001800748a8     libcpmt:xthrow.obj
 0002:000238d0       ??_R3logic_error@std@@8    00000001800748d0     libcpmt:xthrow.obj
 0002:000238e8       ??_R2logic_error@std@@8    00000001800748e8     libcpmt:xthrow.obj
 0002:00023900       ??_R1A@?0A@EA@logic_error@std@@8 0000000180074900     libcpmt:xthrow.obj
 0002:00023928       ??_R4length_error@std@@6B@ 0000000180074928     libcpmt:xthrow.obj
 0002:00023950       ??_R3length_error@std@@8   0000000180074950     libcpmt:xthrow.obj
 0002:00023968       ??_R2length_error@std@@8   0000000180074968     libcpmt:xthrow.obj
 0002:00023988       ??_R1A@?0A@EA@length_error@std@@8 0000000180074988     libcpmt:xthrow.obj
 0002:000239b0       ??_R4out_of_range@std@@6B@ 00000001800749b0     libcpmt:xthrow.obj
 0002:000239d8       ??_R3out_of_range@std@@8   00000001800749d8     libcpmt:xthrow.obj
 0002:000239f0       ??_R2out_of_range@std@@8   00000001800749f0     libcpmt:xthrow.obj
 0002:00023a10       ??_R1A@?0A@EA@out_of_range@std@@8 0000000180074a10     libcpmt:xthrow.obj
 0002:00023a38       ??_R4type_info@@6B@        0000000180074a38     LIBCMT:std_type_info_static.obj
 0002:00023a60       ??_R3type_info@@8          0000000180074a60     LIBCMT:std_type_info_static.obj
 0002:00023a78       ??_R2type_info@@8          0000000180074a78     LIBCMT:std_type_info_static.obj
 0002:00023a88       ??_R1A@?0A@EA@type_info@@8 0000000180074a88     LIBCMT:std_type_info_static.obj
 0002:00023ab0       ??_R4bad_array_new_length@std@@6B@ 0000000180074ab0     LIBCMT:throw_bad_alloc.obj
 0002:00023ad8       ??_R3bad_array_new_length@std@@8 0000000180074ad8     LIBCMT:throw_bad_alloc.obj
 0002:00023af0       ??_R2bad_array_new_length@std@@8 0000000180074af0     LIBCMT:throw_bad_alloc.obj
 0002:00023b10       ??_R1A@?0A@EA@bad_array_new_length@std@@8 0000000180074b10     LIBCMT:throw_bad_alloc.obj
 0002:00023b38       ??_R4bad_exception@std@@6B@ 0000000180074b38     libvcruntime:frame.obj
 0002:00023b60       ??_R3bad_exception@std@@8  0000000180074b60     libvcruntime:frame.obj
 0002:00023b78       ??_R2bad_exception@std@@8  0000000180074b78     libvcruntime:frame.obj
 0002:00023b90       ??_R1A@?0A@EA@bad_exception@std@@8 0000000180074b90     libvcruntime:frame.obj
 0002:00024068       __rtc_iaa                  0000000180075068     LIBCMT:_initsect_.obj
 0002:00024070       __rtc_izz                  0000000180075070     LIBCMT:_initsect_.obj
 0002:00024078       __rtc_taa                  0000000180075078     LIBCMT:_initsect_.obj
 0002:00024080       __rtc_tzz                  0000000180075080     LIBCMT:_initsect_.obj
 0002:00028188       _TI2?AVbad_alloc@std@@     0000000180079188     libcpmt:xthrow.obj
 0002:000281a8       _CTA2?AVbad_alloc@std@@    00000001800791a8     libcpmt:xthrow.obj
 0002:000281c0       _CT??_R0?AVbad_alloc@std@@@8??0bad_alloc@std@@QEAA@AEBV01@@Z24 00000001800791c0     libcpmt:xthrow.obj
 0002:000281e8       _CT??_R0?AVexception@std@@@8??0exception@std@@QEAA@AEBV01@@Z24 00000001800791e8     libcpmt:xthrow.obj
 0002:00028210       _CT??_R0?AVlogic_error@std@@@8??0logic_error@std@@QEAA@AEBV01@@Z24 0000000180079210     libcpmt:xthrow.obj
 0002:00028238       _TI3?AVlength_error@std@@  0000000180079238     libcpmt:xthrow.obj
 0002:00028258       _CTA3?AVlength_error@std@@ 0000000180079258     libcpmt:xthrow.obj
 0002:00028278       _CT??_R0?AVlength_error@std@@@8??0length_error@std@@QEAA@AEBV01@@Z24 0000000180079278     libcpmt:xthrow.obj
 0002:000282a0       _TI3?AVout_of_range@std@@  00000001800792a0     libcpmt:xthrow.obj
 0002:000282c0       _CTA3?AVout_of_range@std@@ 00000001800792c0     libcpmt:xthrow.obj
 0002:000282e0       _CT??_R0?AVout_of_range@std@@@8??0out_of_range@std@@QEAA@AEBV01@@Z24 00000001800792e0     libcpmt:xthrow.obj
 0002:00028308       _TI3?AVbad_array_new_length@std@@ 0000000180079308     LIBCMT:throw_bad_alloc.obj
 0002:00028328       _CTA3?AVbad_array_new_length@std@@ 0000000180079328     LIBCMT:throw_bad_alloc.obj
 0002:00028348       _CT??_R0?AVbad_array_new_length@std@@@8??0bad_array_new_length@std@@QEAA@AEBV01@@Z24 0000000180079348     LIBCMT:throw_bad_alloc.obj
 0002:00028370       _CT??_R0?AUCImgException@cimg_library@@@816400 0000000180079370     cap.obj
 0002:00028398       _CT??_R0?AUCImgIOException@cimg_library@@@816400 0000000180079398     cap.obj
 0002:000283c0       _TI3?AUCImgInstanceException@cimg_library@@ 00000001800793c0     cap.obj
 0002:000283e0       _CT??_R0?AUCImgArgumentException@cimg_library@@@816400 00000001800793e0     cap.obj
 0002:00028408       _TI3?AUCImgIOException@cimg_library@@ 0000000180079408     cap.obj
 0002:00028428       _CTA3?AUCImgIOException@cimg_library@@ 0000000180079428     cap.obj
 0002:00028448       _CTA3?AUCImgArgumentException@cimg_library@@ 0000000180079448     cap.obj
 0002:00028468       _CT??_R0?AUCImgInstanceException@cimg_library@@@816400 0000000180079468     cap.obj
 0002:00028490       _CTA3?AUCImgInstanceException@cimg_library@@ 0000000180079490     cap.obj
 0002:000284b0       _CT??_R0?AVexception@stdext@@@816 00000001800794b0     cap.obj
 0002:000284d8       _TI3?AUCImgArgumentException@cimg_library@@ 00000001800794d8     cap.obj
 0002:000284f8       _TI2?AVbad_exception@std@@ 00000001800794f8     libvcruntime:frame.obj
 0002:00028518       _CTA2?AVbad_exception@std@@ 0000000180079518     libvcruntime:frame.obj
 0002:00028530       _CT??_R0?AVbad_exception@std@@@8??0bad_exception@std@@QEAA@AEBV01@@Z24 0000000180079530     libvcruntime:frame.obj
 0002:00028554       __DELAY_IMPORT_DESCRIPTOR_node_exe 0000000180079554     node:node.exe
 0002:00028574       __NULL_DELAY_IMPORT_DESCRIPTOR 0000000180079574     node:node.exe
 0002:00028600       \177node_NULL_THUNK_DATA_DLN 0000000180079600     node:node.exe
 0002:00028918       \177node_NULL_THUNK_DATA_DLB 0000000180079918     node:node.exe
 0002:000289d4       __IMPORT_DESCRIPTOR_KERNEL32 00000001800799d4     kernel32:KERNEL32.dll
 0002:000289e8       __IMPORT_DESCRIPTOR_USER32 00000001800799e8     user32:USER32.dll
 0002:000289fc       __IMPORT_DESCRIPTOR_GDI32  00000001800799fc     gdi32:GDI32.dll
 0002:00028a10       __IMPORT_DESCRIPTOR_SHELL32 0000000180079a10     shell32:SHELL32.dll
 0002:00028a24       __NULL_IMPORT_DESCRIPTOR   0000000180079a24     kernel32:KERNEL32.dll
 0003:00000000       _Init_global_epoch         000000018007b000     LIBCMT:thread_safe_statics.obj
 0003:00000004       __scrt_native_dllmain_reason 000000018007b004     LIBCMT:utility.obj
 0003:00000008       __security_cookie          000000018007b008     LIBCMT:gs_cookie.obj
 0003:00000010       __security_cookie_complement 000000018007b010     LIBCMT:gs_cookie.obj
 0003:00000018       __isa_available            000000018007b018     LIBCMT:_cpu_disp_.obj
 0003:0000001c       __isa_enabled              000000018007b01c     LIBCMT:_cpu_disp_.obj
 0003:00000020       __memcpy_nt_iters          000000018007b020     LIBCMT:_cpu_disp_.obj
 0003:00000040       _iob                       000000018007b040     libucrt:_file.obj
 0003:00000150       __abort_behavior           000000018007b150     libucrt:abort.obj
 0003:00000160       __badioinfo                000000018007b160     libucrt:ioinit.obj
 0003:000001b0       __acrt_initial_locale_data 000000018007b1b0     libucrt:nlsdata.obj
 0003:00000308       __acrt_initial_locale_pointers 000000018007b308     libucrt:nlsdata.obj
 0003:00000318       __acrt_wide_c_locale_string 000000018007b318     libucrt:nlsdata.obj
 0003:00000320       __acrt_initial_multibyte_data 000000018007b320     libucrt:mbctype.obj
 0003:00000548       __acrt_current_multibyte_data 000000018007b548     libucrt:mbctype.obj
 0003:00000650       _mbctype                   000000018007b650     libucrt:mbctype.obj
 0003:00000760       _mbcasemap                 000000018007b760     libucrt:mbctype.obj
 0003:00000860       __globallocalestatus       000000018007b860     libucrt:glstatus.obj
 0003:00000870       __acrt_lconv_c             000000018007b870     libucrt:localeconv.obj
 0003:00000908       __acrt_lconv_static_decimal 000000018007b908     libucrt:localeconv.obj
 0003:0000090c       __acrt_lconv_static_W_decimal 000000018007b90c     libucrt:localeconv.obj
 0003:00000910       _lookuptrailbytes          000000018007b910     libucrt:read.obj
 0003:00000a10       __dcrt_lowio_console_output_handle 000000018007ba10     libucrt:initcon.obj
 0003:00000a24       _fltused                   000000018007ba24     LIBCMT:fltused.obj
 0003:00000a70       ?hatch@?1???$draw_line@E@?$CImg@E@cimg_library@@QEAAAEAU12@HHHHQEBEMI_N@Z@4IA 000000018007ba70     cap.obj
 0003:00000a74       ?mode@?1??_exception_mode@cimg@cimg_library@@YAAEAII_N@Z@4IA 000000018007ba74     cap.obj
 0003:00000a78       ?first_time@?1??_logo40x38@?$CImg@E@cimg_library@@SA?AU23@XZ@4_NA 000000018007ba78     cap.obj
 0003:00000a80       ??_R0?AVbad_alloc@std@@@8  000000018007ba80     libcpmt:xthrow.obj
 0003:00000aa8       ??_R0?AVexception@std@@@8  000000018007baa8     libcpmt:xthrow.obj
 0003:00000ad0       ??_R0?AVlogic_error@std@@@8 000000018007bad0     libcpmt:xthrow.obj
 0003:00000af8       ??_R0?AVlength_error@std@@@8 000000018007baf8     libcpmt:xthrow.obj
 0003:00000b20       ??_R0?AVout_of_range@std@@@8 000000018007bb20     libcpmt:xthrow.obj
 0003:00000b48       ??_R0?AVtype_info@@@8      000000018007bb48     LIBCMT:std_type_info_static.obj
 0003:00000b68       ??_R0?AVbad_array_new_length@std@@@8 000000018007bb68     LIBCMT:throw_bad_alloc.obj
 0003:00000b98       ??_R0?AVexception@stdext@@@8 000000018007bb98     cap.obj
 0003:00000bc0       ??_R0?AUCImgIOException@cimg_library@@@8 000000018007bbc0     cap.obj
 0003:00000bf8       ??_R0?AUCImgArgumentException@cimg_library@@@8 000000018007bbf8     cap.obj
 0003:00000c38       ??_R0?AUCImgException@cimg_library@@@8 000000018007bc38     cap.obj
 0003:00000c70       ??_R0?AUCImgInstanceException@cimg_library@@@8 000000018007bc70     cap.obj
 0003:00000cb0       ??_R0?AVbad_exception@std@@@8 000000018007bcb0     libvcruntime:frame.obj
 0003:00000cd8       __imp_?GetCurrent@Isolate@v8@@SAPEAV12@XZ 000000018007bcd8     node:node.exe
 0003:00000ce0       __imp_??1HandleScope@v8@@QEAA@XZ 000000018007bce0     node:node.exe
 0003:00000ce8       __imp_??0HandleScope@v8@@QEAA@PEAVIsolate@1@@Z 000000018007bce8     node:node.exe
 0003:00000cf0       __imp_?GetFunction@FunctionTemplate@v8@@QEAA?AV?$Local@VFunction@v8@@@2@XZ 000000018007bcf0     node:node.exe
 0003:00000cf8       __imp_?New@FunctionTemplate@v8@@SA?AV?$Local@VFunctionTemplate@v8@@@2@PEAVIsolate@2@P6AXAEBV?$FunctionCallbackInfo@VValue@v8@@@2@@ZV?$Local@VValue@v8@@@2@V?$Local@VSignature@v8@@@2@H@Z 000000018007bcf8     node:node.exe
 0003:00000d00       __imp_?NewFromUtf8@String@v8@@SA?AV?$Local@VString@v8@@@2@PEAVIsolate@2@PEBDW4NewStringType@12@H@Z 000000018007bd00     node:node.exe
 0003:00000d08       __imp_?Set@Object@v8@@QEAA_NV?$Local@VValue@v8@@@2@0@Z 000000018007bd08     node:node.exe
 0003:00000d10       __imp_?SetName@Function@v8@@QEAAXV?$Local@VString@v8@@@2@@Z 000000018007bd10     node:node.exe
 0003:00000d18       __imp_node_module_register 000000018007bd18     node:node.exe
 0003:00000d20       __imp_?Int32Value@Value@v8@@QEBAHXZ 000000018007bd20     node:node.exe
 0003:00000d28       __imp_??1Utf8Value@String@v8@@QEAA@XZ 000000018007bd28     node:node.exe
 0003:00000d30       __imp_??0Utf8Value@String@v8@@QEAA@V?$Local@VValue@v8@@@2@@Z 000000018007bd30     node:node.exe
 0003:00000d38       __imp_?ToString@Value@v8@@QEBA?AV?$Local@VString@v8@@@2@XZ 000000018007bd38     node:node.exe
 0003:00000d40       \177node_NULL_THUNK_DATA_DLA 000000018007bd40     node:node.exe
 0003:00000d50       __hmod__node_exe           000000018007bd50     node:node.exe
 0003:00001310       __scrt_current_native_startup_state 000000018007c310     LIBCMT:utility.obj
 0003:00001318       __scrt_native_startup_lock 000000018007c318     LIBCMT:utility.obj
 0003:00001358       __scrt_debugger_hook_flag  000000018007c358     LIBCMT:utility_desktop.obj
 0003:0000135c       _tls_index                 000000018007c35c     LIBCMT:tlssup.obj
 0003:00001360       __favor                    000000018007c360     LIBCMT:_cpu_disp_.obj
 0003:00001370       ?__type_info_root_node@@3U__type_info_node@@A 000000018007c370     LIBCMT:tncleanup.obj
 0003:00001498       __pPurecall                000000018007c498     libvcruntime:purevirt_data.obj
 0003:000014a0       ?pArgList@UnDecorator@@0PEAVReplicator@@EA 000000018007c4a0     libvcruntime:undname.obj
 0003:000014a8       ?pZNameList@UnDecorator@@0PEAVReplicator@@EA 000000018007c4a8     libvcruntime:undname.obj
 0003:000014b0       ?pTemplateArgList@UnDecorator@@0PEAVReplicator@@EA 000000018007c4b0     libvcruntime:undname.obj
 0003:000014b8       ?gName@UnDecorator@@0PEBDEB 000000018007c4b8     libvcruntime:undname.obj
 0003:000014c0       ?name@UnDecorator@@0PEBDEB 000000018007c4c0     libvcruntime:undname.obj
 0003:000014c8       ?outputString@UnDecorator@@0PEADEA 000000018007c4c8     libvcruntime:undname.obj
 0003:000014d0       ?maxStringLength@UnDecorator@@0HA 000000018007c4d0     libvcruntime:undname.obj
 0003:000014d4       ?disableFlags@UnDecorator@@0KA 000000018007c4d4     libvcruntime:undname.obj
 0003:000014d8       ?fExplicitTemplateParams@UnDecorator@@0_NA 000000018007c4d8     libvcruntime:undname.obj
 0003:000014d9       ?fGetTemplateArgumentList@UnDecorator@@0_NA 000000018007c4d9     libvcruntime:undname.obj
 0003:000014e0       ?m_pGetParameter@UnDecorator@@0P6APEADJ@ZEA 000000018007c4e0     libvcruntime:undname.obj
 0003:00001510       _nstream                   000000018007c510     libucrt:_file.obj
 0003:00001518       __piob                     000000018007c518     libucrt:_file.obj
 0003:00001520       _cflush                    000000018007c520     libucrt:_file.obj
 0003:00001658       _environ_table             000000018007c658     libucrt:environment_initialization.obj
 0003:00001660       _wenviron_table            000000018007c660     libucrt:environment_initialization.obj
 0003:00001668       __dcrt_initial_wide_environment 000000018007c668     libucrt:environment_initialization.obj
 0003:00001670       __dcrt_initial_narrow_environment 000000018007c670     libucrt:environment_initialization.obj
 0003:00001678       __acrt_atexit_table        000000018007c678     libucrt:onexit.obj
 0003:00001690       __acrt_at_quick_exit_table 000000018007c690     libucrt:onexit.obj
 0003:000016b0       __pioinfo                  000000018007c6b0     libucrt:ioinit.obj
 0003:00001ab0       _nhandle                   000000018007cab0     libucrt:ioinit.obj
 0003:00001c70       __acrt_stdout_buffer       000000018007cc70     libucrt:_sftbuf.obj
 0003:00001c78       __acrt_stderr_buffer       000000018007cc78     libucrt:_sftbuf.obj
 0003:00001c80       __acrt_locale_changed_data 000000018007cc80     libucrt:wsetlocale.obj
 0003:00001c88       __acrt_current_locale_data 000000018007cc88     libucrt:nlsdata.obj
 0003:00001c90       _fmode                     000000018007cc90     libucrt:txtmode.obj
 0003:00001eac       __mbcodepage               000000018007ceac     libucrt:mbctype.obj
 0003:00001eb0       __ismbcodepage             000000018007ceb0     libucrt:mbctype.obj
 0003:00001eb8       __mbulinfo                 000000018007ceb8     libucrt:mbctype.obj
 0003:00001ec8       __mblocalename             000000018007cec8     libucrt:mbctype.obj
 0003:00001ed4       __argc                     000000018007ced4     libucrt:argv_data.obj
 0003:00001ed8       __argv                     000000018007ced8     libucrt:argv_data.obj
 0003:00001ee0       __wargv                    000000018007cee0     libucrt:argv_data.obj
 0003:00001ee8       _acmdln                    000000018007cee8     libucrt:argv_data.obj
 0003:00001ef0       _wcmdln                    000000018007cef0     libucrt:argv_data.obj
 0003:00001ef8       _pgmptr                    000000018007cef8     libucrt:argv_data.obj
 0003:00001f00       __acrt_heap                000000018007cf00     libucrt:heap_handle.obj
 0003:00001f34       _commode                   000000018007cf34     libucrt:ncommode.obj
 0003:00001f38       __acrt_lconv_static_null   000000018007cf38     libucrt:localeconv.obj
 0003:00001f3c       __acrt_lconv_static_W_null 000000018007cf3c     libucrt:localeconv.obj
 0003:00001f44       _umaskval                  000000018007cf44     libucrt:umask.obj
 0003:00001f48       __fma3_is_available        000000018007cf48     libucrt:fma3_available.obj
 0003:00001f4c       __use_fma3_lib             000000018007cf4c     libucrt:fma3_available.obj
 0003:00001f50       ?DloadKernel32@@3PEAUHINSTANCE__@@EA 000000018007cf50     DelayImp:delayhlp.obj
 0003:00001f58       ?DloadAcquireSRWLockExclusive@@3P6AXPEA_K@ZEA 000000018007cf58     DelayImp:delayhlp.obj
 0003:00001f60       ?DloadReleaseSRWLockExclusive@@3P6AXPEA_K@ZEA 000000018007cf60     DelayImp:delayhlp.obj
 0003:00001f68       ?DloadSrwLock@@3_KA        000000018007cf68     DelayImp:delayhlp.obj
 0003:00001f70       ?DloadSectionLockCount@@3KA 000000018007cf70     DelayImp:delayhlp.obj
 0003:00001f74       ?DloadSectionOldProtection@@3KA 000000018007cf74     DelayImp:delayhlp.obj
 0003:00001f78       ?DloadSectionCommitPermanent@@3KA 000000018007cf78     DelayImp:delayhlp.obj
 0003:00001f80       ?st_path@?1??imagemagick_path@cimg@cimg_library@@YAPEBDQEBD_N@Z@4PEADEA 000000018007cf80     cap.obj
 0003:00001f88       ?randomid@?1??filenamerand@cimg@cimg_library@@YAPEBDXZ@4PADA 000000018007cf88     cap.obj
 0003:00001f98       ?st_path@?1??ffmpeg_path@cimg@cimg_library@@YAPEBDQEBD_N@Z@4PEADEA 000000018007cf98     cap.obj
 0003:00001fa0       ?st_path@?1??medcon_path@cimg@cimg_library@@YAPEBDQEBD_N@Z@4PEADEA 000000018007cfa0     cap.obj
 0003:00001fa8       ?st_path@?1??graphicsmagick_path@cimg@cimg_library@@YAPEBDQEBD_N@Z@4PEADEA 000000018007cfa8     cap.obj
 0003:00001fb0       ?res@?1??strbuffersize@cimg@cimg_library@@YAPEBDK@Z@4PADA 000000018007cfb0     cap.obj
 0003:000020b0       ?st_path@?1??programfiles_path@cimg@cimg_library@@YAPEBDQEBD_N@Z@4PEADEA 000000018007d0b0     cap.obj
 0003:000020b8       ?st_path@?1??temporary_path@cimg@cimg_library@@YAPEBDQEBD_N@Z@4PEADEA 000000018007d0b8     cap.obj
 0003:000020c0       ?st_path@?1??gzip_path@cimg@cimg_library@@YAPEBDQEBD_N@Z@4PEADEA 000000018007d0c0     cap.obj
 0003:000020d0       ?height@img_obj@@3HA       000000018007d0d0     cap.obj
 0003:000020d4       ?count@img_obj@@3HA        000000018007d0d4     cap.obj
 0003:000020d8       ?offset@img_obj@@3HA       000000018007d0d8     cap.obj
 0003:000020dc       ?quality@img_obj@@3HA      000000018007d0dc     cap.obj
 0003:000020e0       ?width@img_obj@@3HA        000000018007d0e0     cap.obj
 0003:000020e4       ?isjpeg@img_obj@@3HA       000000018007d0e4     cap.obj
 0003:000020e8       ?fontSize@img_obj@@3HA     000000018007d0e8     cap.obj
 0003:000020f0       ?text@img_obj@@3V?$basic_string@DU?$char_traits@D@std@@V?$allocator@D@2@@std@@A 000000018007d0f0     cap.obj
 0003:00002110       ?filename@img_obj@@3V?$basic_string@DU?$char_traits@D@std@@V?$allocator@D@2@@std@@A 000000018007d110     cap.obj
 0003:00002130       ?res@?1??output@cimg@cimg_library@@YAPEAU_iobuf@@PEAU4@@Z@4PEAU4@EA 000000018007d130     cap.obj
 0003:00002138       ?$TSS3@?1??font@?$CImgList@M@cimg_library@@SAAEBU23@I_N@Z@4HA 000000018007d138     cap.obj
 0003:00002140       ?_OptionsStorage@?1??__local_stdio_scanf_options@@9@4_KA 000000018007d140     cap.obj
 0003:00002150       ?res@?1??_logo40x38@?$CImg@E@cimg_library@@SA?AU23@XZ@4U23@A 000000018007d150     cap.obj
 0003:00002170       ?val@?1??Win32_attr@cimg@cimg_library@@YAAEAUWin32_info@23@XZ@4U423@A 000000018007d170     cap.obj
 0003:00002178       ?$TSS1@?1??font@?$CImgList@M@cimg_library@@SAAEBU23@I_N@Z@4HA 000000018007d178     cap.obj
 0003:00002180       ?_empty@?1??empty@?$CImgList@M@cimg_library@@SAAEAU23@XZ@4U23@A 000000018007d180     cap.obj
 0003:00002190       ?$TSS0@?1???$draw_text@EE@?$CImg@E@cimg_library@@QEAAAEAU12@HHQEBDQEBE1MIZZ@4HA 000000018007d190     cap.obj
 0003:00002198       ?font@?1??0?$CImgList@M@cimg_library@@SAAEBU12@I_N@Z@4U12@A 000000018007d198     cap.obj
 0003:000021a8       ?cvfont@?1??font@?$CImgList@M@cimg_library@@SAAEBU23@I_N@Z@4U23@A 000000018007d1a8     cap.obj
 0003:000021b8       ?vfont@?1??font@?$CImgList@M@cimg_library@@SAAEBU23@I_N@Z@4U23@A 000000018007d1b8     cap.obj
 0003:000021c8       ?_OptionsStorage@?1??__local_stdio_printf_options@@9@4_KA 000000018007d1c8     cap.obj
 0003:000021d0       ?$TSS0@?1??empty@?$CImgList@M@cimg_library@@SAAEAU23@XZ@4HA 000000018007d1d0     cap.obj
 0003:000021d8       ?font@?1???$draw_text@EE@?$CImg@E@cimg_library@@QEAAAEAU12@HHQEBDQEBE1MIZZ@4U?$CImgList@M@2@A 000000018007d1d8     cap.obj
 0003:000021e8       ?$TSS0@?1??Win32_attr@cimg@cimg_library@@YAAEAUWin32_info@23@XZ@4HA 000000018007d1e8     cap.obj
 0003:000021ec       ?$TSS2@?1??font@?$CImgList@M@cimg_library@@SAAEBU23@I_N@Z@4HA 000000018007d1ec     cap.obj
 0003:000021f0       ?$TSS0@?1??output@cimg@cimg_library@@YAPEAU_iobuf@@PEAU4@@Z@4HA 000000018007d1f0     cap.obj
 0003:000021f4       ?$TSS0@?1??font@?$CImgList@M@cimg_library@@SAAEBU23@I_N@Z@4HA 000000018007d1f4     cap.obj
 0003:000021f8       ?cfont@?1??font@?$CImgList@M@cimg_library@@SAAEBU23@I_N@Z@4U23@A 000000018007d1f8     cap.obj
 0003:00002208       ?$TSS0@?1??_logo40x38@?$CImg@E@cimg_library@@SA?AU23@XZ@4HA 000000018007d208     cap.obj
 0003:00002210       ?g_OutOfMemoryExceptionCallback@@3P6APEAXXZEA 000000018007d210     libvcruntime:frame.obj
 0003:00002218       __dyn_tls_init_callback    000000018007d218     <common>
 0003:00002220       __scrt_ucrt_dll_is_in_use  000000018007d220     <common>
 0006:00000000       _tls_start                 0000000180083000     LIBCMT:tlssup.obj
 0006:00000004       _Init_thread_epoch         0000000180083004     LIBCMT:thread_safe_statics.obj
 0006:00000008       _tls_end                   0000000180083008     LIBCMT:tlssup.obj

 entry point at        0001:00031084

 Static symbols

 0000:fff7a000       .debug$S                   0000000180000000     kernel32:KERNEL32.dll
 0000:fff7a000       .debug$S                   0000000180000000     kernel32:KERNEL32.dll
 0000:fff7a000       .debug$S                   0000000180000000     kernel32:KERNEL32.dll
 0000:fff7a000       .debug$S                   0000000180000000     kernel32:KERNEL32.dll
 0000:fff7a000       .debug$S                   0000000180000000     kernel32:KERNEL32.dll
 0000:fff7a000       .debug$S                   0000000180000000     kernel32:KERNEL32.dll
 0000:fff7a000       .debug$S                   0000000180000000     kernel32:KERNEL32.dll
 0000:fff7a000       .debug$S                   0000000180000000     kernel32:KERNEL32.dll
 0000:fff7a000       .debug$S                   0000000180000000     kernel32:KERNEL32.dll
 0000:fff7a000       .debug$S                   0000000180000000     kernel32:KERNEL32.dll
 0000:fff7a000       .debug$S                   0000000180000000     kernel32:KERNEL32.dll
 0000:fff7a000       .debug$S                   0000000180000000     kernel32:KERNEL32.dll
 0000:fff7a000       .debug$S                   0000000180000000     kernel32:KERNEL32.dll
 0000:fff7a000       .debug$S                   0000000180000000     kernel32:KERNEL32.dll
 0000:fff7a000       .debug$S                   0000000180000000     kernel32:KERNEL32.dll
 0000:fff7a000       .debug$S                   0000000180000000     kernel32:KERNEL32.dll
 0000:fff7a000       .debug$S                   0000000180000000     kernel32:KERNEL32.dll
 0000:fff7a000       .debug$S                   0000000180000000     kernel32:KERNEL32.dll
 0000:fff7a000       .debug$S                   0000000180000000     kernel32:KERNEL32.dll
 0000:fff7a000       .debug$S                   0000000180000000     kernel32:KERNEL32.dll
 0000:fff7a000       .debug$S                   0000000180000000     kernel32:KERNEL32.dll
 0000:fff7a000       .debug$S                   0000000180000000     kernel32:KERNEL32.dll
 0000:fff7a000       .debug$S                   0000000180000000     kernel32:KERNEL32.dll
 0000:fff7a000       .debug$S                   0000000180000000     kernel32:KERNEL32.dll
 0000:fff7a000       .debug$S                   0000000180000000     kernel32:KERNEL32.dll
 0000:fff7a000       .debug$S                   0000000180000000     kernel32:KERNEL32.dll
 0000:fff7a000       .debug$S                   0000000180000000     kernel32:KERNEL32.dll
 0000:fff7a000       .debug$S                   0000000180000000     kernel32:KERNEL32.dll
 0000:fff7a000       .debug$S                   0000000180000000     kernel32:KERNEL32.dll
 0000:fff7a000       .debug$S                   0000000180000000     kernel32:KERNEL32.dll
 0000:fff7a000       .debug$S                   0000000180000000     kernel32:KERNEL32.dll
 0000:fff7a000       .debug$S                   0000000180000000     kernel32:KERNEL32.dll
 0000:fff7a000       .debug$S                   0000000180000000     kernel32:KERNEL32.dll
 0000:fff7a000       .debug$S                   0000000180000000     kernel32:KERNEL32.dll
 0000:fff7a000       .debug$S                   0000000180000000     kernel32:KERNEL32.dll
 0000:fff7a000       .debug$S                   0000000180000000     kernel32:KERNEL32.dll
 0000:fff7a000       .debug$S                   0000000180000000     kernel32:KERNEL32.dll
 0000:fff7a000       .debug$S                   0000000180000000     kernel32:KERNEL32.dll
 0000:fff7a000       .debug$S                   0000000180000000     kernel32:KERNEL32.dll
 0000:fff7a000       .debug$S                   0000000180000000     kernel32:KERNEL32.dll
 0000:fff7a000       .debug$S                   0000000180000000     kernel32:KERNEL32.dll
 0000:fff7a000       .debug$S                   0000000180000000     kernel32:KERNEL32.dll
 0000:fff7a000       .debug$S                   0000000180000000     kernel32:KERNEL32.dll
 0000:fff7a000       .debug$S                   0000000180000000     kernel32:KERNEL32.dll
 0000:fff7a000       .debug$S                   0000000180000000     kernel32:KERNEL32.dll
 0000:fff7a000       .debug$S                   0000000180000000     kernel32:KERNEL32.dll
 0000:fff7a000       .debug$S                   0000000180000000     kernel32:KERNEL32.dll
 0000:fff7a000       .debug$S                   0000000180000000     kernel32:KERNEL32.dll
 0000:fff7a000       .debug$S                   0000000180000000     kernel32:KERNEL32.dll
 0000:fff7a000       .debug$S                   0000000180000000     kernel32:KERNEL32.dll
 0000:fff7a000       .debug$S                   0000000180000000     kernel32:KERNEL32.dll
 0000:fff7a000       .debug$S                   0000000180000000     kernel32:KERNEL32.dll
 0000:fff7a000       .debug$S                   0000000180000000     kernel32:KERNEL32.dll
 0000:fff7a000       .debug$S                   0000000180000000     kernel32:KERNEL32.dll
 0000:fff7a000       .debug$S                   0000000180000000     kernel32:KERNEL32.dll
 0000:fff7a000       .debug$S                   0000000180000000     kernel32:KERNEL32.dll
 0000:fff7a000       .debug$S                   0000000180000000     kernel32:KERNEL32.dll
 0000:fff7a000       .debug$S                   0000000180000000     user32:USER32.dll
 0000:fff7a000       .debug$S                   0000000180000000     user32:USER32.dll
 0000:fff7a000       .debug$S                   0000000180000000     user32:USER32.dll
 0000:fff7a000       .debug$S                   0000000180000000     user32:USER32.dll
 0000:fff7a000       .debug$S                   0000000180000000     user32:USER32.dll
 0000:fff7a000       .debug$S                   0000000180000000     user32:USER32.dll
 0000:fff7a000       .debug$S                   0000000180000000     user32:USER32.dll
 0000:fff7a000       .debug$S                   0000000180000000     user32:USER32.dll
 0000:fff7a000       .debug$S                   0000000180000000     user32:USER32.dll
 0000:fff7a000       .debug$S                   0000000180000000     user32:USER32.dll
 0000:fff7a000       .debug$S                   0000000180000000     kernel32:KERNEL32.dll
 0000:fff7a000       .debug$S                   0000000180000000     user32:USER32.dll
 0000:fff7a000       .debug$S                   0000000180000000     user32:USER32.dll
 0000:fff7a000       .debug$S                   0000000180000000     user32:USER32.dll
 0000:fff7a000       .debug$S                   0000000180000000     user32:USER32.dll
 0000:fff7a000       .debug$S                   0000000180000000     user32:USER32.dll
 0000:fff7a000       .debug$S                   0000000180000000     user32:USER32.dll
 0000:fff7a000       .debug$S                   0000000180000000     kernel32:KERNEL32.dll
 0000:fff7a000       .debug$S                   0000000180000000     kernel32:KERNEL32.dll
 0000:fff7a000       .debug$S                   0000000180000000     kernel32:KERNEL32.dll
 0000:fff7a000       .debug$S                   0000000180000000     kernel32:KERNEL32.dll
 0000:fff7a000       .debug$S                   0000000180000000     user32:USER32.dll
 0000:fff7a000       .debug$S                   0000000180000000     user32:USER32.dll
 0000:fff7a000       .debug$S                   0000000180000000     gdi32:GDI32.dll
 0000:fff7a000       .debug$S                   0000000180000000     kernel32:KERNEL32.dll
 0000:fff7a000       .debug$S                   0000000180000000     kernel32:KERNEL32.dll
 0000:fff7a000       .debug$S                   0000000180000000     kernel32:KERNEL32.dll
 0000:fff7a000       .debug$S                   0000000180000000     shell32:SHELL32.dll
 0000:fff7a000       .debug$S                   0000000180000000     kernel32:KERNEL32.dll
 0000:fff7a000       .debug$S                   0000000180000000     kernel32:KERNEL32.dll
 0000:fff7a000       .debug$S                   0000000180000000     kernel32:KERNEL32.dll
 0000:fff7a000       .debug$S                   0000000180000000     kernel32:KERNEL32.dll
 0000:fff7a000       .debug$S                   0000000180000000     kernel32:KERNEL32.dll
 0000:fff7a000       .debug$S                   0000000180000000     kernel32:KERNEL32.dll
 0000:fff7a000       .debug$S                   0000000180000000     kernel32:KERNEL32.dll
 0000:fff7a000       .debug$S                   0000000180000000     kernel32:KERNEL32.dll
 0000:fff7a000       .debug$S                   0000000180000000     kernel32:KERNEL32.dll
 0000:fff7a000       .debug$S                   0000000180000000     kernel32:KERNEL32.dll
 0000:fff7a000       .debug$S                   0000000180000000     kernel32:KERNEL32.dll
 0000:fff7a000       .debug$S                   0000000180000000     kernel32:KERNEL32.dll
 0000:fff7a000       .debug$S                   0000000180000000     kernel32:KERNEL32.dll
 0000:fff7a000       .debug$S                   0000000180000000     kernel32:KERNEL32.dll
 0000:fff7a000       .debug$S                   0000000180000000     kernel32:KERNEL32.dll
 0000:fff7a000       .debug$S                   0000000180000000     kernel32:KERNEL32.dll
 0000:fff7a000       .debug$S                   0000000180000000     kernel32:KERNEL32.dll
 0000:fff7a000       .debug$S                   0000000180000000     kernel32:KERNEL32.dll
 0000:fff7a000       .debug$S                   0000000180000000     kernel32:KERNEL32.dll
 0000:fff7a000       .debug$S                   0000000180000000     kernel32:KERNEL32.dll
 0000:fff7a000       .debug$S                   0000000180000000     kernel32:KERNEL32.dll
 0000:fff7a000       .debug$S                   0000000180000000     kernel32:KERNEL32.dll
 0000:fff7a000       .debug$S                   0000000180000000     node:node.exe
 0000:fff7a000       .debug$S                   0000000180000000     kernel32:KERNEL32.dll
 0000:fff7a000       .debug$S                   0000000180000000     node:node.exe
 0000:fff7a000       .debug$S                   0000000180000000     kernel32:KERNEL32.dll
 0000:fff7a000       .debug$S                   0000000180000000     kernel32:KERNEL32.dll
 0000:fff7a000       .debug$S                   0000000180000000     kernel32:KERNEL32.dll
 0000:fff7a000       .debug$S                   0000000180000000     kernel32:KERNEL32.dll
 0000:fff7a000       .debug$S                   0000000180000000     kernel32:KERNEL32.dll
 0000:fff7a000       .debug$S                   0000000180000000     hcaptha.exp
 0000:fff7a000       .debug$S                   0000000180000000     node:node.exe
 0000:fff7a000       .debug$S                   0000000180000000     node:node.exe
 0000:fff7a000       .debug$S                   0000000180000000     kernel32:KERNEL32.dll
 0000:fff7a000       .debug$S                   0000000180000000     kernel32:KERNEL32.dll
 0000:fff7a000       .debug$S                   0000000180000000     kernel32:KERNEL32.dll
 0000:fff7a000       .debug$S                   0000000180000000     kernel32:KERNEL32.dll
 0000:fff7a000       .debug$S                   0000000180000000     kernel32:KERNEL32.dll
 0000:fff7a000       .debug$S                   0000000180000000     kernel32:KERNEL32.dll
 0000:fff7a000       .debug$S                   0000000180000000     kernel32:KERNEL32.dll
 0000:fff7a000       .debug$S                   0000000180000000     node:node.exe
 0000:fff7a000       .debug$S                   0000000180000000     kernel32:KERNEL32.dll
 0000:fff7a000       .debug$S                   0000000180000000     node:node.exe
 0000:fff7a000       .debug$S                   0000000180000000     kernel32:KERNEL32.dll
 0000:fff7a000       .debug$S                   0000000180000000     kernel32:KERNEL32.dll
 0000:fff7a000       .debug$S                   0000000180000000     node:node.exe
 0000:fff7a000       .debug$S                   0000000180000000     node:node.exe
 0000:fff7a000       .debug$S                   0000000180000000     node:node.exe
 0000:fff7a000       .debug$S                   0000000180000000     kernel32:KERNEL32.dll
 0000:fff7a000       .debug$S                   0000000180000000     node:node.exe
 0000:fff7a000       .debug$S                   0000000180000000     node:node.exe
 0000:fff7a000       .debug$S                   0000000180000000     node:node.exe
 0000:fff7a000       .debug$S                   0000000180000000     kernel32:KERNEL32.dll
 0000:fff7a000       .debug$S                   0000000180000000     node:node.exe
 0000:fff7a000       .debug$S                   0000000180000000     node:node.exe
 0000:fff7a000       .debug$S                   0000000180000000     kernel32:KERNEL32.dll
 0000:fff7a000       .debug$S                   0000000180000000     kernel32:KERNEL32.dll
 0000:fff7a000       .debug$S                   0000000180000000     kernel32:KERNEL32.dll
 0000:fff7a000       .debug$S                   0000000180000000     kernel32:KERNEL32.dll
 0000:fff7a000       .debug$S                   0000000180000000     kernel32:KERNEL32.dll
 0000:fff7a000       .debug$S                   0000000180000000     kernel32:KERNEL32.dll
 0000:fff7a000       .debug$S                   0000000180000000     kernel32:KERNEL32.dll
 0000:fff7a000       .debug$S                   0000000180000000     kernel32:KERNEL32.dll
 0001:00000000       ??__Etext@img_obj@@YAXXZ   0000000180001000 f   cap.obj
 0001:00000040       ??__Efilename@img_obj@@YAXXZ 0000000180001040 f   cap.obj
 0001:00000150       _register_hcaptha          0000000180001150 f   hcaptha.obj
 0001:000046d0       $LN328                     00000001800056d0     cap.obj
 0001:000046f0       $LN327                     00000001800056f0     cap.obj
 0001:000047f0       $LN326                     00000001800057f0     cap.obj
 0001:00004814       $LN325                     0000000180005814     cap.obj
 0001:0000f944       $LN2268                    0000000180010944     cap.obj
 0001:0001f654       $LN651                     0000000180020654     cap.obj
 0001:0001f668       $LN650                     0000000180020668     cap.obj
 0001:0002a1c0       $LN2138                    000000018002b1c0     cap.obj
 0001:0002fef0       ?load_exe_hook@@YAP6A_JXZIPEAUDelayLoadInfo@@@Z 0000000180030ef0 f   win_delay_load_hook.obj
 0001:00030300       $$000000                   0000000180031300     LIBCMT:_amdsecgs_.obj
 0001:0003033c       ?__scrt_initialize_thread_safe_statics@@YAHXZ 000000018003133c f   LIBCMT:thread_safe_statics.obj
 0001:0003045c       ?__scrt_uninitialize_thread_safe_statics@@YAXXZ 000000018003145c f   LIBCMT:thread_safe_statics.obj
 0001:000307f8       capture_current_context    00000001800317f8 f   LIBCMT:gs_report.obj
 0001:00030868       capture_previous_context   0000000180031868 f   LIBCMT:gs_report.obj
 0001:00030d38       ?dllmain_crt_dispatch@@YAHQEAUHINSTANCE__@@KQEAX@Z 0000000180031d38 f   LIBCMT:dll_dllmain.obj
 0001:00030d88       ?dllmain_crt_process_attach@@YAHQEAUHINSTANCE__@@QEAX@Z 0000000180031d88 f   LIBCMT:dll_dllmain.obj
 0001:00030eb4       ?dllmain_crt_process_detach@@YAH_N@Z 0000000180031eb4 f   LIBCMT:dll_dllmain.obj
 0001:00030f38       ?dllmain_dispatch@@YAHQEAUHINSTANCE__@@KQEAX@Z 0000000180031f38 f   LIBCMT:dll_dllmain.obj
 0001:00031030       ?dllmain_raw@@YAHQEAUHINSTANCE__@@KQEAX@Z 0000000180032030 f   LIBCMT:dll_dllmain.obj
 0001:00031620       $$000000                   0000000180032620     libvcruntime:memcpy.obj
 0001:000316c7       MoveSmall                  00000001800326c7     libvcruntime:memcpy.obj
 0001:00031e78       ?try_get_function@@YAPEAXW4function_id@?A0x679b24ab@@QEBDQEBW4module_id@2@2@Z 0000000180032e78 f   libvcruntime:winapi_downlevel.obj
 0001:00032530       $$000000                   0000000180033530     libvcruntime:memset.obj
 0001:0003261c       MsetTab                    000000018003361c     libvcruntime:memset.obj
 0001:00032980       $$000000                   0000000180033980     libvcruntime:_jmpuwind_.obj
 0001:00032b70       ??$common_fsopen@D@@YAPEAU_iobuf@@QEBD0H@Z 0000000180033b70 f   libucrt:fopen.obj
 0001:00033378       ??R<lambda_0a64b6a4deda75c01876f29c44fc5eb3>@@QEBAHXZ 0000000180034378 f   libucrt:output.obj
 0001:000353c0       $$000000                   00000001800363c0     libucrt:strncpy.obj
 0001:000356bc       ??R<lambda_532e024f4337e6fc7ad266c2bef9f4ed>@@QEBA_KXZ 00000001800366bc f   libucrt:fwrite.obj
 0001:00037454       ??R<lambda_d101c2b4ad3778eb23b701cc8964de65>@@QEBA_NXZ 0000000180038454 f   libucrt:input.obj
 0001:00037454       ??R<lambda_5b936a367a2157d8f8fe79b470b291e7>@@QEBA_NXZ 0000000180038454 f   libucrt:input.obj
 0001:00037454       ??R<lambda_5ffa2d601484df6a17cc9a350962665c>@@QEBA_NXZ 0000000180038454 f   libucrt:input.obj
 0001:0003aca8       memcpy_s                   000000018003bca8 f   libucrt:cfout.obj
 0001:0003aca8       memcpy_s                   000000018003bca8 f   libucrt:input.obj
 0001:0003afd4       ??$common_dupenv_s@D@@YAHQEAPEADQEA_KQEBDH2H@Z 000000018003bfd4 f   libucrt:getenv.obj
 0001:0003b0d8       ??$common_getenv@D@@YAPEADQEBD@Z 000000018003c0d8 f   libucrt:getenv.obj
 0001:0003b144       ??$common_getenv_nolock@D@@YAPEADQEBD@Z 000000018003c144 f   libucrt:getenv.obj
 0001:0003b554       ?atexit_exception_filter@@YAHK@Z 000000018003c554 f   libucrt:exit.obj
 0001:0003b560       ?common_exit@@YAXHW4_crt_exit_cleanup_mode@@W4_crt_exit_return_mode@@@Z 000000018003c560 f   libucrt:exit.obj
 0001:0003b6cc       ?exit_or_terminate_process@@YAXI@Z 000000018003c6cc f   libucrt:exit.obj
 0001:0003b718       ?try_cor_exit_process@@YAXI@Z 000000018003c718 f   libucrt:exit.obj
 0001:0003b7b0       ??$parse_command_line@D@@YAXPEADPEAPEAD0PEA_K2@Z 000000018003c7b0 f   libucrt:argv_parsing.obj
 0001:0003bb48       ??$common_get_or_create_environment_nolock@D@@YAPEAPEADXZ 000000018003cb48 f   libucrt:environment_initialization.obj
 0001:0003bb90       ??$common_initialize_environment_nolock@D@@YAHXZ 000000018003cb90 f   libucrt:environment_initialization.obj
 0001:0003bbfc       ??$create_environment@D@@YAQEAPEADQEAD@Z 000000018003cbfc f   libucrt:environment_initialization.obj
 0001:0003bcf8       ??$free_environment@_W@@YAXQEAPEA_W@Z 000000018003ccf8 f   libucrt:environment_initialization.obj
 0001:0003bcf8       ??$free_environment@D@@YAXQEAPEAD@Z 000000018003ccf8 f   libucrt:environment_initialization.obj
 0001:0003bd3c       ??$initialize_environment_by_cloning_nolock@D@@YAHXZ 000000018003cd3c f   libucrt:environment_initialization.obj
 0001:0003be10       ??$uninitialize_environment_internal@D@@YAXAEAPEAPEAD@Z 000000018003ce10 f   libucrt:environment_initialization.obj
 0001:0003be2c       ??$uninitialize_environment_internal@_W@@YAXAEAPEAPEA_W@Z 000000018003ce2c f   libucrt:environment_initialization.obj
 0001:0003c06c       ??R<lambda_4e60a939b0d047cfe11ddc22648dfba9>@@QEBAHXZ 000000018003d06c f   libucrt:onexit.obj
 0001:0003c31c       initialize_global_variables 000000018003d31c f   libucrt:initialization.obj
 0001:0003c330       initialize_c               000000018003d330 f   libucrt:initialization.obj
 0001:0003c354       report_memory_leaks        000000018003d354 f   libucrt:initialization.obj
 0001:0003c354       initialize_environment     000000018003d354 f   libucrt:initialization.obj
 0001:0003c354       uninitialize_global_state_isolation 000000018003d354 f   libucrt:initialization.obj
 0001:0003c354       initialize_global_state_isolation 000000018003d354 f   libucrt:initialization.obj
 0001:0003c354       uninitialize_c             000000018003d354 f   libucrt:initialization.obj
 0001:0003c358       uninitialize_environment   000000018003d358 f   libucrt:initialization.obj
 0001:0003c368       initialize_pointers        000000018003d368 f   libucrt:initialization.obj
 0001:0003c3bc       uninitialize_vcruntime     000000018003d3bc f   libucrt:initialization.obj
 0001:0003c3c4       uninitialize_allocated_memory 000000018003d3c4 f   libucrt:initialization.obj
 0001:0003cec0       ??$write_buffer_nolock@D@@YA_NDV__crt_stdio_stream@@@Z 000000018003dec0 f   libucrt:_flsbuf.obj
 0001:0003d0ac       ?initialize_inherited_file_handles_nolock@@YAXXZ 000000018003e0ac f   libucrt:ioinit.obj
 0001:0003d198       ?initialize_stdio_handles_nolock@@YAXXZ 000000018003e198 f   libucrt:ioinit.obj
 0001:0003d438       ?construct_ptd_array@@YAXQEAU__acrt_ptd@@@Z 000000018003e438 f   libucrt:per_thread_data.obj
 0001:0003d508       ?destroy_fls@@YAXPEAX@Z    000000018003e508 f   libucrt:per_thread_data.obj
 0001:0003d528       ?destroy_ptd_array@@YAXQEAU__acrt_ptd@@@Z 000000018003e528 f   libucrt:per_thread_data.obj
 0001:0003d620       ?replace_current_thread_locale_nolock@@YAXQEAU__acrt_ptd@@QEAU__crt_locale_data@@@Z 000000018003e620 f   libucrt:per_thread_data.obj
 0001:0003d900       ?find_or_allocate_unused_stream_nolock@@YA?AV__crt_stdio_stream@@XZ 000000018003e900 f   libucrt:stream.obj
 0001:0003dd24       ?try_get_function@@YAPEAXW4function_id@?A0x63058377@@QEBDQEBW4module_id@2@2@Z 000000018003ed24 f   libucrt:winapi_thunks.obj
 0001:0003e5c8       common_flush_all           000000018003f5c8 f   libucrt:fflush.obj
 0001:0003eac8       ?internal_isupper_l@@YA_NHQEAU__crt_locale_pointers@@@Z 000000018003fac8 f   libucrt:tolower_toupper.obj
 0001:0003f3fc       ?fp_format_a@@YAHQEBNPEAD_KQEAD2H_NIQEAU__crt_locale_pointers@@@Z 00000001800403fc f   libucrt:cvt.obj
 0001:0003f75c       ?fp_format_e@@YAHQEBNQEAD_K12H_NIQEAU__crt_locale_pointers@@@Z 000000018004075c f   libucrt:cvt.obj
 0001:0003f82c       ?fp_format_e_internal@@YAHQEAD_KH_NIQEAU_strflt@@2QEAU__crt_locale_pointers@@@Z 000000018004082c f   libucrt:cvt.obj
 0001:0003fa08       ?fp_format_f_internal@@YAHQEAD_KHQEAU_strflt@@_NQEAU__crt_locale_pointers@@@Z 0000000180040a08 f   libucrt:cvt.obj
 0001:0003fb50       ?fp_format_g@@YAHQEBNQEAD_K12H_NIQEAU__crt_locale_pointers@@@Z 0000000180040b50 f   libucrt:cvt.obj
 0001:0003fc88       ?fp_format_nan_or_infinity@@YAHW4__acrt_fp_class@@_NPEAD_K1@Z 0000000180040c88 f   libucrt:cvt.obj
 0001:000401c8       ??$common_spawnv@D@@YA_JHQEBDQEBQEBD1@Z 00000001800411c8 f   libucrt:spawnv.obj
 0001:00040458       ??$execute_command@D@@YA_JHQEBDQEBQEBD1@Z 0000000180041458 f   libucrt:spawnv.obj
 0001:000406b4       ??R<lambda_45edfab556fcff821d8a41c06e3d46c0>@@QEBA_NXZ 00000001800416b4 f   libucrt:spawnv.obj
 0001:00040828       ?accumulate_inheritable_handles@@YA_NQEAPEAEQEA_K_N@Z 0000000180041828 f   libucrt:spawnv.obj
 0001:00040888       ??$common_spawnvp@D@@YA_JHQEBDQEBQEBD1@Z 0000000180041888 f   libucrt:spawnvp.obj
 0001:000411f4       ?write_double_translated_ansi_nolock@@YA?AUwrite_result@?A0x9c548279@@HQEBDI@Z 00000001800421f4 f   libucrt:write.obj
 0001:000413fc       ?write_text_ansi_nolock@@YA?AUwrite_result@?A0x9c548279@@HQEBDI@Z 00000001800423fc f   libucrt:write.obj
 0001:00041504       ?write_text_utf16le_nolock@@YA?AUwrite_result@?A0x9c548279@@HQEBDI@Z 0000000180042504 f   libucrt:write.obj
 0001:00041620       ?write_text_utf8_nolock@@YA?AUwrite_result@?A0x9c548279@@HQEBDI@Z 0000000180042620 f   libucrt:write.obj
 0001:00041e90       ?<helper_func_cdecl>@<lambda_2feae5270eb4d0d5532525f423405775>@@CAHPEBX0@Z 0000000180042e90 f   libucrt:argv_wildcards.obj
 0001:00041ea4       ??$common_expand_argv_wildcards@D@@YAHQEAPEADQEAPEAPEAD@Z 0000000180042ea4 f   libucrt:argv_wildcards.obj
 0001:000420b0       ??$copy_and_add_argument_to_buffer@D@@YAHQEBD0_KAEAV?$argument_list@D@?A0xca0879c4@@@Z 00000001800430b0 f   libucrt:argv_wildcards.obj
 0001:000421c0       ??$expand_argument_wildcards@D@@YAHQEAD0AEAV?$argument_list@D@?A0xca0879c4@@@Z 00000001800431c0 f   libucrt:argv_wildcards.obj
 0001:00042474       ??R<lambda_ad1ced32f4ac17aa236e5ef05d6b3b7c>@@QEBAXXZ 0000000180043474 f   libucrt:mbctype.obj
 0001:0004268c       ?getSystemCP@@YAHH@Z       000000018004368c f   libucrt:mbctype.obj
 0001:0004270c       ?setSBCS@@YAXPEAU__crt_multibyte_data@@@Z 000000018004370c f   libucrt:mbctype.obj
 0001:0004279c       ?setSBUpLow@@YAXPEAU__crt_multibyte_data@@@Z 000000018004379c f   libucrt:mbctype.obj
 0001:00042980       ?setmbcp_internal@@YAHH_N@Z 0000000180043980 f   libucrt:mbctype.obj
 0001:00042ec8       ?x_ismbbtype_l@@YAHPEAU__crt_locale_pointers@@IHH@Z 0000000180043ec8 f   libucrt:ismbbyte.obj
 0001:00043080       ??$common_set_variable_in_environment_nolock@D@@YAHQEADH@Z 0000000180044080 f   libucrt:setenv.obj
 0001:00043370       ??$copy_environment@D@@YAPEAPEADQEAPEAD@Z 0000000180044370 f   libucrt:setenv.obj
 0001:00043a1c       ??$common_lseek@_J@@YA_JH_JH@Z 0000000180044a1c f   libucrt:lseek.obj
 0001:00043b0c       ??$common_lseek_nolock@_J@@YA_JH_JH@Z 0000000180044b0c f   libucrt:lseek.obj
 0001:00044030       $$000000                   0000000180045030     libucrt:strncmp.obj
 0001:00044234       ??$common_sopen_dispatch@D@@YAHQEBDHHHQEAHH@Z 0000000180045234 f   libucrt:open.obj
 0001:00044314       ?configure_text_mode@@YAHHUfile_options@?A0x656cf9f4@@HAEAW4__crt_lowio_text_mode@@@Z 0000000180045314 f   libucrt:open.obj
 0001:000445a8       ?decode_options@@YA?AUfile_options@?A0x656cf9f4@@HHH@Z 00000001800455a8 f   libucrt:open.obj
 0001:000447b4       ?truncate_ctrl_z_if_present@@YAHH@Z 00000001800457b4 f   libucrt:open.obj
 0001:00044d2c       ?GetTableIndexFromLocaleName@@YAHPEB_W@Z 0000000180045d2c f   libucrt:lcidtoname_downlevel.obj
 0001:00044f88       ?__acrt_LCMapStringA_stat@@YAHPEAU__crt_locale_pointers@@PEB_WKPEBDHPEADHHH@Z 0000000180045f88 f   libucrt:lcmapstringa.obj
 0001:00046920       ?free_crt_array_internal@@YAXQEAPEBX_K@Z 0000000180047920 f   libucrt:inittime.obj
 0001:00046cac       ??$construct_environment_block@D@@YAHQEBQEBDQEAPEAD@Z 0000000180047cac f   libucrt:cenvarg.obj
 0001:000472dc       ?InternalCompareStringA@@YAHPEAU__crt_locale_pointers@@PEB_WKPEBDH2HH@Z 00000001800482dc f   libucrt:comparestringa.obj
 0001:00047700       ?shortsort@@YAXPEAD0_KP6AHPEBX2@Z@Z 0000000180048700 f   libucrt:qsort.obj
 0001:00047d18       ?initialize_multibyte@@YAHXZ 0000000180048d18 f   libucrt:multibyte_initializer.obj
 0001:00047f6c       ??$translate_text_mode_nolock@_W@@YAHHQEA_W_K@Z 0000000180048f6c f   libucrt:read.obj
 0001:0004819c       ?translate_ansi_or_utf8_nolock@@YAHHQEAD_KQEA_W1@Z 000000018004919c f   libucrt:read.obj
 0001:00048aa0       $$000000                   0000000180049aa0     libucrt:log10.obj
 0001:00049150       common_control87           000000018004a150 f   libucrt:ieee.obj
 0001:000493f0       $$000000                   000000018004a3f0     libucrt:fpsr.obj
 0001:00049450       _call_matherr              000000018004a450 f   libucrt:libm_error.obj
 0001:000494b8       _exception_enabled         000000018004a4b8 f   libucrt:libm_error.obj
 0001:000498a0       _log_special_common        000000018004a8a0 f   libucrt:log_special.obj
 0001:0004a5b0       $$000000                   000000018004b5b0     LIBCMT:_chkstk_.obj
 0001:0004a760       $$000000                   000000018004b760     libvcruntime:memcmp.obj
 0001:0004b160       ?CatchIt@@YAXPEAUEHExceptionRecord@@PEA_KPEAU_CONTEXT@@PEAU_xDISPATCHER_CONTEXT@@PEBU_s_FuncInfo@@PEBU_s_HandlerType@@PEBU_s_CatchableType@@PEBU_s_TryBlockMapEntry@@H1EE@Z 000000018004c160 f   libvcruntime:frame.obj
 0001:0004b224       ?ExFilterRethrow@@YAHPEAU_EXCEPTION_POINTERS@@PEAUEHExceptionRecord@@PEAH@Z 000000018004c224 f   libvcruntime:frame.obj
 0001:0004b2ac       ?FindHandler@@YAXPEAUEHExceptionRecord@@PEA_KPEAU_CONTEXT@@PEAU_xDISPATCHER_CONTEXT@@PEBU_s_FuncInfo@@EH1@Z 000000018004c2ac f   libvcruntime:frame.obj
 0001:0004b77c       ?FindHandlerForForeignException@@YAXPEAUEHExceptionRecord@@PEA_KPEAU_CONTEXT@@PEAU_xDISPATCHER_CONTEXT@@PEBU_s_FuncInfo@@HH1@Z 000000018004c77c f   libvcruntime:frame.obj
 0001:0004b9e8       ?IsInExceptionSpec@@YAEPEAUEHExceptionRecord@@PEBU_s_ESTypeList@@@Z 000000018004c9e8 f   libvcruntime:frame.obj
 0001:0004c510       $$000000                   000000018004d510     libvcruntime:handlers.obj
 0001:0004c560       $$000000                   000000018004d560     libucrt:cosf.obj
 0001:0004ca60       $$000000                   000000018004da60     libucrt:exp.obj
 0001:0004ce60       $$000000                   000000018004de60     libucrt:expf.obj
 0001:0004d110       $$000000                   000000018004e110     libucrt:log.obj
 0001:0004d640       $$000000                   000000018004e640     libucrt:sinf.obj
 0001:0004dd40       $$000000                   000000018004ed40     libucrt:strcmp.obj
 0001:0004ddc0       $$000000                   000000018004edc0     libucrt:remainder_piby2f_forasm.obj
 0001:0004df10       $$000000                   000000018004ef10     libucrt:remainder_piby2_forfma3.obj
 0001:0004e18c       _sincosf_special           000000018004f18c f   libucrt:sincos_special.obj
 0001:0004e370       $$000000                   000000018004f370     libucrt:remainder_piby2f_forc.obj
 0001:0004e500       $$000000                   000000018004f500     LIBCMT:_guard_dispatch_.obj
 0001:0004e520       ?catch$0@?0???0CImgInstanceException@cimg_library@@QEAA@QEBDZZ@4HA 000000018004f520 f   cap.obj
 0001:0004e52d       __catch$??0CImgInstanceException@cimg_library@@QEAA@QEBDZZ$0 000000018004f52d f   cap.obj
 0001:0004e540       ?catch$0@?0???0CImgArgumentException@cimg_library@@QEAA@QEBDZZ@4HA 000000018004f540 f   cap.obj
 0001:0004e54d       __catch$??0CImgArgumentException@cimg_library@@QEAA@QEBDZZ$0 000000018004f54d f   cap.obj
 0001:0004e560       ?catch$0@?0???0CImgIOException@cimg_library@@QEAA@QEBDZZ@4HA 000000018004f560 f   cap.obj
 0001:0004e56d       __catch$??0CImgIOException@cimg_library@@QEAA@QEBDZZ$0 000000018004f56d f   cap.obj
 0001:0004e580       ?catch$0@?0???0?$CImg@E@cimg_library@@QEAA@AEBU01@@Z@4HA 000000018004f580 f   cap.obj
 0001:0004e594       __catch$??0?$CImg@E@cimg_library@@QEAA@AEBU01@@Z$0 000000018004f594 f   cap.obj
 0001:0004e660       ?catch$0@?0???0?$CImg@E@cimg_library@@QEAA@IIIIE@Z@4HA 000000018004f660 f   cap.obj
 0001:0004e674       __catch$??0?$CImg@E@cimg_library@@QEAA@IIIIE@Z$0 000000018004f674 f   cap.obj
 0001:0004e740       ?catch$0@?0???0?$CImg@E@cimg_library@@QEAA@IIII@Z@4HA 000000018004f740 f   cap.obj
 0001:0004e754       __catch$??0?$CImg@E@cimg_library@@QEAA@IIII@Z$0 000000018004f754 f   cap.obj
 0001:0004e820       ?catch$2@?0??save_other@?$CImg@E@cimg_library@@QEBAAEBU12@QEBDI@Z@4HA 000000018004f820 f   cap.obj
 0001:0004e82d       __catch$?save_other@?$CImg@E@cimg_library@@QEBAAEBU12@QEBDI@Z$0 000000018004f82d f   cap.obj
 0001:0004e84d       ?catch$1@?0??save_other@?$CImg@E@cimg_library@@QEBAAEBU12@QEBDI@Z@4HA 000000018004f84d f   cap.obj
 0001:0004e85a       __catch$?save_other@?$CImg@E@cimg_library@@QEBAAEBU12@QEBDI@Z$1 000000018004f85a f   cap.obj
 0001:0004e87a       ?catch$0@?0??save_other@?$CImg@E@cimg_library@@QEBAAEBU12@QEBDI@Z@4HA 000000018004f87a f   cap.obj
 0001:0004e887       __catch$?save_other@?$CImg@E@cimg_library@@QEBAAEBU12@QEBDI@Z$2 000000018004f887 f   cap.obj
 0001:0004e8a0       ?catch$0@?0???0?$CImg@E@cimg_library@@QEAA@AEBU01@_N@Z@4HA 000000018004f8a0 f   cap.obj
 0001:0004e8b4       __catch$??0?$CImg@E@cimg_library@@QEAA@AEBU01@_N@Z$0 000000018004f8b4 f   cap.obj
 0001:0004e980       ?catch$0@?0???0?$CImg@I@cimg_library@@QEAA@IIII@Z@4HA 000000018004f980 f   cap.obj
 0001:0004e98f       __catch$??0?$CImg@I@cimg_library@@QEAA@IIII@Z$0 000000018004f98f f   cap.obj
 0001:0004ea50       ?catch$0@?0??assign@?$CImg@D@cimg_library@@QEAAAEAU12@QEBDIIII@Z@4HA 000000018004fa50 f   cap.obj
 0001:0004ea64       __catch$?assign@?$CImg@D@cimg_library@@QEAAAEAU12@QEBDIIII@Z$0 000000018004fa64 f   cap.obj
 0001:0004eb30       ?catch$0@?0???0?$CImg@M@cimg_library@@QEAA@IIIIM@Z@4HA 000000018004fb30 f   cap.obj
 0001:0004eb44       __catch$??0?$CImg@M@cimg_library@@QEAA@IIIIM@Z$0 000000018004fb44 f   cap.obj
 0001:0004ec10       ?catch$0@?0???0?$CImg@M@cimg_library@@QEAA@IIII@Z@4HA 000000018004fc10 f   cap.obj
 0001:0004ec24       __catch$??0?$CImg@M@cimg_library@@QEAA@IIII@Z$0 000000018004fc24 f   cap.obj
 0001:0004ecf0       ?catch$0@?0??assign@?$CImg@E@cimg_library@@QEAAAEAU12@IIII@Z@4HA 000000018004fcf0 f   cap.obj
 0001:0004ed04       __catch$?assign@?$CImg@E@cimg_library@@QEAAAEAU12@IIII@Z$0 000000018004fd04 f   cap.obj
 0001:0004edd0       ?catch$0@?0???0?$CImg@K@cimg_library@@QEAA@IIII@Z@4HA 000000018004fdd0 f   cap.obj
 0001:0004eddf       __catch$??0?$CImg@K@cimg_library@@QEAA@IIII@Z$0 000000018004fddf f   cap.obj
 0001:0004eea0       ?catch$0@?0???0?$CImg@G@cimg_library@@QEAA@IIII@Z@4HA 000000018004fea0 f   cap.obj
 0001:0004eeaf       __catch$??0?$CImg@G@cimg_library@@QEAA@IIII@Z$0 000000018004feaf f   cap.obj
 0001:0004ef70       ?catch$0@?0??assign@?$CImg@D@cimg_library@@QEAAAEAU12@IIII@Z@4HA 000000018004ff70 f   cap.obj
 0001:0004ef84       __catch$?assign@?$CImg@D@cimg_library@@QEAAAEAU12@IIII@Z$0 000000018004ff84 f   cap.obj
 0001:0004f050       ?catch$0@?0???0?$CImg@D@cimg_library@@QEAA@QEBDIIII_N@Z@4HA 0000000180050050 f   cap.obj
 0001:0004f05f       __catch$??0?$CImg@D@cimg_library@@QEAA@QEBDIIII_N@Z$0 000000018005005f f   cap.obj
 0001:0004f120       ?catch$0@?0???0?$CImg@D@cimg_library@@QEAA@AEBU01@@Z@4HA 0000000180050120 f   cap.obj
 0001:0004f134       __catch$??0?$CImg@D@cimg_library@@QEAA@AEBU01@@Z$0 0000000180050134 f   cap.obj
 0001:0004f200       ?catch$0@?0???0?$CImg@D@cimg_library@@QEAA@AEBU01@_N@Z@4HA 0000000180050200 f   cap.obj
 0001:0004f214       __catch$??0?$CImg@D@cimg_library@@QEAA@AEBU01@_N@Z$0 0000000180050214 f   cap.obj
 0001:0004f2e0       ?catch$0@?0???0?$CImg@M@cimg_library@@QEAA@AEBU01@@Z@4HA 00000001800502e0 f   cap.obj
 0001:0004f2f4       __catch$??0?$CImg@M@cimg_library@@QEAA@AEBU01@@Z$0 00000001800502f4 f   cap.obj
 0001:0004f3c0       ?catch$0@?0??assign@?$CImg@E@cimg_library@@QEAAAEAU12@QEBEIIII@Z@4HA 00000001800503c0 f   cap.obj
 0001:0004f3d4       __catch$?assign@?$CImg@E@cimg_library@@QEAAAEAU12@QEBEIIII@Z$0 00000001800503d4 f   cap.obj
 0001:0004f4a0       ?catch$0@?0???0?$CImg@M@cimg_library@@QEAA@AEBU01@_N@Z@4HA 00000001800504a0 f   cap.obj
 0001:0004f4b4       __catch$??0?$CImg@M@cimg_library@@QEAA@AEBU01@_N@Z$0 00000001800504b4 f   cap.obj
 0001:0004f580       ?catch$0@?0??assign@?$CImg@M@cimg_library@@QEAAAEAU12@IIII@Z@4HA 0000000180050580 f   cap.obj
 0001:0004f594       __catch$?assign@?$CImg@M@cimg_library@@QEAAAEAU12@IIII@Z$0 0000000180050594 f   cap.obj
 0001:0004f660       ?catch$0@?0??assign@?$CImg@M@cimg_library@@QEAAAEAU12@QEBMIIII@Z@4HA 0000000180050660 f   cap.obj
 0001:0004f674       __catch$?assign@?$CImg@M@cimg_library@@QEAAAEAU12@QEBMIIII@Z$0 0000000180050674 f   cap.obj
 0001:0004f73e       __scrt_is_nonwritable_in_current_image$filt$0 000000018005073e f   LIBCMT:utility.obj
 0001:0004f756       ?fin$0@?0??dllmain_crt_process_attach@@YAHQEAUHINSTANCE__@@QEAX@Z@4HA 0000000180050756 f   LIBCMT:dll_dllmain.obj
 0001:0004f76d       ?fin$0@?0??dllmain_crt_process_detach@@YAH_N@Z@4HA 000000018005076d f   LIBCMT:dll_dllmain.obj
 0001:0004f789       ?filt$0@?0??dllmain_dispatch@@YAHQEAUHINSTANCE__@@KQEAX@Z@4HA 0000000180050789 f   LIBCMT:dll_dllmain.obj
 0001:0004f7bf       fputc$fin$0                00000001800507bf f   libucrt:fputc.obj
 0001:0004f7d9       ?fin$0@?0???$common_fsopen@D@@YAPEAU_iobuf@@QEBD0H@Z@4HA 00000001800507d9 f   libucrt:fopen.obj
 0001:0004f804       fclose$fin$0               0000000180050804 f   libucrt:fclose.obj
 0001:0004f81c       ?fin$0@?0???$?RV<lambda_5d4c3fee44080f75d5d9762853974fe0>@@AEAV<lambda_532e024f4337e6fc7ad266c2bef9f4ed>@@V<lambda_c87bdc10097eb2402edb8ba9bdf0697b>@@@?$__crt_seh_guarded_call@_K@@QEAA_K$$QEAV<lambda_5d4c3fee44080f75d5d9762853974fe0>@@AEAV<lambda_532e024f4337e6fc7ad266c2bef9f4ed>@@$$QEAV<lambda_c87bdc10097eb2402edb8ba9bdf0697b>@@@Z@4HA 000000018005081c f   libucrt:fwrite.obj
 0001:0004f81c       ?fin$0@?0???$?RV<lambda_aa279a7bcb127014629d5b1d62c7325d>@@AEAV<lambda_0a64b6a4deda75c01876f29c44fc5eb3>@@V<lambda_3323e69fbefe9d1a11713e670d47cdfa>@@@?$__crt_seh_guarded_call@H@@QEAAH$$QEAV<lambda_aa279a7bcb127014629d5b1d62c7325d>@@AEAV<lambda_0a64b6a4deda75c01876f29c44fc5eb3>@@$$QEAV<lambda_3323e69fbefe9d1a11713e670d47cdfa>@@@Z@4HA 000000018005081c f   libucrt:output.obj
 0001:0004f837       ?fin$0@?0???$common_dupenv_s@D@@YAHQEAPEADQEA_KQEBDH2H@Z@4HA 0000000180050837 f   libucrt:getenv.obj
 0001:0004f850       ?fin$0@?0???$common_getenv@D@@YAPEADQEBD@Z@4HA 0000000180050850 f   libucrt:getenv.obj
 0001:0004f869       _query_new_handler$fin$0   0000000180050869 f   libucrt:new_handler.obj
 0001:0004f87f       ?filt$0@?0??common_exit@@YAXHW4_crt_exit_cleanup_mode@@W4_crt_exit_return_mode@@@Z@4HA 000000018005087f f   libucrt:exit.obj
 0001:0004f89a       ?fin$1@?0??common_exit@@YAXHW4_crt_exit_cleanup_mode@@W4_crt_exit_return_mode@@@Z@4HA 000000018005089a f   libucrt:exit.obj
 0001:0004f8b3       ?fin$0@?0???$?RV<lambda_c36588078e9f5dfd39652860aa6b3aaf>@@AEAV<lambda_ec61778202f4f5fc7e7711acc23c3bca>@@V<lambda_dc9d2797ccde5d239b4a0efae8ebd7db>@@@?$__crt_seh_guarded_call@P6AXH@Z@@QEAAP6AXH@Z$$QEAV<lambda_c36588078e9f5dfd39652860aa6b3aaf>@@AEAV<lambda_ec61778202f4f5fc7e7711acc23c3bca>@@$$QEAV<lambda_dc9d2797ccde5d239b4a0efae8ebd7db>@@@Z@4HA 00000001800508b3 f   libucrt:signal.obj
 0001:0004f8b3       ?fin$0@?0???$?RV<lambda_fb3a7dec4e47f37f22dae91bb15c9095>@@AEAV<lambda_698284760c8add0bfb0756c19673e34b>@@V<lambda_dfb8eca1e75fef3034a8fb18dd509707>@@@?$__crt_seh_guarded_call@X@@QEAAX$$QEAV<lambda_fb3a7dec4e47f37f22dae91bb15c9095>@@AEAV<lambda_698284760c8add0bfb0756c19673e34b>@@$$QEAV<lambda_dfb8eca1e75fef3034a8fb18dd509707>@@@Z@4HA 00000001800508b3 f   libucrt:per_thread_data.obj
 0001:0004f8b3       ?fin$0@?0???$?RV<lambda_5e887d1dcbef67a5eb4283622ba103bf>@@AEAV<lambda_4466841279450cc726390878d4a41900>@@V<lambda_341c25c0346d94847f1f3c463c57e077>@@@?$__crt_seh_guarded_call@X@@QEAAX$$QEAV<lambda_5e887d1dcbef67a5eb4283622ba103bf>@@AEAV<lambda_4466841279450cc726390878d4a41900>@@$$QEAV<lambda_341c25c0346d94847f1f3c463c57e077>@@@Z@4HA 00000001800508b3 f   libucrt:per_thread_data.obj
 0001:0004f8b3       ?fin$0@?0???$?RV<lambda_b8c45f8f788dd370798f47cfe8ac3a86>@@AEAV<lambda_4e60a939b0d047cfe11ddc22648dfba9>@@V<lambda_332c3edc96d0294ec56c57d38c1cdfd5>@@@?$__crt_seh_guarded_call@H@@QEAAH$$QEAV<lambda_b8c45f8f788dd370798f47cfe8ac3a86>@@AEAV<lambda_4e60a939b0d047cfe11ddc22648dfba9>@@$$QEAV<lambda_332c3edc96d0294ec56c57d38c1cdfd5>@@@Z@4HA 00000001800508b3 f   libucrt:onexit.obj
 0001:0004f8b3       ?fin$0@?0???$?RV<lambda_fb01e4b6cb0b58be62120d2a518119ce>@@AEAV<lambda_45edfab556fcff821d8a41c06e3d46c0>@@V<lambda_8a9bf702b7f902ca2f9107a173e0fbe3>@@@?$__crt_seh_guarded_call@_N@@QEAA_N$$QEAV<lambda_fb01e4b6cb0b58be62120d2a518119ce>@@AEAV<lambda_45edfab556fcff821d8a41c06e3d46c0>@@$$QEAV<lambda_8a9bf702b7f902ca2f9107a173e0fbe3>@@@Z@4HA 00000001800508b3 f   libucrt:spawnv.obj
 0001:0004f8b3       ?fin$0@?0???$?RV<lambda_46352004c1216016012b18bd6f87e700>@@AEAV<lambda_3bd07e1a1191394380780325891bf33f>@@V<lambda_334532d3f185bcaa59b5be82d7d22bff>@@@?$__crt_seh_guarded_call@X@@QEAAX$$QEAV<lambda_46352004c1216016012b18bd6f87e700>@@AEAV<lambda_3bd07e1a1191394380780325891bf33f>@@$$QEAV<lambda_334532d3f185bcaa59b5be82d7d22bff>@@@Z@4HA 00000001800508b3 f   libucrt:per_thread_data.obj
 0001:0004f8b3       ?fin$0@?0???$?RV<lambda_72d1df2b273a38828b1ce30cbf4cdab5>@@AEAV<lambda_876a65b173b8412d3a47c70a915b0cf4>@@V<lambda_41932305e351933ebe8f8be3ed8bb5dc>@@@?$__crt_seh_guarded_call@X@@QEAAX$$QEAV<lambda_72d1df2b273a38828b1ce30cbf4cdab5>@@AEAV<lambda_876a65b173b8412d3a47c70a915b0cf4>@@$$QEAV<lambda_41932305e351933ebe8f8be3ed8bb5dc>@@@Z@4HA 00000001800508b3 f   libucrt:per_thread_data.obj
 0001:0004f8b3       ?fin$0@?0???$?RV<lambda_99476a1ad63dd22509b5d3e65b0ffc95>@@AEAV<lambda_ad1ced32f4ac17aa236e5ef05d6b3b7c>@@V<lambda_f7424dd8d45958661754dc4f2697e9c3>@@@?$__crt_seh_guarded_call@X@@QEAAX$$QEAV<lambda_99476a1ad63dd22509b5d3e65b0ffc95>@@AEAV<lambda_ad1ced32f4ac17aa236e5ef05d6b3b7c>@@$$QEAV<lambda_f7424dd8d45958661754dc4f2697e9c3>@@@Z@4HA 00000001800508b3 f   libucrt:mbctype.obj
 0001:0004f8cd       ?fin$0@?0???$?RV<lambda_e24bbb7b643b32fcea6fa61b31d4c984>@@AEAV<lambda_275893d493268fdec8709772e3fcec0e>@@V<lambda_9d71df4d7cf3f480f8d633942495c3b0>@@@?$__crt_seh_guarded_call@H@@QEAAH$$QEAV<lambda_e24bbb7b643b32fcea6fa61b31d4c984>@@AEAV<lambda_275893d493268fdec8709772e3fcec0e>@@$$QEAV<lambda_9d71df4d7cf3f480f8d633942495c3b0>@@@Z@4HA 00000001800508cd f   libucrt:onexit.obj
 0001:0004f8ea       _fcloseall$fin$0           00000001800508ea f   libucrt:closeall.obj
 0001:0004f8ea       ?fin$0@?0??__acrt_stdio_allocate_stream@@YA?AV__crt_stdio_stream@@XZ@4HA 00000001800508ea f   libucrt:stream.obj
 0001:0004f903       common_flush_all$fin$0     0000000180050903 f   libucrt:fflush.obj
 0001:0004f91d       common_flush_all$fin$1     000000018005091d f   libucrt:fflush.obj
 0001:0004f936       _alloc_osfhnd$fin$0        0000000180050936 f   libucrt:osfinfo.obj
 0001:0004f936       __acrt_initialize_lowio$fin$0 0000000180050936 f   libucrt:ioinit.obj
 0001:0004f936       __acrt_lowio_ensure_fh_exists$fin$0 0000000180050936 f   libucrt:osfinfo.obj
 0001:0004f94f       __acrt_update_thread_multibyte_data$fin$0 000000018005094f f   libucrt:mbctype.obj
 0001:0004f968       raise$fin$0                0000000180050968 f   libucrt:signal.obj
 0001:0004f98c       _write$fin$0               000000018005098c f   libucrt:write.obj
 0001:0004f98c       ?fin$0@?0???$common_lseek@_J@@YA_JH_JH@Z@4HA 000000018005098c f   libucrt:lseek.obj
 0001:0004f98c       _setmode$fin$0             000000018005098c f   libucrt:setmode.obj
 0001:0004f9a3       __acrt_update_thread_locale_data$fin$0 00000001800509a3 f   libucrt:locale_refcounting.obj
 0001:0004f9a3       __acrt_uninitialize_locale$fin$0 00000001800509a3 f   libucrt:wsetlocale.obj
 0001:0004f9bc       ?fin$0@?0???$common_sopen_dispatch@D@@YAHQEBDHHHQEAHH@Z@4HA 00000001800509bc f   libucrt:open.obj
 0001:0004fa0f       ?fin$0@?0???$?RV<lambda_bfedae4ebbf01fab1bb6dcc6a9e276e0>@@AEAV<lambda_2fe9b910cf3cbf4a0ab98a02ba45b3ec>@@V<lambda_237c231691f317818eb88cc1d5d642d6>@@@?$__crt_seh_guarded_call@H@@QEAAH$$QEAV<lambda_bfedae4ebbf01fab1bb6dcc6a9e276e0>@@AEAV<lambda_2fe9b910cf3cbf4a0ab98a02ba45b3ec>@@$$QEAV<lambda_237c231691f317818eb88cc1d5d642d6>@@@Z@4HA 0000000180050a0f f   libucrt:close.obj
 0001:0004fa0f       ?fin$0@?0???$?RV<lambda_b521505b218e5242e90febf6bfebc422>@@AEAV<lambda_6978c1fb23f02e42e1d9e99668cc68aa>@@V<lambda_314360699dd331753a4119843814e9a7>@@@?$__crt_seh_guarded_call@H@@QEAAH$$QEAV<lambda_b521505b218e5242e90febf6bfebc422>@@AEAV<lambda_6978c1fb23f02e42e1d9e99668cc68aa>@@$$QEAV<lambda_314360699dd331753a4119843814e9a7>@@@Z@4HA 0000000180050a0f f   libucrt:commit.obj
 0001:0004fa29       _ctrlfp$filt$0             0000000180050a29 f   libucrt:fpctrl.obj
 0001:0004fa29       common_control87$filt$0    0000000180050a29 f   libucrt:ieee.obj
 0001:0004fa60       _IsNonwritableInCurrentImage$filt$0 0000000180050a60 f   LIBCMT:pesect.obj
 0001:0004fa80       _CallSETranslator$filt$0   0000000180050a80 f   libvcruntime:trnsctrl.obj
 0001:0004facc       __CxxCallCatchBlock$filt$0 0000000180050acc f   libvcruntime:frame.obj
 0001:0004faf1       __CxxCallCatchBlock$fin$1  0000000180050af1 f   libvcruntime:frame.obj
 0001:0004fb69       __DestructExceptionObject$filt$0 0000000180050b69 f   libvcruntime:frame.obj
 0001:0004fb81       __FrameUnwindToState$filt$0 0000000180050b81 f   libvcruntime:frame.obj
 0001:0004fb97       __FrameUnwindToState$fin$1 0000000180050b97 f   libvcruntime:frame.obj
 0001:0004fbc0       ??__Ftext@img_obj@@YAXXZ   0000000180050bc0 f   cap.obj
 0001:0004fc50       ??__Ffilename@img_obj@@YAXXZ 0000000180050c50 f   cap.obj
 0002:000003e0       ?filename$initializer$@img_obj@@3P6AXXZEA 00000001800513e0     cap.obj
 0002:000003e8       ?text$initializer$@img_obj@@3P6AXXZEA 00000001800513e8     cap.obj
 0002:00000408       ?__scrt_initialize_tss_var@@3P6AHXZEA 0000000180051408     LIBCMT:thread_safe_statics.obj
 0002:000005b0       GS_ExceptionPointers       00000001800515b0     LIBCMT:gs_report.obj
 0002:00000610       ?ExceptionTemplate@?1??_CxxThrowException@@9@4UEHExceptionRecord@@B 0000000180051610     libvcruntime:throw.obj
 0002:00000650       ?module_names@?A0x679b24ab@@3QBQEB_WB 0000000180051650     libvcruntime:winapi_downlevel.obj
 0002:00000720       ?candidate_modules@?1??try_get_FlsAlloc@@YAP6AKP6AXPEAX@Z@ZXZ@4QBW4module_id@?A0x679b24ab@@B 0000000180051720     libvcruntime:winapi_downlevel.obj
 0002:00000738       ?candidate_modules@?1??try_get_FlsFree@@YAP6AHK@ZXZ@4QBW4module_id@?A0x679b24ab@@B 0000000180051738     libvcruntime:winapi_downlevel.obj
 0002:00000748       ?candidate_modules@?1??try_get_FlsGetValue@@YAP6APEAXK@ZXZ@4QBW4module_id@?A0x679b24ab@@B 0000000180051748     libvcruntime:winapi_downlevel.obj
 0002:00000760       ?candidate_modules@?1??try_get_FlsSetValue@@YAP6AHKPEAX@ZXZ@4QBW4module_id@?A0x679b24ab@@B 0000000180051760     libvcruntime:winapi_downlevel.obj
 0002:00000778       ?candidate_modules@?1??try_get_InitializeCriticalSectionEx@@YAP6AHPEAU_RTL_CRITICAL_SECTION@@KK@ZXZ@4QBW4module_id@?A0x679b24ab@@B 0000000180051778     libvcruntime:winapi_downlevel.obj
 0002:000007a0       ?tokenTable@@3QBQEBDB      00000001800517a0     libvcruntime:undname.obj
 0002:00000810       ?nameTable@@3QBQEBDB       0000000180051810     libvcruntime:undname.obj
 0002:00000a98       ?rttiTable@@3QBQEBDB       0000000180051a98     libvcruntime:undname.obj
 0002:00001198       ?comspec_name@?1???$common_system@D@@YAHQEBD@Z@4QBDB 0000000180052198     libucrt:system.obj
 0002:000011a0       ?cmd_exe@?1???$common_system@D@@YAHQEBD@Z@4QBDB 00000001800521a0     libucrt:system.obj
 0002:000011a8       ?slash_c@?1???$common_system@D@@YAHQEBD@Z@4QBDB 00000001800521a8     libucrt:system.obj
 0002:00001ea0       __acrt_initializers        0000000180052ea0     libucrt:initialization.obj
 0002:00001f90       errtable                   0000000180052f90     libucrt:errno.obj
 0002:00002120       module_names               0000000180053120     libucrt:winapi_thunks.obj
 0002:00002650       ?candidate_modules@?1??try_get_AreFileApisANSI@@YAP6AHXZXZ@4QBW4module_id@?A0x63058377@@B 0000000180053650     libucrt:winapi_thunks.obj
 0002:00002668       ?candidate_modules@?1??try_get_CompareStringEx@@YAP6AHPEB_WK0H0HPEAU_nlsversioninfo@@PEAX_J@ZXZ@4QBW4module_id@?A0x63058377@@B 0000000180053668     libucrt:winapi_thunks.obj
 0002:00002680       ?candidate_modules@?1??try_get_FlsAlloc@@YAP6AKP6AXPEAX@Z@ZXZ@4QBW4module_id@?A0x63058377@@B 0000000180053680     libucrt:winapi_thunks.obj
 0002:00002688       ?candidate_modules@?1??try_get_FlsFree@@YAP6AHK@ZXZ@4QBW4module_id@?A0x63058377@@B 0000000180053688     libucrt:winapi_thunks.obj
 0002:00002690       ?candidate_modules@?1??try_get_FlsGetValue@@YAP6APEAXK@ZXZ@4QBW4module_id@?A0x63058377@@B 0000000180053690     libucrt:winapi_thunks.obj
 0002:00002698       ?candidate_modules@?1??try_get_FlsSetValue@@YAP6AHKPEAX@ZXZ@4QBW4module_id@?A0x63058377@@B 0000000180053698     libucrt:winapi_thunks.obj
 0002:000026a0       ?candidate_modules@?1??try_get_GetCurrentPackageId@@YAP6AJPEAIPEAE@ZXZ@4QBW4module_id@?A0x63058377@@B 00000001800536a0     libucrt:winapi_thunks.obj
 0002:000026c0       ?candidate_modules@?1??try_get_InitializeCriticalSectionEx@@YAP6AHPEAU_RTL_CRITICAL_SECTION@@KK@ZXZ@4QBW4module_id@?A0x63058377@@B 00000001800536c0     libucrt:winapi_thunks.obj
 0002:000026c8       ?candidate_modules@?1??try_get_LCMapStringEx@@YAP6AHPEB_WK0HPEA_WHPEAU_nlsversioninfo@@PEAX_J@ZXZ@4QBW4module_id@?A0x63058377@@B 00000001800536c8     libucrt:winapi_thunks.obj
 0002:000026e0       ?candidate_modules@?1??try_get_LocaleNameToLCID@@YAP6AKPEB_WK@ZXZ@4QBW4module_id@?A0x63058377@@B 00000001800536e0     libucrt:winapi_thunks.obj
 0002:00002ddc       ?dot_slash@?CD@???$common_spawnv@D@@YA_JHQEBDQEBQEBD1@Z@4QBDB 0000000180053ddc     libucrt:spawnv.obj
 0002:00002de0       ?extensions@?DB@???$common_spawnv@D@@YA_JHQEBDQEBQEBD1@Z@4QAY04$$CBDA 0000000180053de0     libucrt:spawnv.obj
 0002:00003400       _mb_locale_names           0000000180054400     libucrt:mbctype.obj
 0002:00003460       LcidToLocaleNameTable      0000000180054460     libucrt:lcidtoname_downlevel.obj
 0002:00004ec0       LocaleNameToIndexTable     0000000180055ec0     libucrt:lcidtoname_downlevel.obj
 0002:00006778       ?equal_sign@?BP@???$construct_environment_block@D@@YAHQEBQEBDQEAPEAD@Z@4QBDB 0000000180057778     libucrt:cenvarg.obj
 0002:00006780       __real_ninf                0000000180057780     libucrt:log10.obj
 0002:00006790       __real_inf                 0000000180057790     libucrt:log10.obj
 0002:000067a0       __real_neg_qnan            00000001800577a0     libucrt:log10.obj
 0002:000067b0       __real_qnanbit             00000001800577b0     libucrt:log10.obj
 0002:000067c0       __int_1023                 00000001800577c0     libucrt:log10.obj
 0002:000067d0       __mask_001                 00000001800577d0     libucrt:log10.obj
 0002:000067e0       __mask_mant                00000001800577e0     libucrt:log10.obj
 0002:000067f0       __mask_mant_top8           00000001800577f0     libucrt:log10.obj
 0002:00006800       __mask_mant9               0000000180057800     libucrt:log10.obj
 0002:00006810       __real_log10_e             0000000180057810     libucrt:log10.obj
 0002:00006820       __real_log10_e_lead        0000000180057820     libucrt:log10.obj
 0002:00006830       __real_log10_e_tail        0000000180057830     libucrt:log10.obj
 0002:00006840       __real_log10_2_lead        0000000180057840     libucrt:log10.obj
 0002:00006850       __real_log10_2_tail        0000000180057850     libucrt:log10.obj
 0002:00006860       __real_two                 0000000180057860     libucrt:log10.obj
 0002:00006870       __real_one                 0000000180057870     libucrt:log10.obj
 0002:00006880       __real_half                0000000180057880     libucrt:log10.obj
 0002:00006890       __mask_100                 0000000180057890     libucrt:log10.obj
 0002:000068a0       __real_1_over_512          00000001800578a0     libucrt:log10.obj
 0002:000068b0       __real_1_over_2            00000001800578b0     libucrt:log10.obj
 0002:000068c0       __real_1_over_3            00000001800578c0     libucrt:log10.obj
 0002:000068d0       __real_1_over_4            00000001800578d0     libucrt:log10.obj
 0002:000068e0       __real_1_over_5            00000001800578e0     libucrt:log10.obj
 0002:000068f0       __real_1_over_6            00000001800578f0     libucrt:log10.obj
 0002:00006900       __real_neg_1023            0000000180057900     libucrt:log10.obj
 0002:00006910       __mask_2045                0000000180057910     libucrt:log10.obj
 0002:00006920       __real_threshold           0000000180057920     libucrt:log10.obj
 0002:00006930       __real_near_one_lt         0000000180057930     libucrt:log10.obj
 0002:00006940       __real_near_one_gt         0000000180057940     libucrt:log10.obj
 0002:00006950       __real_min_norm            0000000180057950     libucrt:log10.obj
 0002:00006960       __real_notsign             0000000180057960     libucrt:log10.obj
 0002:00006970       __real_ca1                 0000000180057970     libucrt:log10.obj
 0002:00006980       __real_ca2                 0000000180057980     libucrt:log10.obj
 0002:00006990       __real_ca3                 0000000180057990     libucrt:log10.obj
 0002:000069a0       __real_ca4                 00000001800579a0     libucrt:log10.obj
 0002:000069b0       __mask_lower               00000001800579b0     libucrt:log10.obj
 0002:000069c0       __flag_x_zero              00000001800579c0     libucrt:log10.obj
 0002:000069c4       __flag_x_neg               00000001800579c4     libucrt:log10.obj
 0002:000069c8       __flag_x_nan               00000001800579c8     libucrt:log10.obj
 0002:000069e0       __real@433fffffffffffff    00000001800579e0     libucrt:fpsr.obj
 0002:000069e8       __real@c33fffffffffffff    00000001800579e8     libucrt:fpsr.obj
 0002:0000bd30       ?font10x13@cimg@cimg_library@@3QBIB 000000018005cd30     cap.obj
 0002:0000cd70       ?font16x32@cimg@cimg_library@@3QBIB 000000018005dd70     cap.obj
 0002:00010d70       ?logo40x38@cimg@cimg_library@@3QBEB 0000000180061d70     cap.obj
 0002:00011f50       ?t_normal@cimg@cimg_library@@3QBDB 0000000180062f50     cap.obj
 0002:00011f58       ?t_red@cimg@cimg_library@@3QEBDEB 0000000180062f58     cap.obj
 0002:00011f60       ?font29x57@cimg@cimg_library@@3QBIB 0000000180062f60     cap.obj
 0002:0001ee00       ?t_bold@cimg@cimg_library@@3QEBDEB 000000018006fe00     cap.obj
 0002:0001ee08       ?t_green@cimg@cimg_library@@3QEBDEB 000000018006fe08     cap.obj
 0002:0001ee10       ?font12x24@cimg@cimg_library@@3QBIB 000000018006fe10     cap.obj
 0002:00021360       $cppxdata$?assign@?$CImg@M@cimg_library@@QEAAAEAU12@QEBMIIII@Z 0000000180072360     cap.obj
 0002:00021388       $cppxdata$?assign@?$CImg@M@cimg_library@@QEAAAEAU12@IIII@Z 0000000180072388     cap.obj
 0002:000213b0       $cppxdata$??0?$CImg@M@cimg_library@@QEAA@AEBU01@_N@Z 00000001800723b0     cap.obj
 0002:000213d8       $cppxdata$?assign@?$CImg@E@cimg_library@@QEAAAEAU12@QEBEIIII@Z 00000001800723d8     cap.obj
 0002:00021400       $cppxdata$??0?$CImg@M@cimg_library@@QEAA@AEBU01@@Z 0000000180072400     cap.obj
 0002:00021428       $cppxdata$??0?$CImg@D@cimg_library@@QEAA@AEBU01@_N@Z 0000000180072428     cap.obj
 0002:00021450       $cppxdata$??0?$CImg@D@cimg_library@@QEAA@AEBU01@@Z 0000000180072450     cap.obj
 0002:00021478       $cppxdata$??0?$CImg@D@cimg_library@@QEAA@QEBDIIII_N@Z 0000000180072478     cap.obj
 0002:000214a0       $cppxdata$?assign@?$CImg@D@cimg_library@@QEAAAEAU12@IIII@Z 00000001800724a0     cap.obj
 0002:000214c8       $cppxdata$??0?$CImg@G@cimg_library@@QEAA@IIII@Z 00000001800724c8     cap.obj
 0002:000214f0       $cppxdata$??0?$CImg@K@cimg_library@@QEAA@IIII@Z 00000001800724f0     cap.obj
 0002:00021518       $cppxdata$?assign@?$CImg@E@cimg_library@@QEAAAEAU12@IIII@Z 0000000180072518     cap.obj
 0002:00021540       $cppxdata$??0?$CImg@M@cimg_library@@QEAA@IIII@Z 0000000180072540     cap.obj
 0002:00021568       $cppxdata$??0?$CImg@M@cimg_library@@QEAA@IIIIM@Z 0000000180072568     cap.obj
 0002:00021590       $cppxdata$?assign@?$CImg@D@cimg_library@@QEAAAEAU12@QEBDIIII@Z 0000000180072590     cap.obj
 0002:000215b8       $cppxdata$??0?$CImg@I@cimg_library@@QEAA@IIII@Z 00000001800725b8     cap.obj
 0002:000215e0       $cppxdata$??0?$CImg@E@cimg_library@@QEAA@AEBU01@_N@Z 00000001800725e0     cap.obj
 0002:00021608       $cppxdata$?save_other@?$CImg@E@cimg_library@@QEBAAEBU12@QEBDI@Z 0000000180072608     cap.obj
 0002:00021630       $cppxdata$??0?$CImg@E@cimg_library@@QEAA@IIII@Z 0000000180072630     cap.obj
 0002:00021658       $cppxdata$??0?$CImg@E@cimg_library@@QEAA@IIIIE@Z 0000000180072658     cap.obj
 0002:00021680       $cppxdata$??0?$CImg@E@cimg_library@@QEAA@AEBU01@@Z 0000000180072680     cap.obj
 0002:000216a8       $cppxdata$??0CImgIOException@cimg_library@@QEAA@QEBDZZ 00000001800726a8     cap.obj
 0002:000216d0       $cppxdata$??0CImgArgumentException@cimg_library@@QEAA@QEBDZZ 00000001800726d0     cap.obj
 0002:000216f8       $cppxdata$??0CImgInstanceException@cimg_library@@QEAA@QEBDZZ 00000001800726f8     cap.obj
 0002:00021720       ?ExceptionTemplate@?1??_UnwindNestedFrames@@9@4U_EXCEPTION_RECORD@@B 0000000180072720     libvcruntime:trnsctrl.obj
 0002:000217f0       L_real_one                 00000001800727f0     libucrt:cosf.obj
 0002:00021800       L_one_half                 0000000180072800     libucrt:cosf.obj
 0002:00021810       L_2bypi                    0000000180072810     libucrt:cosf.obj
 0002:00021820       L_one_sixth                0000000180072820     libucrt:cosf.obj
 0002:00021830       L_piby2                    0000000180072830     libucrt:cosf.obj
 0002:00021840       L_piby2_1                  0000000180072840     libucrt:cosf.obj
 0002:00021850       L_piby2_1tail              0000000180072850     libucrt:cosf.obj
 0002:00021860       L_piby2_2                  0000000180072860     libucrt:cosf.obj
 0002:00021870       L_piby2_2tail              0000000180072870     libucrt:cosf.obj
 0002:00021880       L_large_x_sse2             0000000180072880     libucrt:cosf.obj
 0002:00021890       L_large_x_fma3             0000000180072890     libucrt:cosf.obj
 0002:000218a0       L_sign_mask                00000001800728a0     libucrt:cosf.obj
 0002:000218b0       L__int_three               00000001800728b0     libucrt:cosf.obj
 0002:000218c0       L__min_norm_double         00000001800728c0     libucrt:cosf.obj
 0002:000218d0       L_two_to_neg_7             00000001800728d0     libucrt:cosf.obj
 0002:000218e0       L_two_to_neg_13            00000001800728e0     libucrt:cosf.obj
 0002:000218f0       L_two_to_32_float          00000001800728f0     libucrt:cosf.obj
 0002:000218f8       L_one_float                00000001800728f8     libucrt:cosf.obj
 0002:00021900       L_inf_mask_32              0000000180072900     libucrt:cosf.obj
 0002:00021910       __flag_x_nan               0000000180072910     libucrt:exp.obj
 0002:00021914       __flag_y_zero              0000000180072914     libucrt:exp.obj
 0002:00021918       __flag_y_inf               0000000180072918     libucrt:exp.obj
 0002:00021920       L__real_1_by_720           0000000180072920     libucrt:exp.obj
 0002:00021930       L__real_1_by_120           0000000180072930     libucrt:exp.obj
 0002:00021940       L__real_1_by_6             0000000180072940     libucrt:exp.obj
 0002:00021950       L__real_1_by_2             0000000180072950     libucrt:exp.obj
 0002:00021960       L__real_1_by_24            0000000180072960     libucrt:exp.obj
 0002:00021970       L__log2_by_64_mtail_mhead  0000000180072970     libucrt:exp.obj
 0002:00021980       L__ln_of_smallest_normal   0000000180072980     libucrt:exp.obj
 0002:00021988       L__zero                    0000000180072988     libucrt:exp.obj
 0002:00021990       L__max_exp_arg             0000000180072990     libucrt:exp.obj
 0002:00021998       L__denormal_tiny_threshold 0000000180072998     libucrt:exp.obj
 0002:000219a0       L__min_exp_arg             00000001800729a0     libucrt:exp.obj
 0002:000219a8       L__real_64_by_log2         00000001800729a8     libucrt:exp.obj
 0002:000219b0       L__positive_infinity       00000001800729b0     libucrt:exp.obj
 0002:000219b8       L__negative_infinity       00000001800729b8     libucrt:exp.obj
 0002:000219c0       L__real_qnanbit            00000001800729c0     libucrt:exp.obj
 0002:000219c8       L__real_x_near0_threshold  00000001800729c8     libucrt:exp.obj
 0002:000219d0       L__log2_by_64_mhead        00000001800729d0     libucrt:exp.obj
 0002:000219d8       L__log2_by_64_mtail        00000001800729d8     libucrt:exp.obj
 0002:000219e0       L__real_smallest_denormal  00000001800729e0     libucrt:exp.obj
 0002:000219e8       L__real_one                00000001800729e8     libucrt:exp.obj
 0002:000219f0       L__2_to_neg_26             00000001800729f0     libucrt:exp.obj
 0002:000219f8       L__2_to_32                 00000001800729f8     libucrt:exp.obj
 0002:00021a00       L__min_normal              0000000180072a00     libucrt:exp.obj
 0002:00021a08       L__2_to_neg_63             0000000180072a08     libucrt:exp.obj
 0002:00021a10       __real_inf                 0000000180072a10     libucrt:expf.obj
 0002:00021a20       __real_p8192               0000000180072a20     libucrt:expf.obj
 0002:00021a30       __real_m9600               0000000180072a30     libucrt:expf.obj
 0002:00021a40       __real_64_by_log2          0000000180072a40     libucrt:expf.obj
 0002:00021a50       __real_log2_by_64          0000000180072a50     libucrt:expf.obj
 0002:00021a60       __real_1_by_6              0000000180072a60     libucrt:expf.obj
 0002:00021a70       __real_1_by_2              0000000180072a70     libucrt:expf.obj
 0002:00021a80       __real_ninf                0000000180072a80     libucrt:expf.obj
 0002:00021a84       __real_qnanbit             0000000180072a84     libucrt:expf.obj
 0002:00021a88       __max_exp_arg              0000000180072a88     libucrt:expf.obj
 0002:00021a8c       __flag_x_nan               0000000180072a8c     libucrt:expf.obj
 0002:00021a90       __flag_y_zero              0000000180072a90     libucrt:expf.obj
 0002:00021a94       __flag_y_inf               0000000180072a94     libucrt:expf.obj
 0002:00021aa0       __real_ninf                0000000180072aa0     libucrt:log.obj
 0002:00021ab0       __real_inf                 0000000180072ab0     libucrt:log.obj
 0002:00021ac0       __real_neg_qnan            0000000180072ac0     libucrt:log.obj
 0002:00021ad0       __real_qnanbit             0000000180072ad0     libucrt:log.obj
 0002:00021ae0       __real_min_norm            0000000180072ae0     libucrt:log.obj
 0002:00021af0       __real_mant                0000000180072af0     libucrt:log.obj
 0002:00021b00       __mask_1023                0000000180072b00     libucrt:log.obj
 0002:00021b10       __mask_001                 0000000180072b10     libucrt:log.obj
 0002:00021b20       __mask_mant_all8           0000000180072b20     libucrt:log.obj
 0002:00021b30       __mask_mant9               0000000180072b30     libucrt:log.obj
 0002:00021b40       __real_two                 0000000180072b40     libucrt:log.obj
 0002:00021b50       __real_one                 0000000180072b50     libucrt:log.obj
 0002:00021b60       __real_near_one_lt         0000000180072b60     libucrt:log.obj
 0002:00021b70       __real_near_one_gt         0000000180072b70     libucrt:log.obj
 0002:00021b80       __real_half                0000000180072b80     libucrt:log.obj
 0002:00021b90       __mask_100                 0000000180072b90     libucrt:log.obj
 0002:00021ba0       __real_1_over_512          0000000180072ba0     libucrt:log.obj
 0002:00021bb0       __real_1_over_2            0000000180072bb0     libucrt:log.obj
 0002:00021bc0       __real_1_over_3            0000000180072bc0     libucrt:log.obj
 0002:00021bd0       __real_1_over_4            0000000180072bd0     libucrt:log.obj
 0002:00021be0       __real_1_over_5            0000000180072be0     libucrt:log.obj
 0002:00021bf0       __real_1_over_6            0000000180072bf0     libucrt:log.obj
 0002:00021c00       __mask_1023_f              0000000180072c00     libucrt:log.obj
 0002:00021c10       __mask_2045                0000000180072c10     libucrt:log.obj
 0002:00021c20       __real_threshold           0000000180072c20     libucrt:log.obj
 0002:00021c30       __real_notsign             0000000180072c30     libucrt:log.obj
 0002:00021c40       __real_ca1                 0000000180072c40     libucrt:log.obj
 0002:00021c50       __real_ca2                 0000000180072c50     libucrt:log.obj
 0002:00021c60       __real_ca3                 0000000180072c60     libucrt:log.obj
 0002:00021c70       __real_ca4                 0000000180072c70     libucrt:log.obj
 0002:00021c80       __real_log2_lead           0000000180072c80     libucrt:log.obj
 0002:00021c90       __real_log2_tail           0000000180072c90     libucrt:log.obj
 0002:00021ca0       __flag_x_zero              0000000180072ca0     libucrt:log.obj
 0002:00021ca4       __flag_x_neg               0000000180072ca4     libucrt:log.obj
 0002:00021ca8       __flag_x_nan               0000000180072ca8     libucrt:log.obj
 0002:00021cb0       L_signbit                  0000000180072cb0     libucrt:sinf.obj
 0002:00021cc0       L_sign_mask                0000000180072cc0     libucrt:sinf.obj
 0002:00021cd0       L_one                      0000000180072cd0     libucrt:sinf.obj
 0002:00021ce0       L_int_three                0000000180072ce0     libucrt:sinf.obj
 0002:00021cf0       L_one_half                 0000000180072cf0     libucrt:sinf.obj
 0002:00021d00       L_twobypi                  0000000180072d00     libucrt:sinf.obj
 0002:00021d10       L_piby2_1                  0000000180072d10     libucrt:sinf.obj
 0002:00021d20       L_one_sixth                0000000180072d20     libucrt:sinf.obj
 0002:00021d30       L_piby2_1tail              0000000180072d30     libucrt:sinf.obj
 0002:00021d40       L_piby2_2                  0000000180072d40     libucrt:sinf.obj
 0002:00021d50       L_piby2_2tail              0000000180072d50     libucrt:sinf.obj
 0002:00021d60       L_inf_mask_32              0000000180072d60     libucrt:sinf.obj
 0002:00021d70       L_int_two                  0000000180072d70     libucrt:sinf.obj
 0002:00021d80       L_piby2_lead               0000000180072d80     libucrt:sinf.obj
 0002:00021d90       L_piby4                    0000000180072d90     libucrt:sinf.obj
 0002:00021da0       L_mask_3f2                 0000000180072da0     libucrt:sinf.obj
 0002:00021db0       L_mask_3f8                 0000000180072db0     libucrt:sinf.obj
 0002:00021dc0       L_large_x_fma3             0000000180072dc0     libucrt:sinf.obj
 0002:00021dc8       L_large_x_sse2             0000000180072dc8     libucrt:sinf.obj
 0002:00021dd0       L_near_one                 0000000180072dd0     libucrt:sinf.obj
 0002:00021dd8       L_two_to_32                0000000180072dd8     libucrt:sinf.obj
 0002:00021de0       L__piby2                   0000000180072de0     libucrt:remainder_piby2f_forasm.obj
 0002:00021df0       L_piby2_lead               0000000180072df0     libucrt:remainder_piby2_forfma3.obj
 0002:00021e00       L_fff800                   0000000180072e00     libucrt:remainder_piby2_forfma3.obj
 0002:00021e10       L_piby2_part1              0000000180072e10     libucrt:remainder_piby2_forfma3.obj
 0002:00021e20       L_piby2_part2              0000000180072e20     libucrt:remainder_piby2_forfma3.obj
 0002:00021e30       L_piby2_part3              0000000180072e30     libucrt:remainder_piby2_forfma3.obj
 0002:00021e40       L_piby2_1                  0000000180072e40     libucrt:remainder_piby2_forfma3.obj
 0002:00021e50       L_piby2_2                  0000000180072e50     libucrt:remainder_piby2_forfma3.obj
 0002:00021e60       L_piby2_3                  0000000180072e60     libucrt:remainder_piby2_forfma3.obj
 0002:00021e70       L_piby2_1tail              0000000180072e70     libucrt:remainder_piby2_forfma3.obj
 0002:00021e80       L_piby2_2tail              0000000180072e80     libucrt:remainder_piby2_forfma3.obj
 0002:00021e90       L_piby2_3tail              0000000180072e90     libucrt:remainder_piby2_forfma3.obj
 0002:00021ea0       L_sign_mask                0000000180072ea0     libucrt:remainder_piby2_forfma3.obj
 0002:00021eb0       L_twobypi                  0000000180072eb0     libucrt:remainder_piby2_forfma3.obj
 0002:00021ec0       L_point_five               0000000180072ec0     libucrt:remainder_piby2_forfma3.obj
 0002:00021ed0       L_int_three                0000000180072ed0     libucrt:remainder_piby2_forfma3.obj
 0002:00021ee0       L_inf_mask_64              0000000180072ee0     libucrt:remainder_piby2_forfma3.obj
 0002:00021ef0       L_signbit                  0000000180072ef0     libucrt:remainder_piby2_forfma3.obj
 0002:00021f00       L_r                        0000000180072f00     libucrt:remainder_piby2_forfma3.obj
 0002:00021f10       L_xc1                      0000000180072f10     libucrt:remainder_piby2_forfma3.obj
 0002:00021f20       L_xc2                      0000000180072f20     libucrt:remainder_piby2_forfma3.obj
 0002:00021f30       L_xc3                      0000000180072f30     libucrt:remainder_piby2_forfma3.obj
 0002:00021f40       L_sigma                    0000000180072f40     libucrt:remainder_piby2_forfma3.obj
 0002:00023680       L__piby2                   0000000180074680     libucrt:remainder_piby2f_forc.obj
 0002:00023690       L__2_by_pi_bits            0000000180074690     libucrt:remainder_piby2f_forc.obj
 0002:00024090       $unwind$?NODE_SET_METHOD@node@@YAXV?$Local@VObject@v8@@@v8@@PEBDP6AXAEBV?$FunctionCallbackInfo@VValue@v8@@@3@@Z@Z 0000000180075090     hcaptha.obj
 0002:00024098       $unwind$__scrt_dllmain_after_initialize_c 0000000180075098     LIBCMT:utility.obj
 0002:00024098       $unwind$__scrt_dllmain_before_initialize_c 0000000180075098     LIBCMT:utility.obj
 0002:00024098       $unwind$__scrt_acquire_startup_lock 0000000180075098     LIBCMT:utility.obj
 0002:00024098       $unwind$atexit             0000000180075098     LIBCMT:utility.obj
 0002:00024098       $unwind$?dllmain_crt_dispatch@@YAHQEAUHINSTANCE__@@KQEAX@Z 0000000180075098     LIBCMT:dll_dllmain.obj
 0002:00024098       $unwind$_invoke_watson     0000000180075098     libucrt:invalid_parameter.obj
 0002:00024098       $unwind$?__scrt_uninitialize_thread_safe_statics@@YAXXZ 0000000180075098     LIBCMT:thread_safe_statics.obj
 0002:00024098       $unwind$?programfiles_path@cimg@cimg_library@@YAPEBDQEBD_N@Z 0000000180075098     cap.obj
 0002:00024098       $unwind$__acrt_initialize_ptd 0000000180075098     libucrt:per_thread_data.obj
 0002:00024098       $unwind$__pctype_func      0000000180075098     libucrt:ctype.obj
 0002:00024098       $unwind$__report_rangecheckfailure 0000000180075098     LIBCMT:gs_report.obj
 0002:00024098       $unwind$__GSHandlerCheck   0000000180075098     LIBCMT:_gshandler_.obj
 0002:00024098       $unwind$?initialize_multibyte@@YAHXZ 0000000180075098     libucrt:multibyte_initializer.obj
 0002:00024098       $unwind$__acrt_DownlevelLocaleNameToLCID 0000000180075098     libucrt:lcidtoname_downlevel.obj
 0002:00024098       $unwind$_strnicmp          0000000180075098     libucrt:strnicmp.obj
 0002:00024098       $unwind$?medcon_path@cimg@cimg_library@@YAPEBDQEBD_N@Z 0000000180075098     cap.obj
 0002:00024098       $unwind$__vcrt_thread_detach 0000000180075098     libvcruntime:initialization.obj
 0002:00024098       $unwind$__acrt_uninitialize_ptd 0000000180075098     libucrt:per_thread_data.obj
 0002:00024098       $unwind$?ffmpeg_path@cimg@cimg_library@@YAPEBDQEBD_N@Z 0000000180075098     cap.obj
 0002:00024098       $unwind$_stricmp           0000000180075098     libucrt:stricmp.obj
 0002:00024098       $unwind$?gzip_path@cimg@cimg_library@@YAPEBDQEBD_N@Z 0000000180075098     cap.obj
 0002:00024098       $unwind$__scrt_dllmain_uninitialize_c 0000000180075098     LIBCMT:utility.obj
 0002:00024098       $unwind$__scrt_dllmain_uninitialize_critical 0000000180075098     LIBCMT:utility.obj
 0002:00024098       $unwind$__vcrt_initialize_ptd 0000000180075098     libvcruntime:per_thread_data.obj
 0002:00024098       $unwind$rand               0000000180075098     libucrt:rand.obj
 0002:00024098       $unwind$__scrt_dllmain_crt_thread_attach 0000000180075098     LIBCMT:utility.obj
 0002:00024098       $unwind$__vcrt_uninitialize_ptd 0000000180075098     libvcruntime:per_thread_data.obj
 0002:00024098       $unwind$abort              0000000180075098     libucrt:abort.obj
 0002:00024098       $unwind$__scrt_dllmain_crt_thread_detach 0000000180075098     LIBCMT:utility.obj
 0002:00024098       $unwind$__acrt_initialize_command_line 0000000180075098     libucrt:argv_data.obj
 0002:00024098       $unwind$__vcrt_getptd      0000000180075098     libvcruntime:per_thread_data.obj
 0002:00024098       $unwind$_errno             0000000180075098     libucrt:errno.obj
 0002:00024098       $unwind$__doserrno         0000000180075098     libucrt:errno.obj
 0002:00024098       $unwind$?validate_stream_is_ansi_if_required@?$__acrt_stdio_char_traits@D@@SA_NQEAU_iobuf@@@Z 0000000180075098     libucrt:output.obj
 0002:00024098       $unwind$??__Etext@img_obj@@YAXXZ 0000000180075098     cap.obj
 0002:00024098       $unwind$??__Ftext@img_obj@@YAXXZ 0000000180075098     cap.obj
 0002:00024098       $unwind$??__Efilename@img_obj@@YAXXZ 0000000180075098     cap.obj
 0002:00024098       $unwind$__vcrt_thread_attach 0000000180075098     libvcruntime:initialization.obj
 0002:00024098       $unwind$??__Ffilename@img_obj@@YAXXZ 0000000180075098     cap.obj
 0002:00024098       $unwind$?state_case_size@?$output_processor@DV?$stream_output_adapter@D@__crt_stdio_output@@V?$standard_base@DV?$stream_output_adapter@D@__crt_stdio_output@@@2@@__crt_stdio_output@@AEAA_NXZ 0000000180075098     libucrt:output.obj
 0002:00024098       $unwind$?state_case_normal_tchar@?$output_processor@DV?$string_output_adapter@D@__crt_stdio_output@@V?$standard_base@DV?$string_output_adapter@D@__crt_stdio_output@@@2@@__crt_stdio_output@@AEAA_ND@Z 0000000180075098     libucrt:output.obj
 0002:00024098       $unwind$?state_case_size@?$output_processor@DV?$string_output_adapter@D@__crt_stdio_output@@V?$standard_base@DV?$string_output_adapter@D@__crt_stdio_output@@@2@@__crt_stdio_output@@AEAA_NXZ 0000000180075098     libucrt:output.obj
 0002:00024098       $unwind$_get_osfhandle     0000000180075098     libucrt:osfinfo.obj
 0002:00024098       $unwind$_set_errno_from_matherr 0000000180075098     libucrt:fpexcept.obj
 0002:00024098       $unwind$fegetround         0000000180075098     libucrt:fegetround.obj
 0002:00024098       $unwind$__scrt_initialize_default_local_stdio_options 0000000180075098     LIBCMT:default_local_stdio_options.obj
 0002:00024098       $unwind$_msize             0000000180075098     libucrt:msize.obj
 0002:00024098       $unwind$__vcrt_freefls     0000000180075098     libvcruntime:per_thread_data.obj
 0002:00024098       $unwind$__vcrt_uninitialize_critical 0000000180075098     libvcruntime:initialization.obj
 0002:00024098       $unwind$__vcrt_uninitialize 0000000180075098     libvcruntime:initialization.obj
 0002:00024098       $unwind$__acrt_initialize_heap 0000000180075098     libucrt:heap_handle.obj
 0002:00024098       $unwind$__FrameUnwindFilter 0000000180075098     libvcruntime:frame.obj
 0002:00024098       $unwind$?output@cimg@cimg_library@@YAPEAU_iobuf@@PEAU3@@Z 0000000180075098     cap.obj
 0002:00024098       $unwind$__vcrt_initialize  0000000180075098     libvcruntime:initialization.obj
 0002:00024098       $unwind$_wremove           0000000180075098     libucrt:wunlink.obj
 0002:00024098       $unwind$uninitialize_environment 0000000180075098     libucrt:initialization.obj
 0002:00024098       $unwind$_wrename           0000000180075098     libucrt:wrename.obj
 0002:00024098       $unwind$?Win32_attr@cimg@cimg_library@@YAAEAUWin32_info@12@XZ 0000000180075098     cap.obj
 0002:00024098       $unwind$__acrt_initialize_multibyte 0000000180075098     libucrt:mbctype.obj
 0002:00024098       $unwind$__acrt_uninitialize_critical 0000000180075098     libucrt:initialization.obj
 0002:00024098       $unwind$__acrt_thread_attach 0000000180075098     libucrt:initialization.obj
 0002:00024098       $unwind$_get_fmode         0000000180075098     libucrt:setmode.obj
 0002:00024098       $unwind$__acrt_thread_detach 0000000180075098     libucrt:initialization.obj
 0002:00024098       $unwind$?__GetCurrentState@@YAHPEA_KPEAU_xDISPATCHER_CONTEXT@@PEBU_s_FuncInfo@@@Z 0000000180075098     libvcruntime:ehstate.obj
 0002:00024098       $unwind$_fileno            0000000180075098     libucrt:fileno.obj
 0002:00024098       $unwind$_getfpstatusword   0000000180075098     libucrt:_fenvutils.obj
 0002:00024098       $unwind$_getfpcontrolword  0000000180075098     libucrt:_fenvutils.obj
 0002:00024098       $unwind$__dcrt_terminate_console_output 0000000180075098     libucrt:initcon.obj
 0002:00024098       $unwind$_GetImageBase      0000000180075098     libvcruntime:trnsctrl.obj
 0002:00024098       $unwind$_GetThrowImageBase 0000000180075098     libvcruntime:trnsctrl.obj
 0002:00024098       $unwind$??$uninitialize_environment_internal@_W@@YAXAEAPEAPEA_W@Z 0000000180075098     libucrt:environment_initialization.obj
 0002:00024098       $unwind$tolower            0000000180075098     libucrt:tolower_toupper.obj
 0002:00024098       $unwind$??$uninitialize_environment_internal@D@@YAXAEAPEAPEAD@Z 0000000180075098     libucrt:environment_initialization.obj
 0002:00024098       $unwind$__dcrt_uninitialize_environments_nolock 0000000180075098     libucrt:environment_initialization.obj
 0002:00024098       $unwind$__acrt_release_locale_ref 0000000180075098     libucrt:locale_refcounting.obj
 0002:00024098       $unwind$_statfp            0000000180075098     libucrt:fpctrl.obj
 0002:00024098       $unwind$initialize_c       0000000180075098     libucrt:initialization.obj
 0002:00024098       $unwind$?Init@@YAXV?$Local@VObject@v8@@@v8@@@Z 0000000180075098     hcaptha.obj
 0002:00024098       $unwind$_isatty            0000000180075098     libucrt:isatty.obj
 0002:000240a0       $unwind$sprintf            00000001800750a0     cap.obj
 0002:000240a0       $unwind$fprintf            00000001800750a0     cap.obj
 0002:000240a0       $unwind$sscanf             00000001800750a0     cap.obj
 0002:000240ac       $unwind$_snprintf          00000001800750ac     cap.obj
 0002:000240bc       $unwind$__acrt_initialize_locks 00000001800750bc     libucrt:locks.obj
 0002:000240bc       $unwind$??0length_error@std@@QEAA@AEBV01@@Z 00000001800750bc     libcpmt:xthrow.obj
 0002:000240bc       $unwind$??0bad_exception@std@@QEAA@AEBV01@@Z 00000001800750bc     libvcruntime:frame.obj
 0002:000240bc       $unwind$?assign@?$CImg@M@cimg_library@@QEAAAEAU12@XZ 00000001800750bc     cap.obj
 0002:000240bc       $unwind$?state_case_normal@?$output_processor@DV?$string_output_adapter@D@__crt_stdio_output@@V?$standard_base@DV?$string_output_adapter@D@__crt_stdio_output@@@2@@__crt_stdio_output@@AEAA_NXZ 00000001800750bc     libucrt:output.obj
 0002:000240bc       $unwind$_Init_thread_footer 00000001800750bc     LIBCMT:thread_safe_statics.obj
 0002:000240bc       $unwind$?type_case_integer@?$output_processor@DV?$stream_output_adapter@D@__crt_stdio_output@@V?$standard_base@DV?$stream_output_adapter@D@__crt_stdio_output@@@2@@__crt_stdio_output@@AEAA_NI_N@Z 00000001800750bc     libucrt:output.obj
 0002:000240bc       $unwind$__acrt_fp_strflt_to_string 00000001800750bc     libucrt:_fptostr.obj
 0002:000240bc       $unwind$_Init_thread_header 00000001800750bc     LIBCMT:thread_safe_statics.obj
 0002:000240bc       $unwind$remove             00000001800750bc     libucrt:unlink.obj
 0002:000240bc       $unwind$__acrt_uninitialize_locks 00000001800750bc     libucrt:locks.obj
 0002:000240bc       $unwind$_access_s          00000001800750bc     libucrt:access.obj
 0002:000240bc       $unwind$?fill@?$CImg@M@cimg_library@@QEAAAEAU12@M@Z 00000001800750bc     cap.obj
 0002:000240bc       $unwind$fesetenv           00000001800750bc     libucrt:fesetenv.obj
 0002:000240bc       $unwind$_clrfp             00000001800750bc     libucrt:fpctrl.obj
 0002:000240bc       $unwind$?__GetUnwindTryBlock@@YAHPEA_KPEAU_xDISPATCHER_CONTEXT@@PEBU_s_FuncInfo@@@Z 00000001800750bc     libvcruntime:ehstate.obj
 0002:000240bc       $unwind$_setfpstatusword   00000001800750bc     libucrt:_fenvutils.obj
 0002:000240bc       $unwind$?__StateFromIp@@YAHPEBU_s_FuncInfo@@PEAU_xDISPATCHER_CONTEXT@@_J@Z 00000001800750bc     libvcruntime:ehstate.obj
 0002:000240bc       $unwind$?load_exe_hook@@YAP6A_JXZIPEAUDelayLoadInfo@@@Z 00000001800750bc     win_delay_load_hook.obj
 0002:000240bc       $unwind$_calloc_base       00000001800750bc     libucrt:calloc_base.obj
 0002:000240bc       $unwind$??0logic_error@std@@QEAA@AEBV01@@Z 00000001800750bc     libcpmt:xthrow.obj
 0002:000240bc       $unwind$feholdexcept       00000001800750bc     libucrt:feholdexcept.obj
 0002:000240bc       $unwind$?assign@?$CImg@E@cimg_library@@QEAAAEAU12@XZ 00000001800750bc     cap.obj
 0002:000240bc       $unwind$?assign@?$CImg@D@cimg_library@@QEAAAEAU12@XZ 00000001800750bc     cap.obj
 0002:000240bc       $unwind$?state_case_normal_tchar@?$output_processor@DV?$stream_output_adapter@D@__crt_stdio_output@@V?$standard_base@DV?$stream_output_adapter@D@__crt_stdio_output@@@2@@__crt_stdio_output@@AEAA_ND@Z 00000001800750bc     libucrt:output.obj
 0002:000240bc       $unwind$__acrt_AreFileApisANSI 00000001800750bc     libucrt:winapi_thunks.obj
 0002:000240bc       $unwind$??0?$output_processor@DV?$string_output_adapter@D@__crt_stdio_output@@V?$standard_base@DV?$string_output_adapter@D@__crt_stdio_output@@@2@@__crt_stdio_output@@QEAA@AEBV?$string_output_adapter@D@1@_KQEBDQEAU__crt_locale_pointers@@QEAD@Z 00000001800750bc     libucrt:output.obj
 0002:000240bc       $unwind$??_Gexception@stdext@@UEAAPEAXI@Z 00000001800750bc     cap.obj
 0002:000240bc       $unwind$__acrt_freeptd     00000001800750bc     libucrt:per_thread_data.obj
 0002:000240bc       $unwind$?fill@?$CImg@E@cimg_library@@QEAAAEAU12@E@Z 00000001800750bc     cap.obj
 0002:000240bc       $unwind$??_GCImgException@cimg_library@@UEAAPEAXI@Z 00000001800750bc     cap.obj
 0002:000240bc       $unwind$?type_case_integer@?$output_processor@DV?$string_output_adapter@D@__crt_stdio_output@@V?$standard_base@DV?$string_output_adapter@D@__crt_stdio_output@@@2@@__crt_stdio_output@@AEAA_NI_N@Z 00000001800750bc     libucrt:output.obj
 0002:000240bc       $unwind$?state_case_normal@?$output_processor@DV?$stream_output_adapter@D@__crt_stdio_output@@V?$standard_base@DV?$stream_output_adapter@D@__crt_stdio_output@@@2@@__crt_stdio_output@@AEAA_NXZ 00000001800750bc     libucrt:output.obj
 0002:000240bc       $unwind$fegetenv           00000001800750bc     libucrt:fegetenv.obj
 0002:000240bc       $unwind$??0?$output_processor@DV?$stream_output_adapter@D@__crt_stdio_output@@V?$standard_base@DV?$stream_output_adapter@D@__crt_stdio_output@@@2@@__crt_stdio_output@@QEAA@AEBV?$stream_output_adapter@D@1@_KQEBDQEAU__crt_locale_pointers@@QEAD@Z 00000001800750bc     libucrt:output.obj
 0002:000240bc       $unwind$__acrt_uninitialize_winapi_thunks 00000001800750bc     libucrt:winapi_thunks.obj
 0002:000240bc       $unwind$_CreateFrameInfo   00000001800750bc     libvcruntime:trnsctrl.obj
 0002:000240bc       $unwind$??0out_of_range@std@@QEAA@AEBV01@@Z 00000001800750bc     libcpmt:xthrow.obj
 0002:000240bc       $unwind$__acrt_getpath     00000001800750bc     libucrt:getpath.obj
 0002:000240bc       $unwind$__acrt_allocate_buffer_for_argv 00000001800750bc     libucrt:argv_parsing.obj
 0002:000240bc       $unwind$_fflush_nolock     00000001800750bc     libucrt:fflush.obj
 0002:000240bc       $unwind$??_GCImgInstanceException@cimg_library@@UEAAPEAXI@Z 00000001800750bc     cap.obj
 0002:000240bc       $unwind$_IsExceptionObjectToBeDestroyed 00000001800750bc     libvcruntime:trnsctrl.obj
 0002:000240bc       $unwind$?fclose@cimg@cimg_library@@YAHPEAU_iobuf@@@Z 00000001800750bc     cap.obj
 0002:000240bc       $unwind$__vcrt_freeptd     00000001800750bc     libvcruntime:per_thread_data.obj
 0002:000240bc       $unwind$??0bad_alloc@std@@QEAA@AEBV01@@Z 00000001800750bc     libcpmt:xthrow.obj
 0002:000240bc       $unwind$?empty@?$CImgList@M@cimg_library@@SAAEAU12@XZ 00000001800750bc     cap.obj
 0002:000240bc       $unwind$_clearfp           00000001800750bc     libucrt:ieee.obj
 0002:000240bc       $unwind$_SetImageBase      00000001800750bc     libvcruntime:trnsctrl.obj
 0002:000240bc       $unwind$??_GCImgArgumentException@cimg_library@@UEAAPEAXI@Z 00000001800750bc     cap.obj
 0002:000240bc       $unwind$__scrt_uninitialize_crt 00000001800750bc     LIBCMT:utility.obj
 0002:000240bc       $unwind$__std_type_info_destroy_list 00000001800750bc     libvcruntime:std_type_info.obj
 0002:000240bc       $unwind$__scrt_initialize_crt 00000001800750bc     LIBCMT:utility.obj
 0002:000240bc       $unwind$__acrt_uninitialize_stdio 00000001800750bc     libucrt:_file.obj
 0002:000240bc       $unwind$??0exception@std@@QEAA@AEBV01@@Z 00000001800750bc     libcpmt:xthrow.obj
 0002:000240bc       $unwind$initialize_pointers 00000001800750bc     libucrt:initialization.obj
 0002:000240bc       $unwind$__vcrt_uninitialize_locks 00000001800750bc     libvcruntime:locks.obj
 0002:000240bc       $unwind$__acrt_stdio_free_buffer_nolock 00000001800750bc     libucrt:_freebuf.obj
 0002:000240bc       $unwind$?scan_optional_field_width@?$format_string_parser@D@__crt_stdio_input@@AEAA_NXZ 00000001800750bc     libucrt:input.obj
 0002:000240bc       $unwind$_set_statfp        00000001800750bc     libucrt:fpctrl.obj
 0002:000240bc       $unwind$??_GCImgIOException@cimg_library@@UEAAPEAXI@Z 00000001800750bc     cap.obj
 0002:000240bc       $unwind$?exit_or_terminate_process@@YAXI@Z 00000001800750bc     libucrt:exit.obj
 0002:000240bc       $unwind$_SetThrowImageBase 00000001800750bc     libvcruntime:trnsctrl.obj
 0002:000240bc       $unwind$__scrt_release_startup_lock 00000001800750bc     LIBCMT:utility.obj
 0002:000240bc       $unwind$__std_exception_destroy 00000001800750bc     libvcruntime:std_exception.obj
 0002:000240bc       $unwind$?DloadReleaseSectionWriteAccess@@YAXXZ 00000001800750bc     DelayImp:delayhlp.obj
 0002:000240bc       $unwind$__acrt_stdio_allocate_buffer_nolock 00000001800750bc     libucrt:_getbuf.obj
 0002:000240bc       $unwind$__acrt_update_multibyte_info 00000001800750bc     libucrt:locale_update.obj
 0002:000240bc       $unwind$__acrt_update_locale_info 00000001800750bc     libucrt:locale_update.obj
 0002:000240bc       $unwind$uninitialize_allocated_memory 00000001800750bc     libucrt:initialization.obj
 0002:000240bc       $unwind$strcpy_s           00000001800750bc     libucrt:strcpy_s.obj
 0002:000240bc       $unwind$??$common_get_or_create_environment_nolock@D@@YAPEAPEADXZ 00000001800750bc     libucrt:environment_initialization.obj
 0002:000240bc       $unwind$_onexit            00000001800750bc     LIBCMT:utility.obj
 0002:000240bc       $unwind$?set_key@CImgDisplay@cimg_library@@QEAAAEAU12@XZ 00000001800750bc     cap.obj
 0002:000240bc       $unwind$??0bad_array_new_length@std@@QEAA@AEBV01@@Z 00000001800750bc     LIBCMT:throw_bad_alloc.obj
 0002:000240bc       $unwind$__vcrt_initialize_locks 00000001800750bc     libvcruntime:locks.obj
 0002:000240bc       $unwind$_malloc_base       00000001800750bc     libucrt:malloc_base.obj
 0002:000240bc       $unwind$__raise_securityfailure 00000001800750bc     LIBCMT:gs_report.obj
 0002:000240bc       $unwind$??_Gtype_info@@UEAAPEAXI@Z 00000001800750bc     LIBCMT:std_type_info_static.obj
 0002:000240bc       $unwind$srand              00000001800750bc     libucrt:rand.obj
 0002:000240bc       $unwind$??2@YAPEAX_K@Z     00000001800750bc     LIBCMT:new_scalar.obj
 0002:000240bc       $unwind$strcat_s           00000001800750bc     libucrt:strcat_s.obj
 0002:000240bc       $unwind$_Init_thread_notify 00000001800750bc     LIBCMT:thread_safe_statics.obj
 0002:000240c4       $unwind$??0CImgInstanceException@cimg_library@@QEAA@QEBDZZ 00000001800750c4     cap.obj
 0002:000240dc       $stateUnwindMap$??0?$CImg@M@cimg_library@@QEAA@IIIIM@Z 00000001800750dc     cap.obj
 0002:000240dc       $stateUnwindMap$??0CImgIOException@cimg_library@@QEAA@QEBDZZ 00000001800750dc     cap.obj
 0002:000240dc       $stateUnwindMap$??0?$CImg@M@cimg_library@@QEAA@IIII@Z 00000001800750dc     cap.obj
 0002:000240dc       $stateUnwindMap$??0?$CImg@M@cimg_library@@QEAA@AEBU01@_N@Z 00000001800750dc     cap.obj
 0002:000240dc       $stateUnwindMap$??0?$CImg@E@cimg_library@@QEAA@IIII@Z 00000001800750dc     cap.obj
 0002:000240dc       $stateUnwindMap$??0?$CImg@E@cimg_library@@QEAA@IIIIE@Z 00000001800750dc     cap.obj
 0002:000240dc       $stateUnwindMap$?assign@?$CImg@M@cimg_library@@QEAAAEAU12@QEBMIIII@Z 00000001800750dc     cap.obj
 0002:000240dc       $stateUnwindMap$??0?$CImg@I@cimg_library@@QEAA@IIII@Z 00000001800750dc     cap.obj
 0002:000240dc       $stateUnwindMap$??0CImgArgumentException@cimg_library@@QEAA@QEBDZZ 00000001800750dc     cap.obj
 0002:000240dc       $stateUnwindMap$?assign@?$CImg@D@cimg_library@@QEAAAEAU12@IIII@Z 00000001800750dc     cap.obj
 0002:000240dc       $stateUnwindMap$??0?$CImg@E@cimg_library@@QEAA@AEBU01@@Z 00000001800750dc     cap.obj
 0002:000240dc       $stateUnwindMap$??0CImgInstanceException@cimg_library@@QEAA@QEBDZZ 00000001800750dc     cap.obj
 0002:000240dc       $stateUnwindMap$?assign@?$CImg@E@cimg_library@@QEAAAEAU12@QEBEIIII@Z 00000001800750dc     cap.obj
 0002:000240dc       $stateUnwindMap$?assign@?$CImg@E@cimg_library@@QEAAAEAU12@IIII@Z 00000001800750dc     cap.obj
 0002:000240dc       $stateUnwindMap$?assign@?$CImg@M@cimg_library@@QEAAAEAU12@IIII@Z 00000001800750dc     cap.obj
 0002:000240dc       $stateUnwindMap$??0?$CImg@K@cimg_library@@QEAA@IIII@Z 00000001800750dc     cap.obj
 0002:000240dc       $stateUnwindMap$??0?$CImg@D@cimg_library@@QEAA@AEBU01@@Z 00000001800750dc     cap.obj
 0002:000240dc       $stateUnwindMap$??0?$CImg@D@cimg_library@@QEAA@QEBDIIII_N@Z 00000001800750dc     cap.obj
 0002:000240dc       $stateUnwindMap$??0?$CImg@G@cimg_library@@QEAA@IIII@Z 00000001800750dc     cap.obj
 0002:000240dc       $stateUnwindMap$?assign@?$CImg@D@cimg_library@@QEAAAEAU12@QEBDIIII@Z 00000001800750dc     cap.obj
 0002:000240dc       $stateUnwindMap$??0?$CImg@M@cimg_library@@QEAA@AEBU01@@Z 00000001800750dc     cap.obj
 0002:000240dc       $stateUnwindMap$??0?$CImg@E@cimg_library@@QEAA@AEBU01@_N@Z 00000001800750dc     cap.obj
 0002:000240dc       $stateUnwindMap$??0?$CImg@D@cimg_library@@QEAA@AEBU01@_N@Z 00000001800750dc     cap.obj
 0002:000240ec       $tryMap$??0CImgInstanceException@cimg_library@@QEAA@QEBDZZ 00000001800750ec     cap.obj
 0002:00024100       $handlerMap$0$??0CImgInstanceException@cimg_library@@QEAA@QEBDZZ 0000000180075100     cap.obj
 0002:00024118       $ip2state$??0CImgInstanceException@cimg_library@@QEAA@QEBDZZ 0000000180075118     cap.obj
 0002:00024138       $unwind$?catch$0@?0???0CImgInstanceException@cimg_library@@QEAA@QEBDZZ@4HA 0000000180075138     cap.obj
 0002:00024148       $unwind$??0CImgArgumentException@cimg_library@@QEAA@QEBDZZ 0000000180075148     cap.obj
 0002:00024160       $tryMap$??0CImgArgumentException@cimg_library@@QEAA@QEBDZZ 0000000180075160     cap.obj
 0002:00024174       $handlerMap$0$??0CImgArgumentException@cimg_library@@QEAA@QEBDZZ 0000000180075174     cap.obj
 0002:00024188       $ip2state$??0CImgArgumentException@cimg_library@@QEAA@QEBDZZ 0000000180075188     cap.obj
 0002:000241a8       $unwind$?catch$0@?0???0CImgArgumentException@cimg_library@@QEAA@QEBDZZ@4HA 00000001800751a8     cap.obj
 0002:000241b8       $unwind$??0CImgIOException@cimg_library@@QEAA@QEBDZZ 00000001800751b8     cap.obj
 0002:000241d0       $tryMap$??0CImgIOException@cimg_library@@QEAA@QEBDZZ 00000001800751d0     cap.obj
 0002:000241e4       $handlerMap$0$??0CImgIOException@cimg_library@@QEAA@QEBDZZ 00000001800751e4     cap.obj
 0002:000241f8       $ip2state$??0CImgIOException@cimg_library@@QEAA@QEBDZZ 00000001800751f8     cap.obj
 0002:00024218       $unwind$?catch$0@?0???0CImgIOException@cimg_library@@QEAA@QEBDZZ@4HA 0000000180075218     cap.obj
 0002:00024228       $unwind$?warn@cimg@cimg_library@@YAXQEBDZZ 0000000180075228     cap.obj
 0002:0002423c       $chain$0$?warn@cimg@cimg_library@@YAXQEBDZZ 000000018007523c     cap.obj
 0002:00024250       $chain$1$?warn@cimg@cimg_library@@YAXQEBDZZ 0000000180075250     cap.obj
 0002:00024260       $unwind$?system@cimg@cimg_library@@YAHQEBD0@Z 0000000180075260     cap.obj
 0002:0002426c       $unwind$?_wait@cimg@cimg_library@@YAIIAEAK@Z 000000018007526c     cap.obj
 0002:0002426c       $unwind$?filenamerand@cimg@cimg_library@@YAPEBDXZ 000000018007526c     cap.obj
 0002:00024280       $unwind$?strncasecmp@cimg@cimg_library@@YAHQEBD0H@Z 0000000180075280     cap.obj
 0002:0002428c       $unwind$??0out_of_range@std@@QEAA@PEBD@Z 000000018007528c     libcpmt:xthrow.obj
 0002:0002428c       $unwind$strtol             000000018007528c     libucrt:strtox.obj
 0002:0002428c       $unwind$strtoull           000000018007528c     libucrt:strtox.obj
 0002:0002428c       $unwind$?assign@?$CImg@E@cimg_library@@QEAAAEAU12@IIIIE@Z 000000018007528c     cap.obj
 0002:0002428c       $unwind$??0length_error@std@@QEAA@PEBD@Z 000000018007528c     libcpmt:xthrow.obj
 0002:0002428c       $unwind$?strbuffersize@cimg@cimg_library@@YAPEBDK@Z 000000018007528c     cap.obj
 0002:00024294       $unwind$?winformat_string@cimg@cimg_library@@YAXQEAD@Z 0000000180075294     cap.obj
 0002:0002429c       $chain$0$?winformat_string@cimg@cimg_library@@YAXQEAD@Z 000000018007529c     cap.obj
 0002:000242b0       $chain$1$?winformat_string@cimg@cimg_library@@YAXQEAD@Z 00000001800752b0     cap.obj
 0002:000242c0       $unwind$?fopen@cimg@cimg_library@@YAPEAU_iobuf@@QEBD0@Z 00000001800752c0     cap.obj
 0002:000242d8       $chain$0$?fopen@cimg@cimg_library@@YAPEAU_iobuf@@QEBD0@Z 00000001800752d8     cap.obj
 0002:000242ec       $chain$1$?fopen@cimg@cimg_library@@YAPEAU_iobuf@@QEBD0@Z 00000001800752ec     cap.obj
 0002:000242fc       $chain$2$?fopen@cimg@cimg_library@@YAPEAU_iobuf@@QEBD0@Z 00000001800752fc     cap.obj
 0002:00024310       $unwind$?temporary_path@cimg@cimg_library@@YAPEBDQEBD_N@Z 0000000180075310     cap.obj
 0002:00024328       $chain$0$?programfiles_path@cimg@cimg_library@@YAPEBDQEBD_N@Z 0000000180075328     cap.obj
 0002:0002433c       $chain$1$?programfiles_path@cimg@cimg_library@@YAPEBDQEBD_N@Z 000000018007533c     cap.obj
 0002:0002434c       $unwind$?__scrt_throw_std_bad_array_new_length@@YAXXZ 000000018007534c     LIBCMT:throw_bad_alloc.obj
 0002:0002434c       $unwind$?graphicsmagick_path@cimg@cimg_library@@YAPEBDQEBD_N@Z 000000018007534c     cap.obj
 0002:0002434c       $unwind$?_Xbad_alloc@std@@YAXXZ 000000018007534c     libcpmt:xthrow.obj
 0002:0002434c       $unwind$?_Xlength_error@std@@YAXPEBD@Z 000000018007534c     libcpmt:xthrow.obj
 0002:0002434c       $unwind$__dcrt_lowio_initialize_console_output 000000018007534c     libucrt:initcon.obj
 0002:0002434c       $unwind$?_Xout_of_range@std@@YAXPEBD@Z 000000018007534c     libcpmt:xthrow.obj
 0002:0002434c       $unwind$_raise_excf        000000018007534c     libucrt:fpexcept.obj
 0002:0002434c       $unwind$?imagemagick_path@cimg@cimg_library@@YAPEBDQEBD_N@Z 000000018007534c     cap.obj
 0002:0002434c       $unwind$_raise_exc         000000018007534c     libucrt:fpexcept.obj
 0002:0002434c       $unwind$?__scrt_throw_std_bad_alloc@@YAXXZ 000000018007534c     LIBCMT:throw_bad_alloc.obj
 0002:00024354       $chain$0$?imagemagick_path@cimg@cimg_library@@YAPEBDQEBD_N@Z 0000000180075354     cap.obj
 0002:00024368       $chain$5$?imagemagick_path@cimg@cimg_library@@YAPEBDQEBD_N@Z 0000000180075368     cap.obj
 0002:0002438c       $chain$6$?imagemagick_path@cimg@cimg_library@@YAPEBDQEBD_N@Z 000000018007538c     cap.obj
 0002:000243ac       $chain$7$?imagemagick_path@cimg@cimg_library@@YAPEBDQEBD_N@Z 00000001800753ac     cap.obj
 0002:000243c8       $chain$8$?imagemagick_path@cimg@cimg_library@@YAPEBDQEBD_N@Z 00000001800753c8     cap.obj
 0002:000243e0       $chain$9$?imagemagick_path@cimg@cimg_library@@YAPEBDQEBD_N@Z 00000001800753e0     cap.obj
 0002:000243f4       $chain$11$?imagemagick_path@cimg@cimg_library@@YAPEBDQEBD_N@Z 00000001800753f4     cap.obj
 0002:0002440c       $chain$12$?imagemagick_path@cimg@cimg_library@@YAPEBDQEBD_N@Z 000000018007540c     cap.obj
 0002:0002441c       $chain$0$?graphicsmagick_path@cimg@cimg_library@@YAPEBDQEBD_N@Z 000000018007541c     cap.obj
 0002:00024430       $chain$5$?graphicsmagick_path@cimg@cimg_library@@YAPEBDQEBD_N@Z 0000000180075430     cap.obj
 0002:00024454       $chain$6$?graphicsmagick_path@cimg@cimg_library@@YAPEBDQEBD_N@Z 0000000180075454     cap.obj
 0002:00024474       $chain$7$?graphicsmagick_path@cimg@cimg_library@@YAPEBDQEBD_N@Z 0000000180075474     cap.obj
 0002:00024490       $chain$8$?graphicsmagick_path@cimg@cimg_library@@YAPEBDQEBD_N@Z 0000000180075490     cap.obj
 0002:000244a8       $chain$9$?graphicsmagick_path@cimg@cimg_library@@YAPEBDQEBD_N@Z 00000001800754a8     cap.obj
 0002:000244bc       $chain$11$?graphicsmagick_path@cimg@cimg_library@@YAPEBDQEBD_N@Z 00000001800754bc     cap.obj
 0002:000244d4       $chain$12$?graphicsmagick_path@cimg@cimg_library@@YAPEBDQEBD_N@Z 00000001800754d4     cap.obj
 0002:000244e4       $chain$0$?medcon_path@cimg@cimg_library@@YAPEBDQEBD_N@Z 00000001800754e4     cap.obj
 0002:000244f8       $chain$1$?medcon_path@cimg@cimg_library@@YAPEBDQEBD_N@Z 00000001800754f8     cap.obj
 0002:00024508       $chain$0$?ffmpeg_path@cimg@cimg_library@@YAPEBDQEBD_N@Z 0000000180075508     cap.obj
 0002:0002451c       $chain$1$?ffmpeg_path@cimg@cimg_library@@YAPEBDQEBD_N@Z 000000018007551c     cap.obj
 0002:0002452c       $chain$0$?gzip_path@cimg@cimg_library@@YAPEBDQEBD_N@Z 000000018007552c     cap.obj
 0002:00024540       $chain$1$?gzip_path@cimg@cimg_library@@YAPEBDQEBD_N@Z 0000000180075540     cap.obj
 0002:00024550       $unwind$?split_filename@cimg@cimg_library@@YAPEBDQEBDQEAD@Z 0000000180075550     cap.obj
 0002:0002455c       $chain$0$?split_filename@cimg@cimg_library@@YAPEBDQEBDQEAD@Z 000000018007555c     cap.obj
 0002:00024570       $chain$2$?split_filename@cimg@cimg_library@@YAPEBDQEBDQEAD@Z 0000000180075570     cap.obj
 0002:00024584       $chain$3$?split_filename@cimg@cimg_library@@YAPEBDQEBDQEAD@Z 0000000180075584     cap.obj
 0002:00024598       $chain$4$?split_filename@cimg@cimg_library@@YAPEBDQEBDQEAD@Z 0000000180075598     cap.obj
 0002:000245a8       $unwind$?fempty@cimg@cimg_library@@YAXQEAU_iobuf@@QEBD@Z 00000001800755a8     cap.obj
 0002:000245b8       $unwind$?info@cimg@cimg_library@@YAXXZ 00000001800755b8     cap.obj
 0002:000245d4       $unwind$__acrt_is_packaged_app 00000001800755d4     libucrt:winapi_thunks.obj
 0002:000245d4       $unwind$?set_key@CImgDisplay@cimg_library@@QEAAAEAU12@I_N@Z 00000001800755d4     cap.obj
 0002:000245e0       $chain$0$?set_key@CImgDisplay@cimg_library@@QEAAAEAU12@I_N@Z 00000001800755e0     cap.obj
 0002:000245f4       $unwind$?screen_width@CImgDisplay@cimg_library@@SAHXZ 00000001800755f4     cap.obj
 0002:000245f4       $unwind$?screen_height@CImgDisplay@cimg_library@@SAHXZ 00000001800755f4     cap.obj
 0002:00024604       $unwind$?_handle_events@CImgDisplay@cimg_library@@SA_JPEAUHWND__@@I_K_J@Z 0000000180075604     cap.obj
 0002:0002461c       $unwind$?_events_thread@CImgDisplay@cimg_library@@SAKPEAX@Z 000000018007561c     cap.obj
 0002:0002462c       $chain$4$?_events_thread@CImgDisplay@cimg_library@@SAKPEAX@Z 000000018007562c     cap.obj
 0002:00024650       $chain$5$?_events_thread@CImgDisplay@cimg_library@@SAKPEAX@Z 0000000180075650     cap.obj
 0002:00024660       $unwind$?_update_window_pos@CImgDisplay@cimg_library@@QEAAAEAU12@XZ 0000000180075660     cap.obj
 0002:00024670       $chain$1$?_update_window_pos@CImgDisplay@cimg_library@@QEAAAEAU12@XZ 0000000180075670     cap.obj
 0002:00024688       $chain$2$?_update_window_pos@CImgDisplay@cimg_library@@QEAAAEAU12@XZ 0000000180075688     cap.obj
 0002:00024698       $unwind$?_init_fullscreen@CImgDisplay@cimg_library@@QEAAXXZ 0000000180075698     cap.obj
 0002:000246ac       $chain$5$?_init_fullscreen@CImgDisplay@cimg_library@@QEAAXXZ 00000001800756ac     cap.obj
 0002:000246d4       $chain$6$?_init_fullscreen@CImgDisplay@cimg_library@@QEAAXXZ 00000001800756d4     cap.obj
 0002:000246e4       $unwind$?_assign@CImgDisplay@cimg_library@@QEAAAEAU12@IIQEBDI_N1@Z 00000001800756e4     cap.obj
 0002:00024708       $unwind$?write_integer@?$input_processor@DV?$string_input_adapter@D@__crt_stdio_input@@@__crt_stdio_input@@AEAA_N_K_N@Z 0000000180075708     libucrt:input.obj
 0002:00024708       $unwind$?process_floating_point_specifier@?$input_processor@DV?$string_input_adapter@D@__crt_stdio_input@@@__crt_stdio_input@@AEAA_NXZ 0000000180075708     libucrt:input.obj
 0002:00024708       $unwind$__acrt_stdio_begin_temporary_buffering_nolock 0000000180075708     libucrt:_sftbuf.obj
 0002:00024708       $unwind$_realloc_base      0000000180075708     libucrt:realloc_base.obj
 0002:00024708       $unwind$__acrt_FlsAlloc    0000000180075708     libucrt:winapi_thunks.obj
 0002:00024708       $unwind$?try_cor_exit_process@@YAXI@Z 0000000180075708     libucrt:exit.obj
 0002:00024708       $unwind$??_Gexception@std@@UEAAPEAXI@Z 0000000180075708     libcpmt:xthrow.obj
 0002:00024708       $unwind$_FindAndUnlinkFrame 0000000180075708     libvcruntime:trnsctrl.obj
 0002:00024708       $unwind$?process_state@?$input_processor@DV?$string_input_adapter@D@__crt_stdio_input@@@__crt_stdio_input@@AEAA_NXZ 0000000180075708     libucrt:input.obj
 0002:00024708       $unwind$_close_nolock      0000000180075708     libucrt:close.obj
 0002:00024708       $unwind$?internal_isupper_l@@YA_NHQEAU__crt_locale_pointers@@@Z 0000000180075708     libucrt:tolower_toupper.obj
 0002:00024708       $unwind$?erase@?$basic_string@DU?$char_traits@D@std@@V?$allocator@D@2@@std@@QEAAAEAV12@_K0@Z 0000000180075708     cap.obj
 0002:00024708       $unwind$__acrt_uninitialize_lowio 0000000180075708     libucrt:ioinit.obj
 0002:00024708       $unwind$__acrt_FlsFree     0000000180075708     libucrt:winapi_thunks.obj
 0002:00024708       $unwind$_callnewh          0000000180075708     libucrt:new_handler.obj
 0002:00024708       $unwind$__acrt_invoke_user_matherr 0000000180075708     libucrt:matherr.obj
 0002:00024708       $unwind$??0_LocaleUpdate@@QEAA@QEAU__crt_locale_pointers@@@Z 0000000180075708     libucrt:output.obj
 0002:00024708       $unwind$??4?$basic_string@DU?$char_traits@D@std@@V?$allocator@D@2@@std@@QEAAAEAV01@$$QEAV01@@Z 0000000180075708     cap.obj
 0002:00024708       $unwind$??_Gbad_alloc@std@@UEAAPEAXI@Z 0000000180075708     libcpmt:xthrow.obj
 0002:00024708       $unwind$??_Glogic_error@std@@UEAAPEAXI@Z 0000000180075708     libcpmt:xthrow.obj
 0002:00024708       $unwind$_updatetlocinfoEx_nolock 0000000180075708     libucrt:locale_refcounting.obj
 0002:00024708       $unwind$??_Gout_of_range@std@@UEAAPEAXI@Z 0000000180075708     libcpmt:xthrow.obj
 0002:00024708       $unwind$?process_literal_character_tchar@?$input_processor@DV?$string_input_adapter@D@__crt_stdio_input@@@__crt_stdio_input@@AEAA_ND@Z 0000000180075708     libucrt:input.obj
 0002:00024708       $unwind$__acrt_errno_map_os_error 0000000180075708     libucrt:errno.obj
 0002:00024708       $unwind$??_Gbad_exception@std@@UEAAPEAXI@Z 0000000180075708     libvcruntime:frame.obj
 0002:00024708       $unwind$__vcrt_FlsAlloc    0000000180075708     libvcruntime:winapi_downlevel.obj
 0002:00024708       $unwind$?__SetUnwindTryBlock@@YAXPEA_KPEAU_xDISPATCHER_CONTEXT@@PEBU_s_FuncInfo@@H@Z 0000000180075708     libvcruntime:ehstate.obj
 0002:00024708       $unwind$__vcrt_FlsFree     0000000180075708     libvcruntime:winapi_downlevel.obj
 0002:00024708       $unwind$?force_decimal_point@__crt_stdio_output@@YAXPEADQEAU__crt_locale_pointers@@@Z 0000000180075708     libucrt:output.obj
 0002:00024708       $unwind$?DloadAcquireSectionWriteAccess@@YAXXZ 0000000180075708     DelayImp:delayhlp.obj
 0002:00024708       $unwind$?process_conversion_specifier@?$input_processor@DV?$string_input_adapter@D@__crt_stdio_input@@@__crt_stdio_input@@AEAA_NXZ 0000000180075708     libucrt:input.obj
 0002:00024708       $unwind$__acrt_getptd      0000000180075708     libucrt:per_thread_data.obj
 0002:00024708       $unwind$strncpy_s          0000000180075708     libucrt:strncpy_s.obj
 0002:00024708       $unwind$?DloadGetSRWLockFunctionPointers@@YAEXZ 0000000180075708     DelayImp:delayhlp.obj
 0002:00024708       $unwind$?_Assign_rv@?$basic_string@DU?$char_traits@D@std@@V?$allocator@D@2@@std@@QEAAX$$QEAV12@@Z 0000000180075708     cap.obj
 0002:00024708       $unwind$__acrt_FlsGetValue 0000000180075708     libucrt:winapi_thunks.obj
 0002:00024708       $unwind$??$common_initialize_environment_nolock@D@@YAHXZ 0000000180075708     libucrt:environment_initialization.obj
 0002:00024708       $unwind$?assign@CImgDisplay@cimg_library@@QEAAAEAU12@XZ 0000000180075708     cap.obj
 0002:00024708       $unwind$?ExFilterRethrow@@YAHPEAU_EXCEPTION_POINTERS@@PEAUEHExceptionRecord@@PEAH@Z 0000000180075708     libvcruntime:frame.obj
 0002:00024708       $unwind$_fclose_nolock     0000000180075708     libucrt:fclose.obj
 0002:00024708       $unwind$__vcrt_FlsGetValue 0000000180075708     libvcruntime:winapi_downlevel.obj
 0002:00024708       $unwind$??_Gbad_array_new_length@std@@UEAAPEAXI@Z 0000000180075708     LIBCMT:throw_bad_alloc.obj
 0002:00024708       $unwind$??_Glength_error@std@@UEAAPEAXI@Z 0000000180075708     libcpmt:xthrow.obj
 0002:00024708       $unwind$?replace_current_thread_locale_nolock@@YAXQEAU__acrt_ptd@@QEAU__crt_locale_data@@@Z 0000000180075708     libucrt:per_thread_data.obj
 0002:00024708       $unwind$?type_case_c_tchar@?$output_processor@DV?$string_output_adapter@D@__crt_stdio_output@@V?$standard_base@DV?$string_output_adapter@D@__crt_stdio_output@@@2@@__crt_stdio_output@@AEAA_ND@Z 0000000180075708     libucrt:output.obj
 0002:00024708       $unwind$?type_case_c_tchar@?$output_processor@DV?$stream_output_adapter@D@__crt_stdio_output@@V?$standard_base@DV?$stream_output_adapter@D@__crt_stdio_output@@@2@@__crt_stdio_output@@AEAA_ND@Z 0000000180075708     libucrt:output.obj
 0002:00024714       $unwind$?resize@CImgDisplay@cimg_library@@QEAAAEAU12@HH_N@Z 0000000180075714     cap.obj
 0002:00024724       $chain$2$?resize@CImgDisplay@cimg_library@@QEAAAEAU12@HH_N@Z 0000000180075724     cap.obj
 0002:00024740       $chain$3$?resize@CImgDisplay@cimg_library@@QEAAAEAU12@HH_N@Z 0000000180075740     cap.obj
 0002:00024754       $chain$4$?resize@CImgDisplay@cimg_library@@QEAAAEAU12@HH_N@Z 0000000180075754     cap.obj
 0002:00024764       $unwind$?move@CImgDisplay@cimg_library@@QEAAAEAU12@HH@Z 0000000180075764     cap.obj
 0002:00024778       $chain$0$?move@CImgDisplay@cimg_library@@QEAAAEAU12@HH@Z 0000000180075778     cap.obj
 0002:0002478c       $chain$1$?move@CImgDisplay@cimg_library@@QEAAAEAU12@HH@Z 000000018007578c     cap.obj
 0002:0002479c       $unwind$?paint@CImgDisplay@cimg_library@@QEAAAEAU12@XZ 000000018007579c     cap.obj
 0002:000247a4       $unwind$?dialog@cimg@cimg_library@@YAHQEBD0000000_N@Z 00000001800757a4     cap.obj
 0002:000247b0       $unwind$?create@cap@@SAXAEBV?$FunctionCallbackInfo@VValue@v8@@@v8@@@Z 00000001800757b0     cap.obj
 0002:000247d0       $unwind$?save@cap@@SAHXZ   00000001800757d0     cap.obj
 0002:00024810       $unwind$?_logo40x38@?$CImg@E@cimg_library@@SA?AU12@XZ 0000000180075810     cap.obj
 0002:00024818       $chain$2$?_logo40x38@?$CImg@E@cimg_library@@SA?AU12@XZ 0000000180075818     cap.obj
 0002:00024834       $chain$3$?_logo40x38@?$CImg@E@cimg_library@@SA?AU12@XZ 0000000180075834     cap.obj
 0002:00024848       $chain$4$?_logo40x38@?$CImg@E@cimg_library@@SA?AU12@XZ 0000000180075848     cap.obj
 0002:00024858       $chain$5$?_logo40x38@?$CImg@E@cimg_library@@SA?AU12@XZ 0000000180075858     cap.obj
 0002:00024868       $unwind$?save@?$CImg@E@cimg_library@@QEBAAEBU12@QEBDH@Z 0000000180075868     cap.obj
 0002:0002487c       $chain$5$?save@?$CImg@E@cimg_library@@QEBAAEBU12@QEBDH@Z 000000018007587c     cap.obj
 0002:000248a4       $chain$6$?save@?$CImg@E@cimg_library@@QEBAAEBU12@QEBDH@Z 00000001800758a4     cap.obj
 0002:000248b4       $unwind$?shift@?$CImg@E@cimg_library@@QEAAAEAU12@HHHHH@Z 00000001800758b4     cap.obj
 0002:000248c0       $chain$4$?shift@?$CImg@E@cimg_library@@QEAAAEAU12@HHHHH@Z 00000001800758c0     cap.obj
 0002:000248e4       $chain$5$?shift@?$CImg@E@cimg_library@@QEAAAEAU12@HHHHH@Z 00000001800758e4     cap.obj
 0002:000248f4       $unwind$?resize@?$CImg@M@cimg_library@@QEAAAEAU12@HHHHHIMMMM@Z 00000001800758f4     cap.obj
 0002:000248f4       $unwind$?resize@?$CImg@E@cimg_library@@QEAAAEAU12@HHHHHIMMMM@Z 00000001800758f4     cap.obj
 0002:000248fc       $chain$0$?resize@?$CImg@E@cimg_library@@QEAAAEAU12@HHHHHIMMMM@Z 00000001800758fc     cap.obj
 0002:00024910       $chain$3$?resize@?$CImg@E@cimg_library@@QEAAAEAU12@HHHHHIMMMM@Z 0000000180075910     cap.obj
 0002:00024910       $chain$1$?resize@?$CImg@E@cimg_library@@QEAAAEAU12@HHHHHIMMMM@Z 0000000180075910     cap.obj
 0002:00024920       $chain$2$?resize@?$CImg@E@cimg_library@@QEAAAEAU12@HHHHHIMMMM@Z 0000000180075920     cap.obj
 0002:00024934       $unwind$?destroy_fls@@YAXPEAX@Z 0000000180075934     libucrt:per_thread_data.obj
 0002:00024934       $unwind$?normalize@?$CImg@E@cimg_library@@QEAAAEAU12@EE@Z 0000000180075934     cap.obj
 0002:00024934       $unwind$_free_base         0000000180075934     libucrt:free_base.obj
 0002:00024934       $unwind$__acrt_locale_free_numeric 0000000180075934     libucrt:initnum.obj
 0002:00024934       $unwind$__acrt_locale_free_lc_time_if_unreferenced 0000000180075934     libucrt:locale_refcounting.obj
 0002:0002493c       $unwind$?noise@?$CImg@E@cimg_library@@QEAAAEAU12@NI@Z 000000018007593c     cap.obj
 0002:00024950       $chain$5$?noise@?$CImg@E@cimg_library@@QEAAAEAU12@NI@Z 0000000180075950     cap.obj
 0002:00024978       $chain$6$?noise@?$CImg@E@cimg_library@@QEAAAEAU12@NI@Z 0000000180075978     cap.obj
 0002:0002498c       $chain$7$?noise@?$CImg@E@cimg_library@@QEAAAEAU12@NI@Z 000000018007598c     cap.obj
 0002:0002499c       $chain$8$?noise@?$CImg@E@cimg_library@@QEAAAEAU12@NI@Z 000000018007599c     cap.obj
 0002:000249ac       $unwind$??0?$CImg@E@cimg_library@@QEAA@AEBU01@@Z 00000001800759ac     cap.obj
 0002:000249cc       $tryMap$??0?$CImg@E@cimg_library@@QEAA@AEBU01@@Z 00000001800759cc     cap.obj
 0002:000249e0       $handlerMap$0$??0?$CImg@E@cimg_library@@QEAA@AEBU01@@Z 00000001800759e0     cap.obj
 0002:000249f8       $ip2state$??0?$CImg@E@cimg_library@@QEAA@AEBU01@@Z 00000001800759f8     cap.obj
 0002:00024a20       $unwind$?catch$0@?0???0?$CImg@E@cimg_library@@QEAA@AEBU01@@Z@4HA 0000000180075a20     cap.obj
 0002:00024a3c       $unwind$??0?$CImg@E@cimg_library@@QEAA@IIIIE@Z 0000000180075a3c     cap.obj
 0002:00024a54       $tryMap$??0?$CImg@E@cimg_library@@QEAA@IIIIE@Z 0000000180075a54     cap.obj
 0002:00024a68       $handlerMap$0$??0?$CImg@E@cimg_library@@QEAA@IIIIE@Z 0000000180075a68     cap.obj
 0002:00024a80       $ip2state$??0?$CImg@E@cimg_library@@QEAA@IIIIE@Z 0000000180075a80     cap.obj
 0002:00024aa8       $unwind$?catch$0@?0???0?$CImg@E@cimg_library@@QEAA@IIIIE@Z@4HA 0000000180075aa8     cap.obj
 0002:00024ac4       $unwind$??0?$CImg@E@cimg_library@@QEAA@IIII@Z 0000000180075ac4     cap.obj
 0002:00024adc       $tryMap$??0?$CImg@E@cimg_library@@QEAA@IIII@Z 0000000180075adc     cap.obj
 0002:00024af0       $handlerMap$0$??0?$CImg@E@cimg_library@@QEAA@IIII@Z 0000000180075af0     cap.obj
 0002:00024b08       $ip2state$??0?$CImg@E@cimg_library@@QEAA@IIII@Z 0000000180075b08     cap.obj
 0002:00024b30       $unwind$?catch$0@?0???0?$CImg@E@cimg_library@@QEAA@IIII@Z@4HA 0000000180075b30     cap.obj
 0002:00024b4c       $unwind$?save_other@?$CImg@E@cimg_library@@QEBAAEBU12@QEBDI@Z 0000000180075b4c     cap.obj
 0002:00024b68       $stateUnwindMap$?save_other@?$CImg@E@cimg_library@@QEBAAEBU12@QEBDI@Z 0000000180075b68     cap.obj
 0002:00024b98       $tryMap$?save_other@?$CImg@E@cimg_library@@QEBAAEBU12@QEBDI@Z 0000000180075b98     cap.obj
 0002:00024bd4       $handlerMap$0$?save_other@?$CImg@E@cimg_library@@QEBAAEBU12@QEBDI@Z 0000000180075bd4     cap.obj
 0002:00024be8       $handlerMap$1$?save_other@?$CImg@E@cimg_library@@QEBAAEBU12@QEBDI@Z 0000000180075be8     cap.obj
 0002:00024bfc       $handlerMap$2$?save_other@?$CImg@E@cimg_library@@QEBAAEBU12@QEBDI@Z 0000000180075bfc     cap.obj
 0002:00024c10       $ip2state$?save_other@?$CImg@E@cimg_library@@QEBAAEBU12@QEBDI@Z 0000000180075c10     cap.obj
 0002:00024c60       $unwind$?catch$0@?0??save_other@?$CImg@E@cimg_library@@QEBAAEBU12@QEBDI@Z@4HA 0000000180075c60     cap.obj
 0002:00024c60       $unwind$?catch$1@?0??save_other@?$CImg@E@cimg_library@@QEBAAEBU12@QEBDI@Z@4HA 0000000180075c60     cap.obj
 0002:00024c60       $unwind$?catch$2@?0??save_other@?$CImg@E@cimg_library@@QEBAAEBU12@QEBDI@Z@4HA 0000000180075c60     cap.obj
 0002:00024c70       $unwind$?save_medcon_external@?$CImg@E@cimg_library@@QEBAAEBU12@QEBD@Z 0000000180075c70     cap.obj
 0002:00024c88       $chain$1$?save_medcon_external@?$CImg@E@cimg_library@@QEBAAEBU12@QEBD@Z 0000000180075c88     cap.obj
 0002:00024ca0       $chain$2$?save_medcon_external@?$CImg@E@cimg_library@@QEBAAEBU12@QEBD@Z 0000000180075ca0     cap.obj
 0002:00024cb0       $unwind$?save_gzip_external@?$CImg@E@cimg_library@@QEBAAEBU12@QEBD@Z 0000000180075cb0     cap.obj
 0002:00024cc8       $chain$2$?save_gzip_external@?$CImg@E@cimg_library@@QEBAAEBU12@QEBD@Z 0000000180075cc8     cap.obj
 0002:00024ce4       $chain$3$?save_gzip_external@?$CImg@E@cimg_library@@QEBAAEBU12@QEBD@Z 0000000180075ce4     cap.obj
 0002:00024cf8       $chain$4$?save_gzip_external@?$CImg@E@cimg_library@@QEBAAEBU12@QEBD@Z 0000000180075cf8     cap.obj
 0002:00024d08       $chain$5$?save_gzip_external@?$CImg@E@cimg_library@@QEBAAEBU12@QEBD@Z 0000000180075d08     cap.obj
 0002:00024d18       $unwind$?save_ffmpeg@?$CImg@E@cimg_library@@QEBAAEBU12@QEBDII@Z 0000000180075d18     cap.obj
 0002:00024d18       $unwind$?save_tiff@?$CImg@E@cimg_library@@QEBAAEBU12@QEBDI@Z 0000000180075d18     cap.obj
 0002:00024d18       $unwind$?_save_png@?$CImg@E@cimg_library@@QEBAAEBU12@QEAU_iobuf@@QEBDI@Z 0000000180075d18     cap.obj
 0002:00024d18       $unwind$?save_minc2@?$CImg@E@cimg_library@@QEBAAEBU12@QEBD0@Z 0000000180075d18     cap.obj
 0002:00024d18       $unwind$?_save_raw@?$CImg@E@cimg_library@@QEBAAEBU12@QEAU_iobuf@@QEBD_N@Z 0000000180075d18     cap.obj
 0002:00024d2c       $unwind$??$max_min@N@?$CImg@E@cimg_library@@QEBAAEBEAEAN@Z 0000000180075d2c     cap.obj
 0002:00024d2c       $unwind$??$min_max@M@?$CImg@E@cimg_library@@QEBAAEBEAEAM@Z 0000000180075d2c     cap.obj
 0002:00024d2c       $unwind$?save_magick@?$CImg@E@cimg_library@@QEBAAEBU12@QEBDI@Z 0000000180075d2c     cap.obj
 0002:00024d2c       $unwind$??$min_max@M@?$CImg@E@cimg_library@@QEAAAEAEAEAM@Z 0000000180075d2c     cap.obj
 0002:00024d2c       $unwind$??$max_min@E@?$CImg@E@cimg_library@@QEAAAEAEAEAE@Z 0000000180075d2c     cap.obj
 0002:00024d2c       $unwind$?save_exr@?$CImg@E@cimg_library@@QEBAAEBU12@QEBD@Z 0000000180075d2c     cap.obj
 0002:00024d44       $unwind$?save_cimg@?$CImg@E@cimg_library@@QEBAAEBU12@QEBD_N@Z 0000000180075d44     cap.obj
 0002:00024d54       $unwind$?save_analyze@?$CImg@E@cimg_library@@QEBAAEBU12@QEBDQEBM@Z 0000000180075d54     cap.obj
 0002:00024d6c       $chain$0$?save_analyze@?$CImg@E@cimg_library@@QEBAAEBU12@QEBDQEBM@Z 0000000180075d6c     cap.obj
 0002:00024d80       $chain$1$?save_analyze@?$CImg@E@cimg_library@@QEBAAEBU12@QEBDQEBM@Z 0000000180075d80     cap.obj
 0002:00024d94       $chain$3$?save_analyze@?$CImg@E@cimg_library@@QEBAAEBU12@QEBDQEBM@Z 0000000180075d94     cap.obj
 0002:00024dac       $chain$4$?save_analyze@?$CImg@E@cimg_library@@QEBAAEBU12@QEBDQEBM@Z 0000000180075dac     cap.obj
 0002:00024dc0       $chain$5$?save_analyze@?$CImg@E@cimg_library@@QEBAAEBU12@QEBDQEBM@Z 0000000180075dc0     cap.obj
 0002:00024dd4       $chain$8$?save_analyze@?$CImg@E@cimg_library@@QEBAAEBU12@QEBDQEBM@Z 0000000180075dd4     cap.obj
 0002:00024dd4       $chain$6$?save_analyze@?$CImg@E@cimg_library@@QEBAAEBU12@QEBDQEBM@Z 0000000180075dd4     cap.obj
 0002:00024de4       $chain$7$?save_analyze@?$CImg@E@cimg_library@@QEBAAEBU12@QEBDQEBM@Z 0000000180075de4     cap.obj
 0002:00024de4       $chain$9$?save_analyze@?$CImg@E@cimg_library@@QEBAAEBU12@QEBDQEBM@Z 0000000180075de4     cap.obj
 0002:00024dfc       $unwind$?_save_jpeg@?$CImg@E@cimg_library@@QEBAAEBU12@QEAU_iobuf@@QEBDI@Z 0000000180075dfc     cap.obj
 0002:00024e14       $unwind$?get_shared_rows@?$CImg@E@cimg_library@@QEAA?AU12@IIII@Z 0000000180075e14     cap.obj
 0002:00024e2c       $unwind$?get_resize@?$CImg@E@cimg_library@@QEBA?AU12@HHHHHIMMMM@Z 0000000180075e2c     cap.obj
 0002:00024e5c       $chain$0$?get_resize@?$CImg@E@cimg_library@@QEBA?AU12@HHHHHIMMMM@Z 0000000180075e5c     cap.obj
 0002:00024e70       $chain$3$?get_resize@?$CImg@E@cimg_library@@QEBA?AU12@HHHHHIMMMM@Z 0000000180075e70     cap.obj
 0002:00024e8c       $chain$4$?get_resize@?$CImg@E@cimg_library@@QEBA?AU12@HHHHHIMMMM@Z 0000000180075e8c     cap.obj
 0002:00024ea0       $chain$5$?get_resize@?$CImg@E@cimg_library@@QEBA?AU12@HHHHHIMMMM@Z 0000000180075ea0     cap.obj
 0002:00024eb0       $chain$6$?get_resize@?$CImg@E@cimg_library@@QEBA?AU12@HHHHHIMMMM@Z 0000000180075eb0     cap.obj
 0002:00024ec0       $chain$9$?get_resize@?$CImg@E@cimg_library@@QEBA?AU12@HHHHHIMMMM@Z 0000000180075ec0     cap.obj
 0002:00024ec0       $chain$7$?get_resize@?$CImg@E@cimg_library@@QEBA?AU12@HHHHHIMMMM@Z 0000000180075ec0     cap.obj
 0002:00024ec0       $chain$11$?get_resize@?$CImg@E@cimg_library@@QEBA?AU12@HHHHHIMMMM@Z 0000000180075ec0     cap.obj
 0002:00024ed0       $chain$8$?get_resize@?$CImg@E@cimg_library@@QEBA?AU12@HHHHHIMMMM@Z 0000000180075ed0     cap.obj
 0002:00024ee4       $chain$10$?get_resize@?$CImg@E@cimg_library@@QEBA?AU12@HHHHHIMMMM@Z 0000000180075ee4     cap.obj
 0002:00024f04       $unwind$??$assign@M@?$CImg@E@cimg_library@@QEAAAEAU01@QEBMIIII@Z 0000000180075f04     cap.obj
 0002:00024f04       $unwind$?move_to@?$CImg@E@cimg_library@@QEAAAEAU12@AEAU12@@Z 0000000180075f04     cap.obj
 0002:00024f04       $unwind$??$__acrt_stdio_parse_mode@D@@YA?AU__acrt_stdio_stream_mode@@QEBD@Z 0000000180075f04     libucrt:openfile.obj
 0002:00024f04       $unwind$?convert_hexadecimal_string_to_floating_type_common@__crt_strtox@@YA?AW4SLD_STATUS@@AEBUfloating_point_string@1@AEBVfloating_point_value@1@@Z 0000000180075f04     libucrt:input.obj
 0002:00024f04       $unwind$?move_to@?$CImg@M@cimg_library@@QEAAAEAU12@AEAU12@@Z 0000000180075f04     cap.obj
 0002:00024f04       $unwind$?move_to@?$CImg@D@cimg_library@@QEAAAEAU12@AEAU12@@Z 0000000180075f04     cap.obj
 0002:00024f10       $unwind$??0?$CImg@E@cimg_library@@QEAA@AEBU01@_N@Z 0000000180075f10     cap.obj
 0002:00024f30       $tryMap$??0?$CImg@E@cimg_library@@QEAA@AEBU01@_N@Z 0000000180075f30     cap.obj
 0002:00024f44       $handlerMap$0$??0?$CImg@E@cimg_library@@QEAA@AEBU01@_N@Z 0000000180075f44     cap.obj
 0002:00024f58       $ip2state$??0?$CImg@E@cimg_library@@QEAA@AEBU01@_N@Z 0000000180075f58     cap.obj
 0002:00024f80       $unwind$?catch$0@?0???0?$CImg@E@cimg_library@@QEAA@AEBU01@_N@Z@4HA 0000000180075f80     cap.obj
 0002:00024f9c       $unwind$__acrt_execute_uninitializers 0000000180075f9c     libucrt:shared_initialization.obj
 0002:00024f9c       $unwind$??_E?$CImg@M@cimg_library@@QEAAPEAXI@Z 0000000180075f9c     cap.obj
 0002:00024f9c       $unwind$memcpy_s           0000000180075f9c     libucrt:input.obj
 0002:00024f9c       $unwind$?scan_scanset_range@?$format_string_parser@D@__crt_stdio_input@@AEAA_NXZ 0000000180075f9c     libucrt:input.obj
 0002:00024f9c       $unwind$??$common_lseek_nolock@_J@@YA_JH_JH@Z 0000000180075f9c     libucrt:lseek.obj
 0002:00024f9c       $unwind$?process@?$input_processor@DV?$string_input_adapter@D@__crt_stdio_input@@@__crt_stdio_input@@QEAAHXZ 0000000180075f9c     libucrt:input.obj
 0002:00024f9c       $unwind$?type_case_n@?$output_processor@DV?$stream_output_adapter@D@__crt_stdio_output@@V?$standard_base@DV?$stream_output_adapter@D@__crt_stdio_output@@@2@@__crt_stdio_output@@AEAA_NXZ 0000000180075f9c     libucrt:output.obj
 0002:00024f9c       $unwind$??$common_getenv_nolock@D@@YAPEADQEBD@Z 0000000180075f9c     libucrt:getenv.obj
 0002:00024f9c       $unwind$__acrt_stdio_flush_nolock 0000000180075f9c     libucrt:fflush.obj
 0002:00024f9c       $unwind$??_E?$CImg@D@cimg_library@@QEAAPEAXI@Z 0000000180075f9c     cap.obj
 0002:00024f9c       $unwind$__acrt_getptd_noexit 0000000180075f9c     libucrt:per_thread_data.obj
 0002:00024f9c       $unwind$?type_case_s@?$output_processor@DV?$stream_output_adapter@D@__crt_stdio_output@@V?$standard_base@DV?$stream_output_adapter@D@__crt_stdio_output@@@2@@__crt_stdio_output@@AEAA_NXZ 0000000180075f9c     libucrt:output.obj
 0002:00024f9c       $unwind$?process_string_specifier@?$input_processor@DV?$string_input_adapter@D@__crt_stdio_input@@@__crt_stdio_input@@AEAA_NW4conversion_mode@2@@Z 0000000180075f9c     libucrt:input.obj
 0002:00024f9c       $unwind$?type_case_Z@?$output_processor@DV?$stream_output_adapter@D@__crt_stdio_output@@V?$standard_base@DV?$stream_output_adapter@D@__crt_stdio_output@@@2@@__crt_stdio_output@@AEAA_NXZ 0000000180075f9c     libucrt:output.obj
 0002:00024f9c       $unwind$?advance@?$format_string_parser@D@__crt_stdio_input@@QEAA_NXZ 0000000180075f9c     libucrt:input.obj
 0002:00024f9c       $unwind$__acrt_LocaleNameToLCID 0000000180075f9c     libucrt:winapi_thunks.obj
 0002:00024f9c       $unwind$__acrt_FlsSetValue 0000000180075f9c     libucrt:winapi_thunks.obj
 0002:00024f9c       $unwind$__acrt_stdio_flush_and_write_narrow_nolock 0000000180075f9c     libucrt:_flsbuf.obj
 0002:00024f9c       $unwind$??R<lambda_ad1ced32f4ac17aa236e5ef05d6b3b7c>@@QEBAXXZ 0000000180075f9c     libucrt:mbctype.obj
 0002:00024f9c       $unwind$_RTC_Terminate     0000000180075f9c     LIBCMT:_initsect_.obj
 0002:00024f9c       $unwind$?type_case_Z@?$output_processor@DV?$string_output_adapter@D@__crt_stdio_output@@V?$standard_base@DV?$string_output_adapter@D@__crt_stdio_output@@@2@@__crt_stdio_output@@AEAA_NXZ 0000000180075f9c     libucrt:output.obj
 0002:00024f9c       $unwind$?type_case_s@?$output_processor@DV?$string_output_adapter@D@__crt_stdio_output@@V?$standard_base@DV?$string_output_adapter@D@__crt_stdio_output@@@2@@__crt_stdio_output@@AEAA_NXZ 0000000180075f9c     libucrt:output.obj
 0002:00024f9c       $unwind$_RTC_Initialize    0000000180075f9c     LIBCMT:_initsect_.obj
 0002:00024f9c       $unwind$??_E?$CImg@E@cimg_library@@QEAAPEAXI@Z 0000000180075f9c     cap.obj
 0002:00024f9c       $unwind$memcpy_s           0000000180075f9c     libucrt:cfout.obj
 0002:00024f9c       $unwind$?assign@?$basic_string@DU?$char_traits@D@std@@V?$allocator@D@2@@std@@QEAAAEAV12@PEBD_K@Z 0000000180075f9c     cap.obj
 0002:00024f9c       $unwind$__vcrt_FlsSetValue 0000000180075f9c     libvcruntime:winapi_downlevel.obj
 0002:00024f9c       $unwind$_initterm_e        0000000180075f9c     libucrt:initterm.obj
 0002:00024f9c       $unwind$?type_case_n@?$output_processor@DV?$string_output_adapter@D@__crt_stdio_output@@V?$standard_base@DV?$string_output_adapter@D@__crt_stdio_output@@@2@@__crt_stdio_output@@AEAA_NXZ 0000000180075f9c     libucrt:output.obj
 0002:00024f9c       $unwind$_Init_thread_wait  0000000180075f9c     LIBCMT:thread_safe_statics.obj
 0002:00024f9c       $unwind$_DllMainCRTStartup 0000000180075f9c     LIBCMT:dll_dllmain.obj
 0002:00024f9c       $unwind$__vcrt_getptd_noexit 0000000180075f9c     libvcruntime:per_thread_data.obj
 0002:00024f9c       $unwind$??R<lambda_532e024f4337e6fc7ad266c2bef9f4ed>@@QEBA_KXZ 0000000180075f9c     libucrt:fwrite.obj
 0002:00024f9c       $unwind$?free_crt_array_internal@@YAXQEAPEBX_K@Z 0000000180075f9c     libucrt:inittime.obj
 0002:00024f9c       $unwind$_exception_enabled 0000000180075f9c     libucrt:libm_error.obj
 0002:00024f9c       $unwind$?__scrt_initialize_thread_safe_statics@@YAHXZ 0000000180075f9c     LIBCMT:thread_safe_statics.obj
 0002:00024fac       $unwind$?assign@?$basic_string@DU?$char_traits@D@std@@V?$allocator@D@2@@std@@QEAAAEAV12@AEBV12@_K1@Z 0000000180075fac     cap.obj
 0002:00024fac       $unwind$__std_exception_copy 0000000180075fac     libvcruntime:std_exception.obj
 0002:00024fac       $unwind$_free_osfhnd       0000000180075fac     libucrt:osfinfo.obj
 0002:00024fac       $unwind$?initialize_stdio_handles_nolock@@YAXXZ 0000000180075fac     libucrt:ioinit.obj
 0002:00024fc0       $unwind$??0?$CImg@I@cimg_library@@QEAA@IIII@Z 0000000180075fc0     cap.obj
 0002:00024fd8       $tryMap$??0?$CImg@I@cimg_library@@QEAA@IIII@Z 0000000180075fd8     cap.obj
 0002:00024fec       $handlerMap$0$??0?$CImg@I@cimg_library@@QEAA@IIII@Z 0000000180075fec     cap.obj
 0002:00025000       $ip2state$??0?$CImg@I@cimg_library@@QEAA@IIII@Z 0000000180076000     cap.obj
 0002:00025028       $unwind$?catch$0@?0???0?$CImg@I@cimg_library@@QEAA@IIII@Z@4HA 0000000180076028     cap.obj
 0002:0002503c       $unwind$?_system_strescape@?$CImg@D@cimg_library@@QEAAAEAU12@XZ 000000018007603c     cap.obj
 0002:00025054       $chain$1$?_system_strescape@?$CImg@D@cimg_library@@QEAAAEAU12@XZ 0000000180076054     cap.obj
 0002:0002506c       $chain$2$?_system_strescape@?$CImg@D@cimg_library@@QEAAAEAU12@XZ 000000018007606c     cap.obj
 0002:00025080       $chain$3$?_system_strescape@?$CImg@D@cimg_library@@QEAAAEAU12@XZ 0000000180076080     cap.obj
 0002:00025090       $unwind$?assign@?$CImg@D@cimg_library@@QEAAAEAU12@QEBDIIII@Z 0000000180076090     cap.obj
 0002:000250b4       $tryMap$?assign@?$CImg@D@cimg_library@@QEAAAEAU12@QEBDIIII@Z 00000001800760b4     cap.obj
 0002:000250c8       $handlerMap$0$?assign@?$CImg@D@cimg_library@@QEAAAEAU12@QEBDIIII@Z 00000001800760c8     cap.obj
 0002:000250e0       $ip2state$?assign@?$CImg@D@cimg_library@@QEAAAEAU12@QEBDIIII@Z 00000001800760e0     cap.obj
 0002:00025108       $unwind$?catch$0@?0??assign@?$CImg@D@cimg_library@@QEAAAEAU12@QEBDIIII@Z@4HA 0000000180076108     cap.obj
 0002:00025124       $unwind$??0?$CImg@M@cimg_library@@QEAA@IIIIM@Z 0000000180076124     cap.obj
 0002:0002513c       $tryMap$??0?$CImg@M@cimg_library@@QEAA@IIIIM@Z 000000018007613c     cap.obj
 0002:00025150       $handlerMap$0$??0?$CImg@M@cimg_library@@QEAA@IIIIM@Z 0000000180076150     cap.obj
 0002:00025168       $ip2state$??0?$CImg@M@cimg_library@@QEAA@IIIIM@Z 0000000180076168     cap.obj
 0002:00025190       $unwind$?catch$0@?0???0?$CImg@M@cimg_library@@QEAA@IIIIM@Z@4HA 0000000180076190     cap.obj
 0002:000251ac       $unwind$??0?$CImg@M@cimg_library@@QEAA@IIII@Z 00000001800761ac     cap.obj
 0002:000251c4       $tryMap$??0?$CImg@M@cimg_library@@QEAA@IIII@Z 00000001800761c4     cap.obj
 0002:000251d8       $handlerMap$0$??0?$CImg@M@cimg_library@@QEAA@IIII@Z 00000001800761d8     cap.obj
 0002:000251f0       $ip2state$??0?$CImg@M@cimg_library@@QEAA@IIII@Z 00000001800761f0     cap.obj
 0002:00025218       $unwind$?catch$0@?0???0?$CImg@M@cimg_library@@QEAA@IIII@Z@4HA 0000000180076218     cap.obj
 0002:00025234       $unwind$?save_imagemagick_external@?$CImg@E@cimg_library@@QEBAAEBU12@QEBDI@Z 0000000180076234     cap.obj
 0002:00025234       $unwind$?save_graphicsmagick_external@?$CImg@E@cimg_library@@QEBAAEBU12@QEBDI@Z 0000000180076234     cap.obj
 0002:0002524c       $chain$1$?save_imagemagick_external@?$CImg@E@cimg_library@@QEBAAEBU12@QEBDI@Z 000000018007624c     cap.obj
 0002:00025264       $chain$2$?save_imagemagick_external@?$CImg@E@cimg_library@@QEBAAEBU12@QEBDI@Z 0000000180076264     cap.obj
 0002:00025278       $chain$3$?save_imagemagick_external@?$CImg@E@cimg_library@@QEBAAEBU12@QEBDI@Z 0000000180076278     cap.obj
 0002:00025288       $chain$4$?save_imagemagick_external@?$CImg@E@cimg_library@@QEBAAEBU12@QEBDI@Z 0000000180076288     cap.obj
 0002:00025298       $chain$1$?save_graphicsmagick_external@?$CImg@E@cimg_library@@QEBAAEBU12@QEBDI@Z 0000000180076298     cap.obj
 0002:000252b0       $chain$2$?save_graphicsmagick_external@?$CImg@E@cimg_library@@QEBAAEBU12@QEBDI@Z 00000001800762b0     cap.obj
 0002:000252c4       $chain$3$?save_graphicsmagick_external@?$CImg@E@cimg_library@@QEBAAEBU12@QEBDI@Z 00000001800762c4     cap.obj
 0002:000252d4       $chain$4$?save_graphicsmagick_external@?$CImg@E@cimg_library@@QEBAAEBU12@QEBDI@Z 00000001800762d4     cap.obj
 0002:000252e4       $unwind$?save_ffmpeg_external@?$CImg@E@cimg_library@@QEBAAEBU12@QEBD0II@Z 00000001800762e4     cap.obj
 0002:000252fc       $chain$0$?_save_raw@?$CImg@E@cimg_library@@QEBAAEBU12@QEAU_iobuf@@QEBD_N@Z 00000001800762fc     cap.obj
 0002:00025310       $chain$2$?_save_raw@?$CImg@E@cimg_library@@QEBAAEBU12@QEAU_iobuf@@QEBD_N@Z 0000000180076310     cap.obj
 0002:00025324       $chain$3$?_save_raw@?$CImg@E@cimg_library@@QEBAAEBU12@QEAU_iobuf@@QEBD_N@Z 0000000180076324     cap.obj
 0002:00025334       $unwind$?_save_pandore@?$CImg@E@cimg_library@@QEBAAEBU12@QEAU_iobuf@@QEBDI@Z 0000000180076334     cap.obj
 0002:0002534c       $chain$1$?_save_pandore@?$CImg@E@cimg_library@@QEBAAEBU12@QEAU_iobuf@@QEBDI@Z 000000018007634c     cap.obj
 0002:00025364       $chain$2$?_save_pandore@?$CImg@E@cimg_library@@QEBAAEBU12@QEAU_iobuf@@QEBDI@Z 0000000180076364     cap.obj
 0002:00025378       $chain$3$?_save_pandore@?$CImg@E@cimg_library@@QEBAAEBU12@QEAU_iobuf@@QEBDI@Z 0000000180076378     cap.obj
 0002:0002538c       $chain$4$?_save_pandore@?$CImg@E@cimg_library@@QEBAAEBU12@QEAU_iobuf@@QEBDI@Z 000000018007638c     cap.obj
 0002:000253a0       $chain$5$?_save_pandore@?$CImg@E@cimg_library@@QEBAAEBU12@QEAU_iobuf@@QEBDI@Z 00000001800763a0     cap.obj
 0002:000253b0       $chain$6$?_save_pandore@?$CImg@E@cimg_library@@QEBAAEBU12@QEAU_iobuf@@QEBDI@Z 00000001800763b0     cap.obj
 0002:000253c0       $chain$7$?_save_pandore@?$CImg@E@cimg_library@@QEBAAEBU12@QEAU_iobuf@@QEBDI@Z 00000001800763c0     cap.obj
 0002:000253d0       $chain$8$?_save_pandore@?$CImg@E@cimg_library@@QEBAAEBU12@QEAU_iobuf@@QEBDI@Z 00000001800763d0     cap.obj
 0002:000253e0       $unwind$?_save_inr@?$CImg@E@cimg_library@@QEBAAEBU12@QEAU_iobuf@@QEBDQEBM@Z 00000001800763e0     cap.obj
 0002:000253f8       $chain$2$?_save_inr@?$CImg@E@cimg_library@@QEBAAEBU12@QEAU_iobuf@@QEBDQEBM@Z 00000001800763f8     cap.obj
 0002:00025414       $chain$4$?_save_inr@?$CImg@E@cimg_library@@QEBAAEBU12@QEAU_iobuf@@QEBDQEBM@Z 0000000180076414     cap.obj
 0002:0002542c       $chain$5$?_save_inr@?$CImg@E@cimg_library@@QEBAAEBU12@QEAU_iobuf@@QEBDQEBM@Z 000000018007642c     cap.obj
 0002:00025440       $chain$6$?_save_inr@?$CImg@E@cimg_library@@QEBAAEBU12@QEAU_iobuf@@QEBDQEBM@Z 0000000180076440     cap.obj
 0002:00025440       $chain$8$?_save_inr@?$CImg@E@cimg_library@@QEBAAEBU12@QEAU_iobuf@@QEBDQEBM@Z 0000000180076440     cap.obj
 0002:00025450       $chain$9$?_save_inr@?$CImg@E@cimg_library@@QEBAAEBU12@QEAU_iobuf@@QEBDQEBM@Z 0000000180076450     cap.obj
 0002:00025450       $chain$7$?_save_inr@?$CImg@E@cimg_library@@QEBAAEBU12@QEAU_iobuf@@QEBDQEBM@Z 0000000180076450     cap.obj
 0002:00025470       $unwind$?_save_rgb@?$CImg@E@cimg_library@@QEBAAEBU12@QEAU_iobuf@@QEBD@Z 0000000180076470     cap.obj
 0002:00025470       $unwind$?_save_rgba@?$CImg@E@cimg_library@@QEBAAEBU12@QEAU_iobuf@@QEBD@Z 0000000180076470     cap.obj
 0002:00025484       $chain$1$?_save_rgba@?$CImg@E@cimg_library@@QEBAAEBU12@QEAU_iobuf@@QEBD@Z 0000000180076484     cap.obj
 0002:0002549c       $chain$2$?_save_rgba@?$CImg@E@cimg_library@@QEBAAEBU12@QEAU_iobuf@@QEBD@Z 000000018007649c     cap.obj
 0002:000254b0       $chain$3$?_save_rgba@?$CImg@E@cimg_library@@QEBAAEBU12@QEAU_iobuf@@QEBD@Z 00000001800764b0     cap.obj
 0002:000254c0       $chain$4$?_save_rgba@?$CImg@E@cimg_library@@QEBAAEBU12@QEAU_iobuf@@QEBD@Z 00000001800764c0     cap.obj
 0002:000254d0       $chain$1$?_save_rgb@?$CImg@E@cimg_library@@QEBAAEBU12@QEAU_iobuf@@QEBD@Z 00000001800764d0     cap.obj
 0002:000254e8       $chain$2$?_save_rgb@?$CImg@E@cimg_library@@QEBAAEBU12@QEAU_iobuf@@QEBD@Z 00000001800764e8     cap.obj
 0002:000254fc       $chain$3$?_save_rgb@?$CImg@E@cimg_library@@QEBAAEBU12@QEAU_iobuf@@QEBD@Z 00000001800764fc     cap.obj
 0002:0002550c       $chain$4$?_save_rgb@?$CImg@E@cimg_library@@QEBAAEBU12@QEAU_iobuf@@QEBD@Z 000000018007650c     cap.obj
 0002:0002551c       $unwind$?_save_pfm@?$CImg@E@cimg_library@@QEBAAEBU12@QEAU_iobuf@@QEBD@Z 000000018007651c     cap.obj
 0002:00025538       $chain$1$?_save_pfm@?$CImg@E@cimg_library@@QEBAAEBU12@QEAU_iobuf@@QEBD@Z 0000000180076538     cap.obj
 0002:00025550       $chain$2$?_save_pfm@?$CImg@E@cimg_library@@QEBAAEBU12@QEAU_iobuf@@QEBD@Z 0000000180076550     cap.obj
 0002:00025564       $chain$3$?_save_pfm@?$CImg@E@cimg_library@@QEBAAEBU12@QEAU_iobuf@@QEBD@Z 0000000180076564     cap.obj
 0002:00025574       $unwind$?_save_pnk@?$CImg@E@cimg_library@@QEBAAEBU12@QEAU_iobuf@@QEBD@Z 0000000180076574     cap.obj
 0002:00025588       $chain$2$?_save_pnk@?$CImg@E@cimg_library@@QEBAAEBU12@QEAU_iobuf@@QEBD@Z 0000000180076588     cap.obj
 0002:000255a4       $chain$4$?_save_pnk@?$CImg@E@cimg_library@@QEBAAEBU12@QEAU_iobuf@@QEBD@Z 00000001800765a4     cap.obj
 0002:000255bc       $chain$5$?_save_pnk@?$CImg@E@cimg_library@@QEBAAEBU12@QEAU_iobuf@@QEBD@Z 00000001800765bc     cap.obj
 0002:000255d0       $chain$6$?_save_pnk@?$CImg@E@cimg_library@@QEBAAEBU12@QEAU_iobuf@@QEBD@Z 00000001800765d0     cap.obj
 0002:000255e0       $chain$7$?_save_pnk@?$CImg@E@cimg_library@@QEBAAEBU12@QEAU_iobuf@@QEBD@Z 00000001800765e0     cap.obj
 0002:000255e0       $chain$9$?_save_pnk@?$CImg@E@cimg_library@@QEBAAEBU12@QEAU_iobuf@@QEBD@Z 00000001800765e0     cap.obj
 0002:000255f4       $chain$10$?_save_pnk@?$CImg@E@cimg_library@@QEBAAEBU12@QEAU_iobuf@@QEBD@Z 00000001800765f4     cap.obj
 0002:00025604       $unwind$?_save_pnm@?$CImg@E@cimg_library@@QEBAAEBU12@QEAU_iobuf@@QEBDI@Z 0000000180076604     cap.obj
 0002:00025620       $chain$3$?_save_pnm@?$CImg@E@cimg_library@@QEBAAEBU12@QEAU_iobuf@@QEBDI@Z 0000000180076620     cap.obj
 0002:00025640       $chain$4$?_save_pnm@?$CImg@E@cimg_library@@QEBAAEBU12@QEAU_iobuf@@QEBDI@Z 0000000180076640     cap.obj
 0002:00025654       $chain$5$?_save_pnm@?$CImg@E@cimg_library@@QEBAAEBU12@QEAU_iobuf@@QEBDI@Z 0000000180076654     cap.obj
 0002:00025664       $unwind$?_save_bmp@?$CImg@E@cimg_library@@QEBAAEBU12@QEAU_iobuf@@QEBD@Z 0000000180076664     cap.obj
 0002:00025680       $chain$0$?_save_bmp@?$CImg@E@cimg_library@@QEBAAEBU12@QEAU_iobuf@@QEBD@Z 0000000180076680     cap.obj
 0002:00025694       $chain$1$?_save_bmp@?$CImg@E@cimg_library@@QEBAAEBU12@QEAU_iobuf@@QEBD@Z 0000000180076694     cap.obj
 0002:000256a8       $chain$2$?_save_bmp@?$CImg@E@cimg_library@@QEBAAEBU12@QEAU_iobuf@@QEBD@Z 00000001800766a8     cap.obj
 0002:000256b8       $unwind$?_save_dlm@?$CImg@E@cimg_library@@QEBAAEBU12@QEAU_iobuf@@QEBD@Z 00000001800766b8     cap.obj
 0002:000256d4       $chain$1$?_save_dlm@?$CImg@E@cimg_library@@QEBAAEBU12@QEAU_iobuf@@QEBD@Z 00000001800766d4     cap.obj
 0002:000256ec       $chain$2$?_save_dlm@?$CImg@E@cimg_library@@QEBAAEBU12@QEAU_iobuf@@QEBD@Z 00000001800766ec     cap.obj
 0002:00025700       $chain$3$?_save_dlm@?$CImg@E@cimg_library@@QEBAAEBU12@QEAU_iobuf@@QEBD@Z 0000000180076700     cap.obj
 0002:00025710       $chain$4$?_save_dlm@?$CImg@E@cimg_library@@QEBAAEBU12@QEAU_iobuf@@QEBD@Z 0000000180076710     cap.obj
 0002:00025710       $chain$6$?_save_dlm@?$CImg@E@cimg_library@@QEBAAEBU12@QEAU_iobuf@@QEBD@Z 0000000180076710     cap.obj
 0002:00025724       $chain$7$?_save_dlm@?$CImg@E@cimg_library@@QEBAAEBU12@QEAU_iobuf@@QEBD@Z 0000000180076724     cap.obj
 0002:00025734       $unwind$?_save_cpp@?$CImg@E@cimg_library@@QEBAAEBU12@QEAU_iobuf@@QEBD@Z 0000000180076734     cap.obj
 0002:00025748       $chain$1$?_save_cpp@?$CImg@E@cimg_library@@QEBAAEBU12@QEAU_iobuf@@QEBD@Z 0000000180076748     cap.obj
 0002:00025760       $chain$2$?_save_cpp@?$CImg@E@cimg_library@@QEBAAEBU12@QEAU_iobuf@@QEBD@Z 0000000180076760     cap.obj
 0002:00025774       $chain$3$?_save_cpp@?$CImg@E@cimg_library@@QEBAAEBU12@QEAU_iobuf@@QEBD@Z 0000000180076774     cap.obj
 0002:00025784       $unwind$?_save_ascii@?$CImg@E@cimg_library@@QEBAAEBU12@QEAU_iobuf@@QEBD@Z 0000000180076784     cap.obj
 0002:00025798       $chain$0$?_save_ascii@?$CImg@E@cimg_library@@QEBAAEBU12@QEAU_iobuf@@QEBD@Z 0000000180076798     cap.obj
 0002:000257ac       $chain$2$?_save_ascii@?$CImg@E@cimg_library@@QEBAAEBU12@QEAU_iobuf@@QEBD@Z 00000001800767ac     cap.obj
 0002:000257c4       $chain$5$?_save_ascii@?$CImg@E@cimg_library@@QEBAAEBU12@QEAU_iobuf@@QEBD@Z 00000001800767c4     cap.obj
 0002:000257e0       $chain$6$?_save_ascii@?$CImg@E@cimg_library@@QEBAAEBU12@QEAU_iobuf@@QEBD@Z 00000001800767e0     cap.obj
 0002:000257f0       $chain$7$?_save_ascii@?$CImg@E@cimg_library@@QEBAAEBU12@QEAU_iobuf@@QEBD@Z 00000001800767f0     cap.obj
 0002:00025800       $chain$8$?_save_ascii@?$CImg@E@cimg_library@@QEBAAEBU12@QEAU_iobuf@@QEBD@Z 0000000180076800     cap.obj
 0002:00025810       $unwind$?draw_image@?$CImg@D@cimg_library@@QEAAAEAU12@HHHHAEBU12@M@Z 0000000180076810     cap.obj
 0002:00025810       $unwind$?draw_image@?$CImg@E@cimg_library@@QEAAAEAU12@HHHHAEBU12@M@Z 0000000180076810     cap.obj
 0002:00025824       $chain$1$?draw_image@?$CImg@E@cimg_library@@QEAAAEAU12@HHHHAEBU12@M@Z 0000000180076824     cap.obj
 0002:0002583c       $chain$3$?draw_image@?$CImg@E@cimg_library@@QEAAAEAU12@HHHHAEBU12@M@Z 000000018007683c     cap.obj
 0002:00025854       $chain$4$?draw_image@?$CImg@E@cimg_library@@QEAAAEAU12@HHHHAEBU12@M@Z 0000000180076854     cap.obj
 0002:00025864       $chain$5$?draw_image@?$CImg@E@cimg_library@@QEAAAEAU12@HHHHAEBU12@M@Z 0000000180076864     cap.obj
 0002:00025874       $unwind$?deriche@?$CImg@E@cimg_library@@QEAAAEAU12@MHD_N@Z 0000000180076874     cap.obj
 0002:00025890       $chain$15$?deriche@?$CImg@E@cimg_library@@QEAAAEAU12@MHD_N@Z 0000000180076890     cap.obj
 0002:000258d0       $chain$16$?deriche@?$CImg@E@cimg_library@@QEAAAEAU12@MHD_N@Z 00000001800768d0     cap.obj
 0002:000258e0       $unwind$?get_split@?$CImg@E@cimg_library@@QEBA?AU?$CImgList@E@2@DH@Z 00000001800768e0     cap.obj
 0002:000258ec       $chain$2$?get_split@?$CImg@E@cimg_library@@QEBA?AU?$CImgList@E@2@DH@Z 00000001800768ec     cap.obj
 0002:00025908       $chain$3$?get_split@?$CImg@E@cimg_library@@QEBA?AU?$CImgList@E@2@DH@Z 0000000180076908     cap.obj
 0002:0002591c       $chain$4$?get_split@?$CImg@E@cimg_library@@QEBA?AU?$CImgList@E@2@DH@Z 000000018007691c     cap.obj
 0002:0002592c       $chain$5$?get_split@?$CImg@E@cimg_library@@QEBA?AU?$CImgList@E@2@DH@Z 000000018007692c     cap.obj
 0002:0002593c       $unwind$?get_crop@?$CImg@E@cimg_library@@QEBA?AU12@HHHHHHHH_N@Z 000000018007693c     cap.obj
 0002:00025954       $chain$3$?get_crop@?$CImg@E@cimg_library@@QEBA?AU12@HHHHHHHH_N@Z 0000000180076954     cap.obj
 0002:00025974       $chain$4$?get_crop@?$CImg@E@cimg_library@@QEBA?AU12@HHHHHHHH_N@Z 0000000180076974     cap.obj
 0002:00025984       $unwind$?_cimg_lanczos@?$CImg@M@cimg_library@@SAMM@Z 0000000180076984     cap.obj
 0002:00025984       $unwind$?_cimg_lanczos@?$CImg@E@cimg_library@@SAMM@Z 0000000180076984     cap.obj
 0002:00025984       $unwind$_sincosf_special   0000000180076984     libucrt:sincos_special.obj
 0002:0002598c       $chain$2$?_cimg_lanczos@?$CImg@E@cimg_library@@SAMM@Z 000000018007698c     cap.obj
 0002:0002598c       $chain$2$?_cimg_lanczos@?$CImg@M@cimg_library@@SAMM@Z 000000018007698c     cap.obj
 0002:000259a8       $chain$3$?_cimg_lanczos@?$CImg@E@cimg_library@@SAMM@Z 00000001800769a8     cap.obj
 0002:000259a8       $chain$3$?_cimg_lanczos@?$CImg@M@cimg_library@@SAMM@Z 00000001800769a8     cap.obj
 0002:000259b8       $unwind$?assign@?$CImg@E@cimg_library@@QEAAAEAU12@IIII@Z 00000001800769b8     cap.obj
 0002:000259d8       $tryMap$?assign@?$CImg@E@cimg_library@@QEAAAEAU12@IIII@Z 00000001800769d8     cap.obj
 0002:000259ec       $handlerMap$0$?assign@?$CImg@E@cimg_library@@QEAAAEAU12@IIII@Z 00000001800769ec     cap.obj
 0002:00025a00       $ip2state$?assign@?$CImg@E@cimg_library@@QEAAAEAU12@IIII@Z 0000000180076a00     cap.obj
 0002:00025a28       $unwind$?catch$0@?0??assign@?$CImg@E@cimg_library@@QEAAAEAU12@IIII@Z@4HA 0000000180076a28     cap.obj
 0002:00025a44       $unwind$??0?$CImg@K@cimg_library@@QEAA@IIII@Z 0000000180076a44     cap.obj
 0002:00025a5c       $tryMap$??0?$CImg@K@cimg_library@@QEAA@IIII@Z 0000000180076a5c     cap.obj
 0002:00025a70       $handlerMap$0$??0?$CImg@K@cimg_library@@QEAA@IIII@Z 0000000180076a70     cap.obj
 0002:00025a88       $ip2state$??0?$CImg@K@cimg_library@@QEAA@IIII@Z 0000000180076a88     cap.obj
 0002:00025ab0       $unwind$?catch$0@?0???0?$CImg@K@cimg_library@@QEAA@IIII@Z@4HA 0000000180076ab0     cap.obj
 0002:00025ac4       $unwind$??0?$CImg@G@cimg_library@@QEAA@IIII@Z 0000000180076ac4     cap.obj
 0002:00025adc       $tryMap$??0?$CImg@G@cimg_library@@QEAA@IIII@Z 0000000180076adc     cap.obj
 0002:00025af0       $handlerMap$0$??0?$CImg@G@cimg_library@@QEAA@IIII@Z 0000000180076af0     cap.obj
 0002:00025b08       $ip2state$??0?$CImg@G@cimg_library@@QEAA@IIII@Z 0000000180076b08     cap.obj
 0002:00025b30       $unwind$?catch$0@?0???0?$CImg@G@cimg_library@@QEAA@IIII@Z@4HA 0000000180076b30     cap.obj
 0002:00025b44       $unwind$?assign@?$CImg@D@cimg_library@@QEAAAEAU12@IIII@Z 0000000180076b44     cap.obj
 0002:00025b64       $tryMap$?assign@?$CImg@D@cimg_library@@QEAAAEAU12@IIII@Z 0000000180076b64     cap.obj
 0002:00025b78       $handlerMap$0$?assign@?$CImg@D@cimg_library@@QEAAAEAU12@IIII@Z 0000000180076b78     cap.obj
 0002:00025b90       $ip2state$?assign@?$CImg@D@cimg_library@@QEAAAEAU12@IIII@Z 0000000180076b90     cap.obj
 0002:00025bb8       $unwind$?catch$0@?0??assign@?$CImg@D@cimg_library@@QEAAAEAU12@IIII@Z@4HA 0000000180076bb8     cap.obj
 0002:00025bd4       $unwind$??0?$CImg@D@cimg_library@@QEAA@QEBDIIII_N@Z 0000000180076bd4     cap.obj
 0002:00025bf0       $tryMap$??0?$CImg@D@cimg_library@@QEAA@QEBDIIII_N@Z 0000000180076bf0     cap.obj
 0002:00025c04       $handlerMap$0$??0?$CImg@D@cimg_library@@QEAA@QEBDIIII_N@Z 0000000180076c04     cap.obj
 0002:00025c18       $ip2state$??0?$CImg@D@cimg_library@@QEAA@QEBDIIII_N@Z 0000000180076c18     cap.obj
 0002:00025c40       $unwind$?catch$0@?0???0?$CImg@D@cimg_library@@QEAA@QEBDIIII_N@Z@4HA 0000000180076c40     cap.obj
 0002:00025c54       $unwind$?save_ffmpeg_external@?$CImgList@E@cimg_library@@QEBAAEBU12@QEBD0II@Z 0000000180076c54     cap.obj
 0002:00025c6c       $chain$3$?save_ffmpeg_external@?$CImgList@E@cimg_library@@QEBAAEBU12@QEBD0II@Z 0000000180076c6c     cap.obj
 0002:00025c8c       $chain$4$?save_ffmpeg_external@?$CImgList@E@cimg_library@@QEBAAEBU12@QEBD0II@Z 0000000180076c8c     cap.obj
 0002:00025ca0       $chain$5$?save_ffmpeg_external@?$CImgList@E@cimg_library@@QEBAAEBU12@QEBD0II@Z 0000000180076ca0     cap.obj
 0002:00025cb4       $chain$6$?save_ffmpeg_external@?$CImgList@E@cimg_library@@QEBAAEBU12@QEBD0II@Z 0000000180076cb4     cap.obj
 0002:00025cc4       $chain$7$?save_ffmpeg_external@?$CImgList@E@cimg_library@@QEBAAEBU12@QEBD0II@Z 0000000180076cc4     cap.obj
 0002:00025cd4       $chain$8$?save_ffmpeg_external@?$CImgList@E@cimg_library@@QEBAAEBU12@QEBD0II@Z 0000000180076cd4     cap.obj
 0002:00025ce4       $chain$9$?save_ffmpeg_external@?$CImgList@E@cimg_library@@QEBAAEBU12@QEBD0II@Z 0000000180076ce4     cap.obj
 0002:00025d04       $unwind$?_save_cimg@?$CImgList@E@cimg_library@@QEBAAEBU12@QEAU_iobuf@@QEBD_N@Z 0000000180076d04     cap.obj
 0002:00025d1c       $chain$1$?_save_cimg@?$CImgList@E@cimg_library@@QEBAAEBU12@QEAU_iobuf@@QEBD_N@Z 0000000180076d1c     cap.obj
 0002:00025d34       $chain$2$?_save_cimg@?$CImgList@E@cimg_library@@QEBAAEBU12@QEAU_iobuf@@QEBD_N@Z 0000000180076d34     cap.obj
 0002:00025d48       $chain$3$?_save_cimg@?$CImgList@E@cimg_library@@QEBAAEBU12@QEAU_iobuf@@QEBD_N@Z 0000000180076d48     cap.obj
 0002:00025d58       $chain$4$?_save_cimg@?$CImgList@E@cimg_library@@QEBAAEBU12@QEAU_iobuf@@QEBD_N@Z 0000000180076d58     cap.obj
 0002:00025d68       $unwind$?_save_yuv@?$CImgList@E@cimg_library@@QEBAAEBU12@QEAU_iobuf@@QEBD_N@Z 0000000180076d68     cap.obj
 0002:00025d7c       $chain$2$?_save_yuv@?$CImgList@E@cimg_library@@QEBAAEBU12@QEAU_iobuf@@QEBD_N@Z 0000000180076d7c     cap.obj
 0002:00025d98       $chain$3$?_save_yuv@?$CImgList@E@cimg_library@@QEBAAEBU12@QEAU_iobuf@@QEBD_N@Z 0000000180076d98     cap.obj
 0002:00025dac       $chain$4$?_save_yuv@?$CImgList@E@cimg_library@@QEBAAEBU12@QEAU_iobuf@@QEBD_N@Z 0000000180076dac     cap.obj
 0002:00025dbc       $chain$5$?_save_yuv@?$CImgList@E@cimg_library@@QEBAAEBU12@QEAU_iobuf@@QEBD_N@Z 0000000180076dbc     cap.obj
 0002:00025dcc       $unwind$?getSystemCP@@YAHH@Z 0000000180076dcc     libucrt:mbctype.obj
 0002:00025dcc       $unwind$isdigit            0000000180076dcc     libucrt:_ctype.obj
 0002:00025dcc       $unwind$_isleadbyte_l      0000000180076dcc     libucrt:_wctype.obj
 0002:00025dcc       $unwind$isspace            0000000180076dcc     libucrt:_ctype.obj
 0002:00025dcc       $unwind$?mirror@?$CImg@E@cimg_library@@QEAAAEAU12@D@Z 0000000180076dcc     cap.obj
 0002:00025dd4       $chain$4$?mirror@?$CImg@E@cimg_library@@QEAAAEAU12@D@Z 0000000180076dd4     cap.obj
 0002:00025df8       $chain$5$?mirror@?$CImg@E@cimg_library@@QEAAAEAU12@D@Z 0000000180076df8     cap.obj
 0002:00025e0c       $chain$6$?mirror@?$CImg@E@cimg_library@@QEAAAEAU12@D@Z 0000000180076e0c     cap.obj
 0002:00025e1c       $chain$7$?mirror@?$CImg@E@cimg_library@@QEAAAEAU12@D@Z 0000000180076e1c     cap.obj
 0002:00025e2c       $unwind$?_Copy@?$basic_string@DU?$char_traits@D@std@@V?$allocator@D@2@@std@@QEAAX_K0@Z 0000000180076e2c     cap.obj
 0002:00025e40       $unwind$?get_append@?$CImgList@D@cimg_library@@QEBA?AU?$CImg@D@2@DM@Z 0000000180076e40     cap.obj
 0002:00025e54       $chain$1$?get_append@?$CImgList@D@cimg_library@@QEBA?AU?$CImg@D@2@DM@Z 0000000180076e54     cap.obj
 0002:00025e6c       $chain$2$?get_append@?$CImgList@D@cimg_library@@QEBA?AU?$CImg@D@2@DM@Z 0000000180076e6c     cap.obj
 0002:00025e80       $chain$5$?get_append@?$CImgList@D@cimg_library@@QEBA?AU?$CImg@D@2@DM@Z 0000000180076e80     cap.obj
 0002:00025e9c       $chain$6$?get_append@?$CImgList@D@cimg_library@@QEBA?AU?$CImg@D@2@DM@Z 0000000180076e9c     cap.obj
 0002:00025eac       $chain$7$?get_append@?$CImgList@D@cimg_library@@QEBA?AU?$CImg@D@2@DM@Z 0000000180076eac     cap.obj
 0002:00025ebc       $chain$8$?get_append@?$CImgList@D@cimg_library@@QEBA?AU?$CImg@D@2@DM@Z 0000000180076ebc     cap.obj
 0002:00025ecc       $unwind$?assign@?$CImgList@E@cimg_library@@QEAAAEAU12@I@Z 0000000180076ecc     cap.obj
 0002:00025ecc       $unwind$?assign@?$CImgList@M@cimg_library@@QEAAAEAU12@I@Z 0000000180076ecc     cap.obj
 0002:00025ed8       $chain$0$?assign@?$CImgList@M@cimg_library@@QEAAAEAU12@I@Z 0000000180076ed8     cap.obj
 0002:00025ed8       $chain$0$?assign@?$CImgList@E@cimg_library@@QEAAAEAU12@I@Z 0000000180076ed8     cap.obj
 0002:00025eec       $chain$1$?assign@?$CImgList@E@cimg_library@@QEAAAEAU12@I@Z 0000000180076eec     cap.obj
 0002:00025eec       $chain$1$?assign@?$CImgList@M@cimg_library@@QEAAAEAU12@I@Z 0000000180076eec     cap.obj
 0002:00025efc       $unwind$?RGBtoYCbCr@?$CImg@E@cimg_library@@QEAAAEAU12@XZ 0000000180076efc     cap.obj
 0002:00025f0c       $chain$9$?RGBtoYCbCr@?$CImg@E@cimg_library@@QEAAAEAU12@XZ 0000000180076f0c     cap.obj
 0002:00025f44       $chain$10$?RGBtoYCbCr@?$CImg@E@cimg_library@@QEAAAEAU12@XZ 0000000180076f44     cap.obj
 0002:00025f54       $chain$1$?draw_image@?$CImg@D@cimg_library@@QEAAAEAU12@HHHHAEBU12@M@Z 0000000180076f54     cap.obj
 0002:00025f6c       $chain$3$?draw_image@?$CImg@D@cimg_library@@QEAAAEAU12@HHHHAEBU12@M@Z 0000000180076f6c     cap.obj
 0002:00025f84       $chain$4$?draw_image@?$CImg@D@cimg_library@@QEAAAEAU12@HHHHAEBU12@M@Z 0000000180076f84     cap.obj
 0002:00025f94       $chain$5$?draw_image@?$CImg@D@cimg_library@@QEAAAEAU12@HHHHAEBU12@M@Z 0000000180076f94     cap.obj
 0002:00025fa4       $unwind$??0?$CImg@D@cimg_library@@QEAA@AEBU01@@Z 0000000180076fa4     cap.obj
 0002:00025fc4       $tryMap$??0?$CImg@D@cimg_library@@QEAA@AEBU01@@Z 0000000180076fc4     cap.obj
 0002:00025fd8       $handlerMap$0$??0?$CImg@D@cimg_library@@QEAA@AEBU01@@Z 0000000180076fd8     cap.obj
 0002:00025ff0       $ip2state$??0?$CImg@D@cimg_library@@QEAA@AEBU01@@Z 0000000180076ff0     cap.obj
 0002:00026018       $unwind$?catch$0@?0???0?$CImg@D@cimg_library@@QEAA@AEBU01@@Z@4HA 0000000180077018     cap.obj
 0002:00026034       $unwind$??0?$CImg@D@cimg_library@@QEAA@AEBU01@_N@Z 0000000180077034     cap.obj
 0002:00026054       $tryMap$??0?$CImg@D@cimg_library@@QEAA@AEBU01@_N@Z 0000000180077054     cap.obj
 0002:00026068       $handlerMap$0$??0?$CImg@D@cimg_library@@QEAA@AEBU01@_N@Z 0000000180077068     cap.obj
 0002:00026080       $ip2state$??0?$CImg@D@cimg_library@@QEAA@AEBU01@_N@Z 0000000180077080     cap.obj
 0002:000260a8       $unwind$?catch$0@?0???0?$CImg@D@cimg_library@@QEAA@AEBU01@_N@Z@4HA 00000001800770a8     cap.obj
 0002:000260c4       $unwind$rename             00000001800770c4     libucrt:rename.obj
 0002:000260c4       $unwind$?assemble_floating_point_value_from_big_integer@__crt_strtox@@YA?AW4SLD_STATUS@@AEBUbig_integer@1@I_N1AEBVfloating_point_value@1@@Z 00000001800770c4     libucrt:input.obj
 0002:000260c4       $unwind$??$_render_resize@II@CImgDisplay@cimg_library@@SAXPEBIIIPEAIII@Z 00000001800770c4     cap.obj
 0002:000260e0       $unwind$??$dialog@E@cimg@cimg_library@@YAHQEBD0000000AEBU?$CImg@E@1@_N@Z 00000001800770e0     cap.obj
 0002:00026104       $chain$0$??$dialog@E@cimg@cimg_library@@YAHQEBD0000000AEBU?$CImg@E@1@_N@Z 0000000180077104     cap.obj
 0002:00026118       $chain$1$??$dialog@E@cimg@cimg_library@@YAHQEBD0000000AEBU?$CImg@E@1@_N@Z 0000000180077118     cap.obj
 0002:00026128       $unwind$??$draw_text@E@?$CImg@E@cimg_library@@QEAAAEAU01@HHQEBDQEBEHMIZZ 0000000180077128     cap.obj
 0002:00026144       $chain$0$??$draw_text@E@?$CImg@E@cimg_library@@QEAAAEAU01@HHQEBDQEBEHMIZZ 0000000180077144     cap.obj
 0002:00026158       $chain$1$??$draw_text@E@?$CImg@E@cimg_library@@QEAAAEAU01@HHQEBDQEBEHMIZZ 0000000180077158     cap.obj
 0002:00026168       $unwind$??$draw_circle@E@?$CImg@E@cimg_library@@QEAAAEAU01@HHHQEBEMI@Z 0000000180077168     cap.obj
 0002:00026188       $chain$1$??$draw_circle@E@?$CImg@E@cimg_library@@QEAAAEAU01@HHHQEBEMI@Z 0000000180077188     cap.obj
 0002:000261a0       $chain$2$??$draw_circle@E@?$CImg@E@cimg_library@@QEAAAEAU01@HHHQEBEMI@Z 00000001800771a0     cap.obj
 0002:000261b4       $chain$3$??$draw_circle@E@?$CImg@E@cimg_library@@QEAAAEAU01@HHHQEBEMI@Z 00000001800771b4     cap.obj
 0002:000261c4       $chain$6$??$draw_circle@E@?$CImg@E@cimg_library@@QEAAAEAU01@HHHQEBEMI@Z 00000001800771c4     cap.obj
 0002:000261c4       $chain$4$??$draw_circle@E@?$CImg@E@cimg_library@@QEAAAEAU01@HHHQEBEMI@Z 00000001800771c4     cap.obj
 0002:000261d4       $chain$5$??$draw_circle@E@?$CImg@E@cimg_library@@QEAAAEAU01@HHHQEBEMI@Z 00000001800771d4     cap.obj
 0002:000261ec       $unwind$??$draw_line@E@?$CImg@E@cimg_library@@QEAAAEAU01@HHHHQEBEMI_N@Z 00000001800771ec     cap.obj
 0002:00026208       $chain$1$??$draw_line@E@?$CImg@E@cimg_library@@QEAAAEAU01@HHHHQEBEMI_N@Z 0000000180077208     cap.obj
 0002:00026220       $chain$2$??$draw_line@E@?$CImg@E@cimg_library@@QEAAAEAU01@HHHHQEBEMI_N@Z 0000000180077220     cap.obj
 0002:00026230       $unwind$??$?ZE@?$CImg@E@cimg_library@@QEAAAEAU01@AEBU01@@Z 0000000180077230     cap.obj
 0002:00026230       $unwind$??$?_5E@?$CImg@E@cimg_library@@QEAAAEAU01@AEBU01@@Z 0000000180077230     cap.obj
 0002:00026240       $chain$0$??$?_5E@?$CImg@E@cimg_library@@QEAAAEAU01@AEBU01@@Z 0000000180077240     cap.obj
 0002:00026254       $chain$1$??$?_5E@?$CImg@E@cimg_library@@QEAAAEAU01@AEBU01@@Z 0000000180077254     cap.obj
 0002:00026264       $unwind$??$?0E@?$CImgList@E@cimg_library@@QEAA@AEBU?$CImg@E@1@_N@Z 0000000180077264     cap.obj
 0002:00026264       $unwind$_strnicmp_l        0000000180077264     libucrt:strnicmp.obj
 0002:00026264       $unwind$?__SehTransFilter@@YAHPEAU_EXCEPTION_POINTERS@@PEAUEHExceptionRecord@@PEA_KPEAU_CONTEXT@@PEAU_xDISPATCHER_CONTEXT@@PEBU_s_FuncInfo@@PEAH@Z 0000000180077264     libvcruntime:trnsctrl.obj
 0002:00026278       $unwind$??$fwrite@D@cimg@cimg_library@@YAHPEBDKPEAU_iobuf@@@Z 0000000180077278     cap.obj
 0002:00026278       $unwind$??$fwrite@K@cimg@cimg_library@@YAHPEBKKPEAU_iobuf@@@Z 0000000180077278     cap.obj
 0002:00026278       $unwind$??$fwrite@E@cimg@cimg_library@@YAHPEBEKPEAU_iobuf@@@Z 0000000180077278     cap.obj
 0002:00026278       $unwind$??$fwrite@G@cimg@cimg_library@@YAHPEBGKPEAU_iobuf@@@Z 0000000180077278     cap.obj
 0002:00026278       $unwind$??$fwrite@M@cimg@cimg_library@@YAHPEBMKPEAU_iobuf@@@Z 0000000180077278     cap.obj
 0002:00026290       $chain$2$??$fwrite@D@cimg@cimg_library@@YAHPEBDKPEAU_iobuf@@@Z 0000000180077290     cap.obj
 0002:000262ac       $chain$3$??$fwrite@D@cimg@cimg_library@@YAHPEBDKPEAU_iobuf@@@Z 00000001800772ac     cap.obj
 0002:000262bc       $chain$2$??$fwrite@E@cimg@cimg_library@@YAHPEBEKPEAU_iobuf@@@Z 00000001800772bc     cap.obj
 0002:000262d8       $chain$3$??$fwrite@E@cimg@cimg_library@@YAHPEBEKPEAU_iobuf@@@Z 00000001800772d8     cap.obj
 0002:000262e8       $unwind$??$move_to@E@?$CImgList@E@cimg_library@@QEAAAEAU01@AEAU01@@Z 00000001800772e8     cap.obj
 0002:000262e8       $unwind$??$move_to@M@?$CImgList@M@cimg_library@@QEAAAEAU01@AEAU01@@Z 00000001800772e8     cap.obj
 0002:000262fc       $chain$0$??$move_to@E@?$CImgList@E@cimg_library@@QEAAAEAU01@AEAU01@@Z 00000001800772fc     cap.obj
 0002:00026310       $chain$1$??$move_to@E@?$CImgList@E@cimg_library@@QEAAAEAU01@AEAU01@@Z 0000000180077310     cap.obj
 0002:00026320       $chain$2$??$fwrite@K@cimg@cimg_library@@YAHPEBKKPEAU_iobuf@@@Z 0000000180077320     cap.obj
 0002:0002633c       $chain$3$??$fwrite@K@cimg@cimg_library@@YAHPEBKKPEAU_iobuf@@@Z 000000018007733c     cap.obj
 0002:0002634c       $chain$2$??$fwrite@G@cimg@cimg_library@@YAHPEBGKPEAU_iobuf@@@Z 000000018007734c     cap.obj
 0002:00026368       $chain$3$??$fwrite@G@cimg@cimg_library@@YAHPEBGKPEAU_iobuf@@@Z 0000000180077368     cap.obj
 0002:00026378       $chain$2$??$fwrite@M@cimg@cimg_library@@YAHPEBMKPEAU_iobuf@@@Z 0000000180077378     cap.obj
 0002:00026394       $chain$3$??$fwrite@M@cimg@cimg_library@@YAHPEBMKPEAU_iobuf@@@Z 0000000180077394     cap.obj
 0002:000263a4       $unwind$?x_ismbbtype_l@@YAHPEAU__crt_locale_pointers@@IHH@Z 00000001800773a4     libucrt:ismbbyte.obj
 0002:000263a4       $unwind$_stricmp_l         00000001800773a4     libucrt:stricmp.obj
 0002:000263a4       $unwind$??$move_to@E@?$CImg@E@cimg_library@@QEAAAEAU?$CImgList@E@1@AEAU21@I@Z 00000001800773a4     cap.obj
 0002:000263b4       $unwind$?assign@?$CImg@D@cimg_library@@QEAAAEAU12@QEBDIIII_N@Z 00000001800773b4     cap.obj
 0002:000263c8       $unwind$??0?$CImg@M@cimg_library@@QEAA@AEBU01@@Z 00000001800773c8     cap.obj
 0002:000263e8       $tryMap$??0?$CImg@M@cimg_library@@QEAA@AEBU01@@Z 00000001800773e8     cap.obj
 0002:000263fc       $handlerMap$0$??0?$CImg@M@cimg_library@@QEAA@AEBU01@@Z 00000001800773fc     cap.obj
 0002:00026410       $ip2state$??0?$CImg@M@cimg_library@@QEAA@AEBU01@@Z 0000000180077410     cap.obj
 0002:00026438       $unwind$?catch$0@?0???0?$CImg@M@cimg_library@@QEAA@AEBU01@@Z@4HA 0000000180077438     cap.obj
 0002:00026454       $unwind$?assign@?$CImg@E@cimg_library@@QEAAAEAU12@QEBEIIII_N@Z 0000000180077454     cap.obj
 0002:00026454       $unwind$?assign@?$CImg@M@cimg_library@@QEAAAEAU12@QEBMIIII_N@Z 0000000180077454     cap.obj
 0002:00026470       $unwind$?assign@?$CImg@E@cimg_library@@QEAAAEAU12@QEBEIIII@Z 0000000180077470     cap.obj
 0002:00026494       $tryMap$?assign@?$CImg@E@cimg_library@@QEAAAEAU12@QEBEIIII@Z 0000000180077494     cap.obj
 0002:000264a8       $handlerMap$0$?assign@?$CImg@E@cimg_library@@QEAAAEAU12@QEBEIIII@Z 00000001800774a8     cap.obj
 0002:000264c0       $ip2state$?assign@?$CImg@E@cimg_library@@QEAAAEAU12@QEBEIIII@Z 00000001800774c0     cap.obj
 0002:000264e8       $unwind$?catch$0@?0??assign@?$CImg@E@cimg_library@@QEAAAEAU12@QEBEIIII@Z@4HA 00000001800774e8     cap.obj
 0002:00026504       $unwind$?insert@?$CImgList@E@cimg_library@@QEAAAEAU12@AEBU?$CImg@E@2@I_N@Z 0000000180077504     cap.obj
 0002:00026504       $unwind$?insert@?$CImgList@D@cimg_library@@QEAAAEAU12@AEBU?$CImg@D@2@I_N@Z 0000000180077504     cap.obj
 0002:0002651c       $chain$0$?insert@?$CImgList@D@cimg_library@@QEAAAEAU12@AEBU?$CImg@D@2@I_N@Z 000000018007751c     cap.obj
 0002:00026530       $chain$2$?insert@?$CImgList@D@cimg_library@@QEAAAEAU12@AEBU?$CImg@D@2@I_N@Z 0000000180077530     cap.obj
 0002:00026548       $chain$3$?insert@?$CImgList@D@cimg_library@@QEAAAEAU12@AEBU?$CImg@D@2@I_N@Z 0000000180077548     cap.obj
 0002:0002655c       $chain$4$?insert@?$CImgList@D@cimg_library@@QEAAAEAU12@AEBU?$CImg@D@2@I_N@Z 000000018007755c     cap.obj
 0002:0002656c       $chain$0$?insert@?$CImgList@E@cimg_library@@QEAAAEAU12@AEBU?$CImg@E@2@I_N@Z 000000018007756c     cap.obj
 0002:00026580       $chain$2$?insert@?$CImgList@E@cimg_library@@QEAAAEAU12@AEBU?$CImg@E@2@I_N@Z 0000000180077580     cap.obj
 0002:00026598       $chain$3$?insert@?$CImgList@E@cimg_library@@QEAAAEAU12@AEBU?$CImg@E@2@I_N@Z 0000000180077598     cap.obj
 0002:000265ac       $chain$4$?insert@?$CImgList@E@cimg_library@@QEAAAEAU12@AEBU?$CImg@E@2@I_N@Z 00000001800775ac     cap.obj
 0002:000265bc       $unwind$?get_crop@?$CImg@M@cimg_library@@QEBA?AU12@HHHHHHHH_N@Z 00000001800775bc     cap.obj
 0002:000265d4       $chain$3$?get_crop@?$CImg@M@cimg_library@@QEBA?AU12@HHHHHHHH_N@Z 00000001800775d4     cap.obj
 0002:000265f4       $chain$4$?get_crop@?$CImg@M@cimg_library@@QEBA?AU12@HHHHHHHH_N@Z 00000001800775f4     cap.obj
 0002:00026604       $unwind$??0?$CImg@M@cimg_library@@QEAA@AEBU01@_N@Z 0000000180077604     cap.obj
 0002:00026624       $tryMap$??0?$CImg@M@cimg_library@@QEAA@AEBU01@_N@Z 0000000180077624     cap.obj
 0002:00026638       $handlerMap$0$??0?$CImg@M@cimg_library@@QEAA@AEBU01@_N@Z 0000000180077638     cap.obj
 0002:00026650       $ip2state$??0?$CImg@M@cimg_library@@QEAA@AEBU01@_N@Z 0000000180077650     cap.obj
 0002:00026678       $unwind$?catch$0@?0???0?$CImg@M@cimg_library@@QEAA@AEBU01@_N@Z@4HA 0000000180077678     cap.obj
 0002:00026694       $unwind$?draw_image@?$CImg@M@cimg_library@@QEAAAEAU12@HHHHAEBU12@M@Z 0000000180077694     cap.obj
 0002:000266a8       $chain$1$?draw_image@?$CImg@M@cimg_library@@QEAAAEAU12@HHHHAEBU12@M@Z 00000001800776a8     cap.obj
 0002:000266c0       $chain$2$?draw_image@?$CImg@M@cimg_library@@QEAAAEAU12@HHHHAEBU12@M@Z 00000001800776c0     cap.obj
 0002:000266c0       $chain$8$?draw_image@?$CImg@M@cimg_library@@QEAAAEAU12@HHHHAEBU12@M@Z 00000001800776c0     cap.obj
 0002:000266d0       $chain$7$?draw_image@?$CImg@M@cimg_library@@QEAAAEAU12@HHHHAEBU12@M@Z 00000001800776d0     cap.obj
 0002:000266f8       $unwind$??$draw_text@EE@?$CImg@E@cimg_library@@QEAAAEAU01@HHQEBDQEBE1MIZZ 00000001800776f8     cap.obj
 0002:00026710       $chain$4$??$draw_text@EE@?$CImg@E@cimg_library@@QEAAAEAU01@HHQEBDQEBE1MIZZ 0000000180077710     cap.obj
 0002:00026734       $chain$5$??$draw_text@EE@?$CImg@E@cimg_library@@QEAAAEAU01@HHQEBDQEBE1MIZZ 0000000180077734     cap.obj
 0002:00026744       $chain$6$??$draw_text@EE@?$CImg@E@cimg_library@@QEAAAEAU01@HHQEBDQEBE1MIZZ 0000000180077744     cap.obj
 0002:00026764       $chain$0$??$?ZE@?$CImg@E@cimg_library@@QEAAAEAU01@AEBU01@@Z 0000000180077764     cap.obj
 0002:00026778       $chain$1$??$?ZE@?$CImg@E@cimg_library@@QEAAAEAU01@AEBU01@@Z 0000000180077778     cap.obj
 0002:00026788       $unwind$??$display@E@CImgDisplay@cimg_library@@QEAAAEAU01@AEBU?$CImg@E@1@@Z 0000000180077788     cap.obj
 0002:00026798       $unwind$?font@?$CImgList@M@cimg_library@@SAAEBU12@I_N@Z 0000000180077798     cap.obj
 0002:000267ac       $chain$1$?font@?$CImgList@M@cimg_library@@SAAEBU12@I_N@Z 00000001800777ac     cap.obj
 0002:000267c4       $chain$2$?font@?$CImgList@M@cimg_library@@SAAEBU12@I_N@Z 00000001800777c4     cap.obj
 0002:000267d4       $chain$0$?resize@?$CImg@M@cimg_library@@QEAAAEAU12@HHHHHIMMMM@Z 00000001800777d4     cap.obj
 0002:000267e8       $chain$1$?resize@?$CImg@M@cimg_library@@QEAAAEAU12@HHHHHIMMMM@Z 00000001800777e8     cap.obj
 0002:000267fc       $chain$2$?resize@?$CImg@M@cimg_library@@QEAAAEAU12@HHHHHIMMMM@Z 00000001800777fc     cap.obj
 0002:0002680c       $chain$4$?resize@?$CImg@M@cimg_library@@QEAAAEAU12@HHHHHIMMMM@Z 000000018007780c     cap.obj
 0002:00026824       $chain$5$?resize@?$CImg@M@cimg_library@@QEAAAEAU12@HHHHHIMMMM@Z 0000000180077824     cap.obj
 0002:00026838       $chain$6$?resize@?$CImg@M@cimg_library@@QEAAAEAU12@HHHHHIMMMM@Z 0000000180077838     cap.obj
 0002:00026848       $unwind$?assign@?$CImg@M@cimg_library@@QEAAAEAU12@IIII@Z 0000000180077848     cap.obj
 0002:00026868       $tryMap$?assign@?$CImg@M@cimg_library@@QEAAAEAU12@IIII@Z 0000000180077868     cap.obj
 0002:0002687c       $handlerMap$0$?assign@?$CImg@M@cimg_library@@QEAAAEAU12@IIII@Z 000000018007787c     cap.obj
 0002:00026890       $ip2state$?assign@?$CImg@M@cimg_library@@QEAAAEAU12@IIII@Z 0000000180077890     cap.obj
 0002:000268b8       $unwind$?catch$0@?0??assign@?$CImg@M@cimg_library@@QEAAAEAU12@IIII@Z@4HA 00000001800778b8     cap.obj
 0002:000268d4       $unwind$?_font@?$CImgList@M@cimg_library@@SA?AU12@QEBIII_N@Z 00000001800778d4     cap.obj
 0002:000268ec       $unwind$?assign@?$CImgList@M@cimg_library@@QEAAAEAU12@AEBU12@_N@Z 00000001800778ec     cap.obj
 0002:00026908       $unwind$?get_resize@?$CImg@M@cimg_library@@QEBA?AU12@HHHHHIMMMM@Z 0000000180077908     cap.obj
 0002:00026938       $chain$0$?get_resize@?$CImg@M@cimg_library@@QEBA?AU12@HHHHHIMMMM@Z 0000000180077938     cap.obj
 0002:0002694c       $chain$3$?get_resize@?$CImg@M@cimg_library@@QEBA?AU12@HHHHHIMMMM@Z 000000018007794c     cap.obj
 0002:00026968       $chain$4$?get_resize@?$CImg@M@cimg_library@@QEBA?AU12@HHHHHIMMMM@Z 0000000180077968     cap.obj
 0002:0002697c       $chain$5$?get_resize@?$CImg@M@cimg_library@@QEBA?AU12@HHHHHIMMMM@Z 000000018007797c     cap.obj
 0002:0002698c       $chain$6$?get_resize@?$CImg@M@cimg_library@@QEBA?AU12@HHHHHIMMMM@Z 000000018007798c     cap.obj
 0002:0002699c       $chain$11$?get_resize@?$CImg@M@cimg_library@@QEBA?AU12@HHHHHIMMMM@Z 000000018007799c     cap.obj
 0002:0002699c       $chain$9$?get_resize@?$CImg@M@cimg_library@@QEBA?AU12@HHHHHIMMMM@Z 000000018007799c     cap.obj
 0002:0002699c       $chain$7$?get_resize@?$CImg@M@cimg_library@@QEBA?AU12@HHHHHIMMMM@Z 000000018007799c     cap.obj
 0002:000269ac       $chain$8$?get_resize@?$CImg@M@cimg_library@@QEBA?AU12@HHHHHIMMMM@Z 00000001800779ac     cap.obj
 0002:000269c0       $chain$10$?get_resize@?$CImg@M@cimg_library@@QEBA?AU12@HHHHHIMMMM@Z 00000001800779c0     cap.obj
 0002:000269e0       $unwind$?assign@?$CImg@M@cimg_library@@QEAAAEAU12@QEBMIIII@Z 00000001800779e0     cap.obj
 0002:00026a04       $tryMap$?assign@?$CImg@M@cimg_library@@QEAAAEAU12@QEBMIIII@Z 0000000180077a04     cap.obj
 0002:00026a18       $handlerMap$0$?assign@?$CImg@M@cimg_library@@QEAAAEAU12@QEBMIIII@Z 0000000180077a18     cap.obj
 0002:00026a30       $ip2state$?assign@?$CImg@M@cimg_library@@QEAAAEAU12@QEBMIIII@Z 0000000180077a30     cap.obj
 0002:00026a58       $unwind$?catch$0@?0??assign@?$CImg@M@cimg_library@@QEAAAEAU12@QEBMIIII@Z@4HA 0000000180077a58     cap.obj
 0002:00026a74       $unwind$?get_crop_font@?$CImgList@M@cimg_library@@QEBA?AU12@XZ 0000000180077a74     cap.obj
 0002:00026a88       $chain$0$?get_crop_font@?$CImgList@M@cimg_library@@QEBA?AU12@XZ 0000000180077a88     cap.obj
 0002:00026a9c       $chain$4$?get_crop_font@?$CImgList@M@cimg_library@@QEBA?AU12@XZ 0000000180077a9c     cap.obj
 0002:00026abc       $chain$5$?get_crop_font@?$CImgList@M@cimg_library@@QEBA?AU12@XZ 0000000180077abc     cap.obj
 0002:00026acc       $chain$6$?get_crop_font@?$CImgList@M@cimg_library@@QEBA?AU12@XZ 0000000180077acc     cap.obj
 0002:00026adc       $unwind$??$_draw_text@EEM@?$CImg@E@cimg_library@@QEAAAEAU01@HHQEBDQEBE1MAEBU?$CImgList@M@1@@Z 0000000180077adc     cap.obj
 0002:00026af4       $chain$3$??$_draw_text@EEM@?$CImg@E@cimg_library@@QEAAAEAU01@HHQEBDQEBE1MAEBU?$CImgList@M@1@@Z 0000000180077af4     cap.obj
 0002:00026b14       $chain$6$??$_draw_text@EEM@?$CImg@E@cimg_library@@QEAAAEAU01@HHQEBDQEBE1MAEBU?$CImgList@M@1@@Z 0000000180077b14     cap.obj
 0002:00026b30       $chain$7$??$_draw_text@EEM@?$CImg@E@cimg_library@@QEAAAEAU01@HHQEBDQEBE1MAEBU?$CImgList@M@1@@Z 0000000180077b30     cap.obj
 0002:00026b40       $chain$8$??$_draw_text@EEM@?$CImg@E@cimg_library@@QEAAAEAU01@HHQEBDQEBE1MAEBU?$CImgList@M@1@@Z 0000000180077b40     cap.obj
 0002:00026b50       $unwind$??$draw_rectangle@E@?$CImg@E@cimg_library@@QEAAAEAU01@HHHHHHQEBEM@Z 0000000180077b50     cap.obj
 0002:00026b68       $chain$1$??$draw_rectangle@E@?$CImg@E@cimg_library@@QEAAAEAU01@HHHHHHQEBEM@Z 0000000180077b68     cap.obj
 0002:00026b80       $chain$5$??$draw_rectangle@E@?$CImg@E@cimg_library@@QEAAAEAU01@HHHHHHQEBEM@Z 0000000180077b80     cap.obj
 0002:00026ba0       $chain$6$??$draw_rectangle@E@?$CImg@E@cimg_library@@QEAAAEAU01@HHHHHHQEBEM@Z 0000000180077ba0     cap.obj
 0002:00026bb0       $chain$7$??$draw_rectangle@E@?$CImg@E@cimg_library@@QEAAAEAU01@HHHHHHQEBEM@Z 0000000180077bb0     cap.obj
 0002:00026bc0       $chain$8$??$draw_rectangle@E@?$CImg@E@cimg_library@@QEAAAEAU01@HHHHHHQEBEM@Z 0000000180077bc0     cap.obj
 0002:00026bd4       $unwind$??$assign@E@CImgDisplay@cimg_library@@QEAAAEAU01@AEBU?$CImg@E@1@QEBDI_N2@Z 0000000180077bd4     cap.obj
 0002:00026be8       $unwind$??$draw_point@E@?$CImg@E@cimg_library@@QEAAAEAU01@HHHQEBEM@Z 0000000180077be8     cap.obj
 0002:00026c00       $unwind$??$render@E@CImgDisplay@cimg_library@@QEAAAEAU01@AEBU?$CImg@E@1@@Z 0000000180077c00     cap.obj
 0002:00026c14       $chain$1$??$render@E@CImgDisplay@cimg_library@@QEAAAEAU01@AEBU?$CImg@E@1@@Z 0000000180077c14     cap.obj
 0002:00026c2c       $chain$2$??$render@E@CImgDisplay@cimg_library@@QEAAAEAU01@AEBU?$CImg@E@1@@Z 0000000180077c2c     cap.obj
 0002:00026c3c       $unwind$??$insert@M@?$CImgList@M@cimg_library@@QEAAAEAU01@AEBU01@I_N@Z 0000000180077c3c     cap.obj
 0002:00026c4c       $chain$0$??$move_to@M@?$CImgList@M@cimg_library@@QEAAAEAU01@AEAU01@@Z 0000000180077c4c     cap.obj
 0002:00026c60       $chain$1$??$move_to@M@?$CImgList@M@cimg_library@@QEAAAEAU01@AEAU01@@Z 0000000180077c60     cap.obj
 0002:00026c70       $unwind$?insert@?$CImgList@M@cimg_library@@QEAAAEAU12@AEBU?$CImg@M@2@I_N@Z 0000000180077c70     cap.obj
 0002:00026c88       $chain$0$?insert@?$CImgList@M@cimg_library@@QEAAAEAU12@AEBU?$CImg@M@2@I_N@Z 0000000180077c88     cap.obj
 0002:00026c9c       $chain$2$?insert@?$CImgList@M@cimg_library@@QEAAAEAU12@AEBU?$CImg@M@2@I_N@Z 0000000180077c9c     cap.obj
 0002:00026cb4       $chain$3$?insert@?$CImgList@M@cimg_library@@QEAAAEAU12@AEBU?$CImg@M@2@I_N@Z 0000000180077cb4     cap.obj
 0002:00026cc8       $chain$4$?insert@?$CImgList@M@cimg_library@@QEAAAEAU12@AEBU?$CImg@M@2@I_N@Z 0000000180077cc8     cap.obj
 0002:00026cd8       $unwind$?draw_rectangle@?$CImg@E@cimg_library@@QEAAAEAU12@HHHHHHHHEM@Z 0000000180077cd8     cap.obj
 0002:00026ce8       $chain$7$?draw_rectangle@?$CImg@E@cimg_library@@QEAAAEAU12@HHHHHHHHEM@Z 0000000180077ce8     cap.obj
 0002:00026d18       $chain$8$?draw_rectangle@?$CImg@E@cimg_library@@QEAAAEAU12@HHHHHHHHEM@Z 0000000180077d18     cap.obj
 0002:00026d28       $unwind$?get_projections2d@?$CImg@E@cimg_library@@QEBA?AU12@III@Z 0000000180077d28     cap.obj
 0002:00026d40       $chain$2$?get_projections2d@?$CImg@E@cimg_library@@QEBA?AU12@III@Z 0000000180077d40     cap.obj
 0002:00026d5c       $chain$3$?get_projections2d@?$CImg@E@cimg_library@@QEBA?AU12@III@Z 0000000180077d5c     cap.obj
 0002:00026d6c       $unwind$?get_shared_channels@?$CImg@E@cimg_library@@QEAA?AU12@II@Z 0000000180077d6c     cap.obj
 0002:00026d84       $unwind$??$assign@M@?$CImg@E@cimg_library@@QEAAAEAU01@QEBMIIII_N@Z 0000000180077d84     cap.obj
 0002:00026d84       $unwind$?min@?$CImg@E@cimg_library@@QEBAAEBEXZ 0000000180077d84     cap.obj
 0002:00026d94       $unwind$??$_get_permute_axes@E@?$CImg@E@cimg_library@@QEBA?AU01@QEBDAEBE@Z 0000000180077d94     cap.obj
 0002:00026db8       $unwind$??$draw_image@MM@?$CImg@E@cimg_library@@QEAAAEAU01@HHHHAEBU?$CImg@M@1@0MM@Z 0000000180077db8     cap.obj
 0002:00026dd8       $unwind$??$draw_image@M@?$CImg@E@cimg_library@@QEAAAEAU01@HHHHAEBU?$CImg@M@1@M@Z 0000000180077dd8     cap.obj
 0002:00026df0       xdata                      0000000180077df0     node:node.exe
 0002:00026df8       $xdatasym                  0000000180077df8     LIBCMT:_amdsecgs_.obj
 0002:00026dfc       $unwind$__report_securityfailure 0000000180077dfc     LIBCMT:gs_report.obj
 0002:00026e04       $unwind$capture_current_context 0000000180077e04     LIBCMT:gs_report.obj
 0002:00026e10       $unwind$capture_previous_context 0000000180077e10     LIBCMT:gs_report.obj
 0002:00026e1c       $unwind$__scrt_is_nonwritable_in_current_image 0000000180077e1c     LIBCMT:utility.obj
 0002:00026e3c       $unwind$__scrt_is_nonwritable_in_current_image$filt$0 0000000180077e3c     LIBCMT:utility.obj
 0002:00026e44       $unwind$__scrt_initialize_onexit_tables 0000000180077e44     LIBCMT:utility.obj
 0002:00026e50       $unwind$?dllmain_crt_process_attach@@YAHQEAUHINSTANCE__@@QEAX@Z 0000000180077e50     LIBCMT:dll_dllmain.obj
 0002:00026e7c       $unwind$?dllmain_crt_process_detach@@YAH_N@Z 0000000180077e7c     LIBCMT:dll_dllmain.obj
 0002:00026ea4       $unwind$?dllmain_dispatch@@YAHQEAUHINSTANCE__@@KQEAX@Z 0000000180077ea4     LIBCMT:dll_dllmain.obj
 0002:00026ecc       $unwind$?fin$0@?0???$common_dupenv_s@D@@YAHQEAPEADQEA_KQEBDH2H@Z@4HA 0000000180077ecc     libucrt:getenv.obj
 0002:00026ecc       $unwind$?filt$0@?0??dllmain_dispatch@@YAHQEAUHINSTANCE__@@KQEAX@Z@4HA 0000000180077ecc     LIBCMT:dll_dllmain.obj
 0002:00026ed4       $unwind$__scrt_fastfail    0000000180077ed4     LIBCMT:utility_desktop.obj
 0002:00026ee4       $unwind$__isa_available_init 0000000180077ee4     LIBCMT:_cpu_disp_.obj
 0002:00026ef4       $unwind$__security_init_cookie 0000000180077ef4     LIBCMT:gs_support.obj
 0002:00026f00       $xdatasym                  0000000180077f00     LIBCMT:_guard_dispatch_.obj
 0002:00026f08       $xdatasym                  0000000180077f08     libvcruntime:memcpy.obj
 0002:00026f0c       $unwind$strstr             0000000180077f0c     libvcruntime:strstr.obj
 0002:00026f1c       $unwind$strrchr            0000000180077f1c     libvcruntime:strrchr.obj
 0002:00026f1c       $unwind$strchr             0000000180077f1c     libvcruntime:strchr.obj
 0002:00026f24       $unwind$_CxxThrowException 0000000180077f24     libvcruntime:throw.obj
 0002:00026f38       $unwind$__acrt_stdio_end_temporary_buffering_nolock 0000000180077f38     libucrt:_sftbuf.obj
 0002:00026f38       $unwind$__vcrt_uninitialize_winapi_thunks 0000000180077f38     libvcruntime:winapi_downlevel.obj
 0002:00026f40       $unwind$__C_specific_handler 0000000180077f40     libvcruntime:_chandler_.obj
 0002:00026f40       $unwind$__InternalCxxFrameHandler 0000000180077f40     libvcruntime:frame.obj
 0002:00026f60       $xdatasym                  0000000180077f60     libvcruntime:memset.obj
 0002:00026f68       $xdatasym                  0000000180077f68     libvcruntime:_jmpuwind_.obj
 0002:00026f7c       $unwind$fputc              0000000180077f7c     libucrt:fputc.obj
 0002:00026fb0       $unwind$??$common_fsopen@D@@YAPEAU_iobuf@@QEBD0H@Z 0000000180077fb0     libucrt:fopen.obj
 0002:00026fd8       $unwind$fclose             0000000180077fd8     libucrt:fclose.obj
 0002:00026ffc       $unwind$__stdio_common_vfprintf 0000000180077ffc     libucrt:output.obj
 0002:00027004       $unwind$__stdio_common_vsprintf 0000000180078004     libucrt:output.obj
 0002:00027028       $unwind$?process@?$output_processor@DV?$stream_output_adapter@D@__crt_stdio_output@@V?$standard_base@DV?$stream_output_adapter@D@__crt_stdio_output@@@2@@__crt_stdio_output@@QEAAHXZ 0000000180078028     libucrt:output.obj
 0002:00027028       $unwind$?process@?$output_processor@DV?$string_output_adapter@D@__crt_stdio_output@@V?$standard_base@DV?$string_output_adapter@D@__crt_stdio_output@@@2@@__crt_stdio_output@@QEAAHXZ 0000000180078028     libucrt:output.obj
 0002:00027038       $unwind$?write_stored_string_tchar@?$output_processor@DV?$string_output_adapter@D@__crt_stdio_output@@V?$standard_base@DV?$string_output_adapter@D@__crt_stdio_output@@@2@@__crt_stdio_output@@AEAA_ND@Z 0000000180078038     libucrt:output.obj
 0002:00027038       $unwind$?write_stored_string_tchar@?$output_processor@DV?$stream_output_adapter@D@__crt_stdio_output@@V?$standard_base@DV?$stream_output_adapter@D@__crt_stdio_output@@@2@@__crt_stdio_output@@AEAA_ND@Z 0000000180078038     libucrt:output.obj
 0002:00027050       $unwind$??R<lambda_0a64b6a4deda75c01876f29c44fc5eb3>@@QEBAHXZ 0000000180078050     libucrt:output.obj
 0002:0002706c       $unwind$?parse_int_from_format_string@?$output_processor@DV?$stream_output_adapter@D@__crt_stdio_output@@V?$standard_base@DV?$stream_output_adapter@D@__crt_stdio_output@@@2@@__crt_stdio_output@@AEAA_NQEAH@Z 000000018007806c     libucrt:output.obj
 0002:0002706c       $unwind$?parse_int_from_format_string@?$output_processor@DV?$string_output_adapter@D@__crt_stdio_output@@V?$standard_base@DV?$string_output_adapter@D@__crt_stdio_output@@@2@@__crt_stdio_output@@AEAA_NQEAH@Z 000000018007806c     libucrt:output.obj
 0002:00027080       $unwind$?type_case_a@?$output_processor@DV?$stream_output_adapter@D@__crt_stdio_output@@V?$standard_base@DV?$stream_output_adapter@D@__crt_stdio_output@@@2@@__crt_stdio_output@@AEAA_NXZ 0000000180078080     libucrt:output.obj
 0002:00027080       $unwind$?type_case_a@?$output_processor@DV?$string_output_adapter@D@__crt_stdio_output@@V?$standard_base@DV?$string_output_adapter@D@__crt_stdio_output@@@2@@__crt_stdio_output@@AEAA_NXZ 0000000180078080     libucrt:output.obj
 0002:0002708c       $unwind$??$write_multiple_characters@V?$stream_output_adapter@D@__crt_stdio_output@@D@__crt_stdio_output@@YAXAEBV?$stream_output_adapter@D@0@DHQEAH@Z 000000018007808c     libucrt:output.obj
 0002:000270a4       $unwind$??$type_case_integer_parse_into_buffer@_K@?$output_processor@DV?$string_output_adapter@D@__crt_stdio_output@@V?$standard_base@DV?$string_output_adapter@D@__crt_stdio_output@@@2@@__crt_stdio_output@@AEAAX_KI_N@Z 00000001800780a4     libucrt:output.obj
 0002:000270a4       $unwind$??$parse_floating_point_possible_nan_is_ind@DV?$input_adapter_character_source@V?$string_input_adapter@D@__crt_stdio_input@@@__crt_strtox@@@__crt_strtox@@YA_NAEADAEAV?$input_adapter_character_source@V?$string_input_adapter@D@__crt_stdio_input@@@0@@Z 00000001800780a4     libucrt:input.obj
 0002:000270a4       $unwind$??$type_case_integer_parse_into_buffer@I@?$output_processor@DV?$string_output_adapter@D@__crt_stdio_output@@V?$standard_base@DV?$string_output_adapter@D@__crt_stdio_output@@@2@@__crt_stdio_output@@AEAAXII_N@Z 00000001800780a4     libucrt:output.obj
 0002:000270a4       $unwind$??$write_multiple_characters@V?$string_output_adapter@D@__crt_stdio_output@@D@__crt_stdio_output@@YAXAEBV?$string_output_adapter@D@0@DHQEAH@Z 00000001800780a4     libucrt:output.obj
 0002:000270a4       $unwind$??$parse_floating_point_possible_nan_is_snan@DV?$input_adapter_character_source@V?$string_input_adapter@D@__crt_stdio_input@@@__crt_strtox@@@__crt_strtox@@YA_NAEADAEAV?$input_adapter_character_source@V?$string_input_adapter@D@__crt_stdio_input@@@0@@Z 00000001800780a4     libucrt:input.obj
 0002:000270a4       $unwind$??$type_case_integer_parse_into_buffer@I@?$output_processor@DV?$stream_output_adapter@D@__crt_stdio_output@@V?$standard_base@DV?$stream_output_adapter@D@__crt_stdio_output@@@2@@__crt_stdio_output@@AEAAXII_N@Z 00000001800780a4     libucrt:output.obj
 0002:000270a4       $unwind$??$type_case_integer_parse_into_buffer@_K@?$output_processor@DV?$stream_output_adapter@D@__crt_stdio_output@@V?$standard_base@DV?$stream_output_adapter@D@__crt_stdio_output@@@2@@__crt_stdio_output@@AEAAX_KI_N@Z 00000001800780a4     libucrt:output.obj
 0002:000270ac       $unwind$??$?RV<lambda_aa279a7bcb127014629d5b1d62c7325d>@@AEAV<lambda_0a64b6a4deda75c01876f29c44fc5eb3>@@V<lambda_3323e69fbefe9d1a11713e670d47cdfa>@@@?$__crt_seh_guarded_call@H@@QEAAH$$QEAV<lambda_aa279a7bcb127014629d5b1d62c7325d>@@AEAV<lambda_0a64b6a4deda75c01876f29c44fc5eb3>@@$$QEAV<lambda_3323e69fbefe9d1a11713e670d47cdfa>@@@Z 00000001800780ac     libucrt:output.obj
 0002:000270d0       $unwind$system             00000001800780d0     libucrt:system.obj
 0002:000270e8       $unwind$_setmode           00000001800780e8     libucrt:setmode.obj
 0002:00027114       $unwind$_setmode_nolock    0000000180078114     libucrt:setmode.obj
 0002:00027128       $xdatasym                  0000000180078128     libucrt:strncpy.obj
 0002:0002712c       $unwind$fwrite             000000018007812c     libucrt:fwrite.obj
 0002:00027134       $unwind$?try_get_function@@YAPEAXW4function_id@?A0x63058377@@QEBDQEBW4module_id@2@2@Z 0000000180078134     libucrt:winapi_thunks.obj
 0002:00027134       $unwind$?try_get_function@@YAPEAXW4function_id@?A0x679b24ab@@QEBDQEBW4module_id@2@2@Z 0000000180078134     libvcruntime:winapi_downlevel.obj
 0002:00027134       $unwind$?IsInExceptionSpec@@YAEPEAUEHExceptionRecord@@PEBU_s_ESTypeList@@@Z 0000000180078134     libvcruntime:frame.obj
 0002:00027134       $unwind$_fwrite_nolock     0000000180078134     libucrt:fwrite.obj
 0002:00027150       $unwind$??$?RV<lambda_5d4c3fee44080f75d5d9762853974fe0>@@AEAV<lambda_532e024f4337e6fc7ad266c2bef9f4ed>@@V<lambda_c87bdc10097eb2402edb8ba9bdf0697b>@@@?$__crt_seh_guarded_call@_K@@QEAA_K$$QEAV<lambda_5d4c3fee44080f75d5d9762853974fe0>@@AEAV<lambda_532e024f4337e6fc7ad266c2bef9f4ed>@@$$QEAV<lambda_c87bdc10097eb2402edb8ba9bdf0697b>@@@Z 0000000180078150     libucrt:fwrite.obj
 0002:00027174       $unwind$__stdio_common_vsscanf 0000000180078174     libucrt:input.obj
 0002:00027198       $unwind$?divide@__crt_strtox@@YA_KAEAUbig_integer@1@AEBU21@@Z 0000000180078198     libucrt:input.obj
 0002:000271b8       $chain$5$?divide@__crt_strtox@@YA_KAEAUbig_integer@1@AEBU21@@Z 00000001800781b8     libucrt:input.obj
 0002:000271cc       $chain$6$?divide@__crt_strtox@@YA_KAEAUbig_integer@1@AEBU21@@Z 00000001800781cc     libucrt:input.obj
 0002:000271dc       $unwind$_log10_special     00000001800781dc     libucrt:log_special.obj
 0002:000271dc       $unwind$_dupenv_s          00000001800781dc     libucrt:getenv.obj
 0002:000271dc       $unwind$?as_double@floating_point_value@__crt_strtox@@QEBAAEANXZ 00000001800781dc     libucrt:input.obj
 0002:000271dc       $unwind$??$parse_floating_point_write_result@M@__crt_strtox@@YA?AW4SLD_STATUS@@W4floating_point_parse_result@0@AEBUfloating_point_string@0@QEAM@Z 00000001800781dc     libucrt:input.obj
 0002:000271dc       $unwind$_invalid_parameter_noinfo 00000001800781dc     libucrt:invalid_parameter.obj
 0002:000271dc       $unwind$_invalid_parameter_noinfo_noreturn 00000001800781dc     libucrt:invalid_parameter.obj
 0002:000271dc       $unwind$??$parse_floating_point_write_result@N@__crt_strtox@@YA?AW4SLD_STATUS@@W4floating_point_parse_result@0@AEBUfloating_point_string@0@QEAN@Z 00000001800781dc     libucrt:input.obj
 0002:000271dc       $unwind$_log_special       00000001800781dc     libucrt:log_special.obj
 0002:000271dc       $unwind$?as_float@floating_point_value@__crt_strtox@@QEBAAEAMXZ 00000001800781dc     libucrt:input.obj
 0002:000271dc       $unwind$wctomb_s           00000001800781dc     libucrt:wctomb.obj
 0002:000271dc       $unwind$_sopen_s           00000001800781dc     libucrt:open.obj
 0002:000271e4       $unwind$??$common_set_variable_in_environment_nolock@D@@YAHQEADH@Z 00000001800781e4     libucrt:setenv.obj
 0002:000271e4       $unwind$?assemble_floating_point_value@__crt_strtox@@YA?AW4SLD_STATUS@@_KH_N1AEBVfloating_point_value@1@@Z 00000001800781e4     libucrt:input.obj
 0002:000271fc       $unwind$?convert_decimal_string_to_floating_type_common@__crt_strtox@@YA?AW4SLD_STATUS@@AEBUfloating_point_string@1@AEBVfloating_point_value@1@@Z 00000001800781fc     libucrt:input.obj
 0002:00027220       $unwind$?write_character@?$input_processor@DV?$string_input_adapter@D@__crt_stdio_input@@@__crt_stdio_input@@AEAA_NQEFA_W_KAEAPEFA_WAEA_KD@Z 0000000180078220     libucrt:input.obj
 0002:00027230       $unwind$?process_integer_specifier@?$input_processor@DV?$string_input_adapter@D@__crt_stdio_input@@@__crt_stdio_input@@AEAA_NI_N@Z 0000000180078230     libucrt:input.obj
 0002:00027244       $unwind$??$process_string_specifier_tchar@_W@?$input_processor@DV?$string_input_adapter@D@__crt_stdio_input@@@__crt_stdio_input@@AEAA_NW4conversion_mode@1@_W@Z 0000000180078244     libucrt:input.obj
 0002:0002725c       $unwind$??$process_floating_point_specifier_t@M@?$input_processor@DV?$string_input_adapter@D@__crt_stdio_input@@@__crt_stdio_input@@AEAA_NXZ 000000018007825c     libucrt:input.obj
 0002:0002725c       $unwind$??$process_floating_point_specifier_t@N@?$input_processor@DV?$string_input_adapter@D@__crt_stdio_input@@@__crt_stdio_input@@AEAA_NXZ 000000018007825c     libucrt:input.obj
 0002:00027268       $unwind$??$parse_floating_point@V?$input_adapter_character_source@V?$string_input_adapter@D@__crt_stdio_input@@@__crt_strtox@@M@__crt_strtox@@YA?AW4SLD_STATUS@@QEAU__crt_locale_pointers@@V?$input_adapter_character_source@V?$string_input_adapter@D@__crt_stdio_input@@@0@QEAM@Z 0000000180078268     libucrt:input.obj
 0002:00027268       $unwind$??$parse_floating_point@V?$input_adapter_character_source@V?$string_input_adapter@D@__crt_stdio_input@@@__crt_strtox@@N@__crt_strtox@@YA?AW4SLD_STATUS@@QEAU__crt_locale_pointers@@V?$input_adapter_character_source@V?$string_input_adapter@D@__crt_stdio_input@@@0@QEAN@Z 0000000180078268     libucrt:input.obj
 0002:00027280       $unwind$??$parse_floating_point_from_source@V?$input_adapter_character_source@V?$string_input_adapter@D@__crt_stdio_input@@@__crt_strtox@@@__crt_strtox@@YA?AW4floating_point_parse_result@0@QEAU__crt_locale_pointers@@AEAV?$input_adapter_character_source@V?$string_input_adapter@D@__crt_stdio_input@@@0@AEAUfloating_point_string@0@@Z 0000000180078280     libucrt:input.obj
 0002:00027298       $unwind$??$parse_floating_point_possible_infinity@DV?$input_adapter_character_source@V?$string_input_adapter@D@__crt_stdio_input@@@__crt_strtox@@_K@__crt_strtox@@YA?AW4floating_point_parse_result@0@AEADAEAV?$input_adapter_character_source@V?$string_input_adapter@D@__crt_stdio_input@@@0@_K@Z 0000000180078298     libucrt:input.obj
 0002:000272a0       $unwind$??$parse_floating_point_possible_nan@DV?$input_adapter_character_source@V?$string_input_adapter@D@__crt_stdio_input@@@__crt_strtox@@_K@__crt_strtox@@YA?AW4floating_point_parse_result@0@AEADAEAV?$input_adapter_character_source@V?$string_input_adapter@D@__crt_stdio_input@@@0@_K@Z 00000001800782a0     libucrt:input.obj
 0002:000272ac       $unwind$__acrt_call_reportfault 00000001800782ac     libucrt:invalid_parameter.obj
 0002:000272cc       $unwind$_invalid_parameter 00000001800782cc     libucrt:invalid_parameter.obj
 0002:000272e4       $unwind$??$common_getenv@D@@YAPEADQEBD@Z 00000001800782e4     libucrt:getenv.obj
 0002:00027304       $unwind$??$common_dupenv_s@D@@YAHQEAPEADQEA_KQEBDH2H@Z 0000000180078304     libucrt:getenv.obj
 0002:00027344       $unwind$_query_new_handler 0000000180078344     libucrt:new_handler.obj
 0002:00027364       $unwind$?common_exit@@YAXHW4_crt_exit_cleanup_mode@@W4_crt_exit_return_mode@@@Z 0000000180078364     libucrt:exit.obj
 0002:000273a4       $unwind$_configure_narrow_argv 00000001800783a4     libucrt:argv_parsing.obj
 0002:000273b8       $unwind$?write_string@?$string_output_adapter@D@__crt_stdio_output@@QEBAXQEBDHQEAH1@Z 00000001800783b8     libucrt:output.obj
 0002:000273b8       $unwind$??$parse_command_line@D@@YAXPEADPEAPEAD0PEA_K2@Z 00000001800783b8     libucrt:argv_parsing.obj
 0002:000273b8       $unwind$?_GetRangeOfTrysToCheck@@YAPEBU_s_TryBlockMapEntry@@PEA_KPEBU_s_FuncInfo@@HHPEAI2PEAU_xDISPATCHER_CONTEXT@@@Z 00000001800783b8     libvcruntime:trnsctrl.obj
 0002:000273b8       $unwind$??R<lambda_4e60a939b0d047cfe11ddc22648dfba9>@@QEBAHXZ 00000001800783b8     libucrt:onexit.obj
 0002:000273d4       $unwind$??$free_environment@_W@@YAXQEAPEA_W@Z 00000001800783d4     libucrt:environment_initialization.obj
 0002:000273d4       $unwind$??$free_environment@D@@YAXQEAPEAD@Z 00000001800783d4     libucrt:environment_initialization.obj
 0002:000273e0       $unwind$__acrt_copy_path_to_wide_string 00000001800783e0     libucrt:string_utilities.obj
 0002:000273e0       $unwind$??$create_environment@D@@YAQEAPEADQEAD@Z 00000001800783e0     libucrt:environment_initialization.obj
 0002:000273f8       $unwind$??$initialize_environment_by_cloning_nolock@D@@YAHXZ 00000001800783f8     libucrt:environment_initialization.obj
 0002:00027408       $unwind$_register_onexit_function 0000000180078408     libucrt:onexit.obj
 0002:00027410       $unwind$_execute_onexit_table 0000000180078410     libucrt:onexit.obj
 0002:00027418       $unwind$??$?RV<lambda_b8c45f8f788dd370798f47cfe8ac3a86>@@AEAV<lambda_4e60a939b0d047cfe11ddc22648dfba9>@@V<lambda_332c3edc96d0294ec56c57d38c1cdfd5>@@@?$__crt_seh_guarded_call@H@@QEAAH$$QEAV<lambda_b8c45f8f788dd370798f47cfe8ac3a86>@@AEAV<lambda_4e60a939b0d047cfe11ddc22648dfba9>@@$$QEAV<lambda_332c3edc96d0294ec56c57d38c1cdfd5>@@@Z 0000000180078418     libucrt:onexit.obj
 0002:0002743c       $unwind$??$?RV<lambda_e24bbb7b643b32fcea6fa61b31d4c984>@@AEAV<lambda_275893d493268fdec8709772e3fcec0e>@@V<lambda_9d71df4d7cf3f480f8d633942495c3b0>@@@?$__crt_seh_guarded_call@H@@QEAAH$$QEAV<lambda_e24bbb7b643b32fcea6fa61b31d4c984>@@AEAV<lambda_275893d493268fdec8709772e3fcec0e>@@$$QEAV<lambda_9d71df4d7cf3f480f8d633942495c3b0>@@@Z 000000018007843c     libucrt:onexit.obj
 0002:0002746c       $unwind$_initterm          000000018007846c     libucrt:initterm.obj
 0002:0002746c       $unwind$__acrt_lowio_set_os_handle 000000018007846c     libucrt:osfinfo.obj
 0002:0002746c       $unwind$__GSHandlerCheck_EH 000000018007846c     LIBCMT:gshandlereh.obj
 0002:0002746c       $unwind$__TypeMatch        000000018007846c     libvcruntime:frame.obj
 0002:0002746c       $unwind$??$process_string_specifier_tchar@D@?$input_processor@DV?$string_input_adapter@D@__crt_stdio_input@@@__crt_stdio_input@@AEAA_NW4conversion_mode@1@D@Z 000000018007846c     libucrt:input.obj
 0002:0002746c       $unwind$__acrt_initialize_stdio 000000018007846c     libucrt:_file.obj
 0002:00027484       $unwind$terminate          0000000180078484     libucrt:terminate.obj
 0002:000274a4       $unwind$??$parse_integer@KV?$c_string_character_source@D@__crt_strtox@@@__crt_strtox@@YAKQEAU__crt_locale_pointers@@V?$c_string_character_source@D@0@H_N@Z 00000001800784a4     libucrt:atox.obj
 0002:000274a4       $unwind$??$parse_integer@_KV?$c_string_character_source@D@__crt_strtox@@@__crt_strtox@@YA_KQEAU__crt_locale_pointers@@V?$c_string_character_source@D@0@H_N@Z 00000001800784a4     libucrt:atox.obj
 0002:000274a4       $unwind$??$parse_integer@_KV?$input_adapter_character_source@V?$string_input_adapter@D@__crt_stdio_input@@@__crt_strtox@@@__crt_strtox@@YA_KQEAU__crt_locale_pointers@@V?$input_adapter_character_source@V?$string_input_adapter@D@__crt_stdio_input@@@0@H_N@Z 00000001800784a4     libucrt:input.obj
 0002:000274c0       $unwind$??$write_buffer_nolock@D@@YA_NDV__crt_stdio_stream@@@Z 00000001800784c0     libucrt:_flsbuf.obj
 0002:000274d0       $unwind$__acrt_initialize_lowio 00000001800784d0     libucrt:ioinit.obj
 0002:000274f0       $unwind$?initialize_inherited_file_handles_nolock@@YAXXZ 00000001800784f0     libucrt:ioinit.obj
 0002:0002750c       $unwind$?construct_ptd_array@@YAXQEAU__acrt_ptd@@@Z 000000018007850c     libucrt:per_thread_data.obj
 0002:00027514       $unwind$?destroy_ptd_array@@YAXQEAU__acrt_ptd@@@Z 0000000180078514     libucrt:per_thread_data.obj
 0002:0002751c       $unwind$??$?RV<lambda_72d1df2b273a38828b1ce30cbf4cdab5>@@AEAV<lambda_876a65b173b8412d3a47c70a915b0cf4>@@V<lambda_41932305e351933ebe8f8be3ed8bb5dc>@@@?$__crt_seh_guarded_call@X@@QEAAX$$QEAV<lambda_72d1df2b273a38828b1ce30cbf4cdab5>@@AEAV<lambda_876a65b173b8412d3a47c70a915b0cf4>@@$$QEAV<lambda_41932305e351933ebe8f8be3ed8bb5dc>@@@Z 000000018007851c     libucrt:per_thread_data.obj
 0002:00027540       $unwind$??$?RV<lambda_5e887d1dcbef67a5eb4283622ba103bf>@@AEAV<lambda_4466841279450cc726390878d4a41900>@@V<lambda_341c25c0346d94847f1f3c463c57e077>@@@?$__crt_seh_guarded_call@X@@QEAAX$$QEAV<lambda_5e887d1dcbef67a5eb4283622ba103bf>@@AEAV<lambda_4466841279450cc726390878d4a41900>@@$$QEAV<lambda_341c25c0346d94847f1f3c463c57e077>@@@Z 0000000180078540     libucrt:per_thread_data.obj
 0002:00027564       $unwind$??$?RV<lambda_46352004c1216016012b18bd6f87e700>@@AEAV<lambda_3bd07e1a1191394380780325891bf33f>@@V<lambda_334532d3f185bcaa59b5be82d7d22bff>@@@?$__crt_seh_guarded_call@X@@QEAAX$$QEAV<lambda_46352004c1216016012b18bd6f87e700>@@AEAV<lambda_3bd07e1a1191394380780325891bf33f>@@$$QEAV<lambda_334532d3f185bcaa59b5be82d7d22bff>@@@Z 0000000180078564     libucrt:per_thread_data.obj
 0002:00027588       $unwind$??$?RV<lambda_fb3a7dec4e47f37f22dae91bb15c9095>@@AEAV<lambda_698284760c8add0bfb0756c19673e34b>@@V<lambda_dfb8eca1e75fef3034a8fb18dd509707>@@@?$__crt_seh_guarded_call@X@@QEAAX$$QEAV<lambda_fb3a7dec4e47f37f22dae91bb15c9095>@@AEAV<lambda_698284760c8add0bfb0756c19673e34b>@@$$QEAV<lambda_dfb8eca1e75fef3034a8fb18dd509707>@@@Z 0000000180078588     libucrt:per_thread_data.obj
 0002:000275ac       $unwind$?__acrt_stdio_allocate_stream@@YA?AV__crt_stdio_stream@@XZ 00000001800785ac     libucrt:stream.obj
 0002:000275cc       $unwind$_openfile          00000001800785cc     libucrt:openfile.obj
 0002:000275e0       $unwind$__acrt_initialize_winapi_thunks 00000001800785e0     libucrt:winapi_thunks.obj
 0002:000275e8       $unwind$__acrt_CompareStringEx 00000001800785e8     libucrt:winapi_thunks.obj
 0002:000275e8       $unwind$_mbtowc_l          00000001800785e8     libucrt:mbtowc.obj
 0002:000275e8       $unwind$__acrt_LCMapStringEx 00000001800785e8     libucrt:winapi_thunks.obj
 0002:00027600       $unwind$_fcloseall         0000000180078600     libucrt:closeall.obj
 0002:00027624       $unwind$_fcloseall$fin$0   0000000180078624     libucrt:closeall.obj
 0002:00027624       $unwind$?fin$0@?0???$?RV<lambda_fb01e4b6cb0b58be62120d2a518119ce>@@AEAV<lambda_45edfab556fcff821d8a41c06e3d46c0>@@V<lambda_8a9bf702b7f902ca2f9107a173e0fbe3>@@@?$__crt_seh_guarded_call@_N@@QEAA_N$$QEAV<lambda_fb01e4b6cb0b58be62120d2a518119ce>@@AEAV<lambda_45edfab556fcff821d8a41c06e3d46c0>@@$$QEAV<lambda_8a9bf702b7f902ca2f9107a173e0fbe3>@@@Z@4HA 0000000180078624     libucrt:spawnv.obj
 0002:00027624       $unwind$?fin$0@?0???$?RV<lambda_b8c45f8f788dd370798f47cfe8ac3a86>@@AEAV<lambda_4e60a939b0d047cfe11ddc22648dfba9>@@V<lambda_332c3edc96d0294ec56c57d38c1cdfd5>@@@?$__crt_seh_guarded_call@H@@QEAAH$$QEAV<lambda_b8c45f8f788dd370798f47cfe8ac3a86>@@AEAV<lambda_4e60a939b0d047cfe11ddc22648dfba9>@@$$QEAV<lambda_332c3edc96d0294ec56c57d38c1cdfd5>@@@Z@4HA 0000000180078624     libucrt:onexit.obj
 0002:00027624       $unwind$fclose$fin$0       0000000180078624     libucrt:fclose.obj
 0002:00027624       $unwind$?fin$0@?0???$?RV<lambda_46352004c1216016012b18bd6f87e700>@@AEAV<lambda_3bd07e1a1191394380780325891bf33f>@@V<lambda_334532d3f185bcaa59b5be82d7d22bff>@@@?$__crt_seh_guarded_call@X@@QEAAX$$QEAV<lambda_46352004c1216016012b18bd6f87e700>@@AEAV<lambda_3bd07e1a1191394380780325891bf33f>@@$$QEAV<lambda_334532d3f185bcaa59b5be82d7d22bff>@@@Z@4HA 0000000180078624     libucrt:per_thread_data.obj
 0002:00027624       $unwind$common_flush_all$fin$1 0000000180078624     libucrt:fflush.obj
 0002:00027624       $unwind$common_flush_all$fin$0 0000000180078624     libucrt:fflush.obj
 0002:00027624       $unwind$?fin$0@?0???$common_lseek@_J@@YA_JH_JH@Z@4HA 0000000180078624     libucrt:lseek.obj
 0002:00027624       $unwind$?fin$0@?0??dllmain_crt_process_detach@@YAH_N@Z@4HA 0000000180078624     LIBCMT:dll_dllmain.obj
 0002:00027624       $unwind$?fin$0@?0??dllmain_crt_process_attach@@YAHQEAUHINSTANCE__@@QEAX@Z@4HA 0000000180078624     LIBCMT:dll_dllmain.obj
 0002:00027624       $unwind$?fin$0@?0???$common_fsopen@D@@YAPEAU_iobuf@@QEBD0H@Z@4HA 0000000180078624     libucrt:fopen.obj
 0002:00027624       $unwind$?fin$0@?0???$?RV<lambda_e24bbb7b643b32fcea6fa61b31d4c984>@@AEAV<lambda_275893d493268fdec8709772e3fcec0e>@@V<lambda_9d71df4d7cf3f480f8d633942495c3b0>@@@?$__crt_seh_guarded_call@H@@QEAAH$$QEAV<lambda_e24bbb7b643b32fcea6fa61b31d4c984>@@AEAV<lambda_275893d493268fdec8709772e3fcec0e>@@$$QEAV<lambda_9d71df4d7cf3f480f8d633942495c3b0>@@@Z@4HA 0000000180078624     libucrt:onexit.obj
 0002:00027624       $unwind$?fin$0@?0???$?RV<lambda_b521505b218e5242e90febf6bfebc422>@@AEAV<lambda_6978c1fb23f02e42e1d9e99668cc68aa>@@V<lambda_314360699dd331753a4119843814e9a7>@@@?$__crt_seh_guarded_call@H@@QEAAH$$QEAV<lambda_b521505b218e5242e90febf6bfebc422>@@AEAV<lambda_6978c1fb23f02e42e1d9e99668cc68aa>@@$$QEAV<lambda_314360699dd331753a4119843814e9a7>@@@Z@4HA 0000000180078624     libucrt:commit.obj
 0002:00027624       $unwind$fputc$fin$0        0000000180078624     libucrt:fputc.obj
 0002:00027624       $unwind$__FrameUnwindToState$fin$1 0000000180078624     libvcruntime:frame.obj
 0002:00027624       $unwind$__DestructExceptionObject$filt$0 0000000180078624     libvcruntime:frame.obj
 0002:00027624       $unwind$_query_new_handler$fin$0 0000000180078624     libucrt:new_handler.obj
 0002:00027624       $unwind$__acrt_lowio_ensure_fh_exists$fin$0 0000000180078624     libucrt:osfinfo.obj
 0002:00027624       $unwind$_IsNonwritableInCurrentImage$filt$0 0000000180078624     LIBCMT:pesect.obj
 0002:00027624       $unwind$?fin$0@?0???$?RV<lambda_5d4c3fee44080f75d5d9762853974fe0>@@AEAV<lambda_532e024f4337e6fc7ad266c2bef9f4ed>@@V<lambda_c87bdc10097eb2402edb8ba9bdf0697b>@@@?$__crt_seh_guarded_call@_K@@QEAA_K$$QEAV<lambda_5d4c3fee44080f75d5d9762853974fe0>@@AEAV<lambda_532e024f4337e6fc7ad266c2bef9f4ed>@@$$QEAV<lambda_c87bdc10097eb2402edb8ba9bdf0697b>@@@Z@4HA 0000000180078624     libucrt:fwrite.obj
 0002:00027624       $unwind$?fin$0@?0???$?RV<lambda_5e887d1dcbef67a5eb4283622ba103bf>@@AEAV<lambda_4466841279450cc726390878d4a41900>@@V<lambda_341c25c0346d94847f1f3c463c57e077>@@@?$__crt_seh_guarded_call@X@@QEAAX$$QEAV<lambda_5e887d1dcbef67a5eb4283622ba103bf>@@AEAV<lambda_4466841279450cc726390878d4a41900>@@$$QEAV<lambda_341c25c0346d94847f1f3c463c57e077>@@@Z@4HA 0000000180078624     libucrt:per_thread_data.obj
 0002:00027624       $unwind$?fin$1@?0??common_exit@@YAXHW4_crt_exit_cleanup_mode@@W4_crt_exit_return_mode@@@Z@4HA 0000000180078624     libucrt:exit.obj
 0002:00027624       $unwind$_alloc_osfhnd$fin$0 0000000180078624     libucrt:osfinfo.obj
 0002:00027624       $unwind$__CxxCallCatchBlock$filt$0 0000000180078624     libvcruntime:frame.obj
 0002:00027624       $unwind$_setmode$fin$0     0000000180078624     libucrt:setmode.obj
 0002:00027624       $unwind$__FrameUnwindToState$filt$0 0000000180078624     libvcruntime:frame.obj
 0002:00027624       $unwind$?fin$0@?0???$?RV<lambda_aa279a7bcb127014629d5b1d62c7325d>@@AEAV<lambda_0a64b6a4deda75c01876f29c44fc5eb3>@@V<lambda_3323e69fbefe9d1a11713e670d47cdfa>@@@?$__crt_seh_guarded_call@H@@QEAAH$$QEAV<lambda_aa279a7bcb127014629d5b1d62c7325d>@@AEAV<lambda_0a64b6a4deda75c01876f29c44fc5eb3>@@$$QEAV<lambda_3323e69fbefe9d1a11713e670d47cdfa>@@@Z@4HA 0000000180078624     libucrt:output.obj
 0002:00027624       $unwind$?filt$0@?0??common_exit@@YAXHW4_crt_exit_cleanup_mode@@W4_crt_exit_return_mode@@@Z@4HA 0000000180078624     libucrt:exit.obj
 0002:00027624       $unwind$_ctrlfp$filt$0     0000000180078624     libucrt:fpctrl.obj
 0002:00027624       $unwind$common_control87$filt$0 0000000180078624     libucrt:ieee.obj
 0002:00027624       $unwind$?fin$0@?0???$common_getenv@D@@YAPEADQEBD@Z@4HA 0000000180078624     libucrt:getenv.obj
 0002:00027624       $unwind$?fin$0@?0??__acrt_stdio_allocate_stream@@YA?AV__crt_stdio_stream@@XZ@4HA 0000000180078624     libucrt:stream.obj
 0002:00027624       $unwind$__acrt_initialize_lowio$fin$0 0000000180078624     libucrt:ioinit.obj
 0002:00027624       $unwind$_write$fin$0       0000000180078624     libucrt:write.obj
 0002:00027624       $unwind$?fin$0@?0???$?RV<lambda_72d1df2b273a38828b1ce30cbf4cdab5>@@AEAV<lambda_876a65b173b8412d3a47c70a915b0cf4>@@V<lambda_41932305e351933ebe8f8be3ed8bb5dc>@@@?$__crt_seh_guarded_call@X@@QEAAX$$QEAV<lambda_72d1df2b273a38828b1ce30cbf4cdab5>@@AEAV<lambda_876a65b173b8412d3a47c70a915b0cf4>@@$$QEAV<lambda_41932305e351933ebe8f8be3ed8bb5dc>@@@Z@4HA 0000000180078624     libucrt:per_thread_data.obj
 0002:00027624       $unwind$__acrt_update_thread_locale_data$fin$0 0000000180078624     libucrt:locale_refcounting.obj
 0002:00027624       $unwind$?fin$0@?0???$?RV<lambda_fb3a7dec4e47f37f22dae91bb15c9095>@@AEAV<lambda_698284760c8add0bfb0756c19673e34b>@@V<lambda_dfb8eca1e75fef3034a8fb18dd509707>@@@?$__crt_seh_guarded_call@X@@QEAAX$$QEAV<lambda_fb3a7dec4e47f37f22dae91bb15c9095>@@AEAV<lambda_698284760c8add0bfb0756c19673e34b>@@$$QEAV<lambda_dfb8eca1e75fef3034a8fb18dd509707>@@@Z@4HA 0000000180078624     libucrt:per_thread_data.obj
 0002:00027624       $unwind$raise$fin$0        0000000180078624     libucrt:signal.obj
 0002:00027624       $unwind$?fin$0@?0???$?RV<lambda_99476a1ad63dd22509b5d3e65b0ffc95>@@AEAV<lambda_ad1ced32f4ac17aa236e5ef05d6b3b7c>@@V<lambda_f7424dd8d45958661754dc4f2697e9c3>@@@?$__crt_seh_guarded_call@X@@QEAAX$$QEAV<lambda_99476a1ad63dd22509b5d3e65b0ffc95>@@AEAV<lambda_ad1ced32f4ac17aa236e5ef05d6b3b7c>@@$$QEAV<lambda_f7424dd8d45958661754dc4f2697e9c3>@@@Z@4HA 0000000180078624     libucrt:mbctype.obj
 0002:00027624       $unwind$__acrt_uninitialize_locale$fin$0 0000000180078624     libucrt:wsetlocale.obj
 0002:00027624       $unwind$__acrt_update_thread_multibyte_data$fin$0 0000000180078624     libucrt:mbctype.obj
 0002:00027624       $unwind$?fin$0@?0???$?RV<lambda_c36588078e9f5dfd39652860aa6b3aaf>@@AEAV<lambda_ec61778202f4f5fc7e7711acc23c3bca>@@V<lambda_dc9d2797ccde5d239b4a0efae8ebd7db>@@@?$__crt_seh_guarded_call@P6AXH@Z@@QEAAP6AXH@Z$$QEAV<lambda_c36588078e9f5dfd39652860aa6b3aaf>@@AEAV<lambda_ec61778202f4f5fc7e7711acc23c3bca>@@$$QEAV<lambda_dc9d2797ccde5d239b4a0efae8ebd7db>@@@Z@4HA 0000000180078624     libucrt:signal.obj
 0002:00027624       $unwind$?fin$0@?0???$?RV<lambda_bfedae4ebbf01fab1bb6dcc6a9e276e0>@@AEAV<lambda_2fe9b910cf3cbf4a0ab98a02ba45b3ec>@@V<lambda_237c231691f317818eb88cc1d5d642d6>@@@?$__crt_seh_guarded_call@H@@QEAAH$$QEAV<lambda_bfedae4ebbf01fab1bb6dcc6a9e276e0>@@AEAV<lambda_2fe9b910cf3cbf4a0ab98a02ba45b3ec>@@$$QEAV<lambda_237c231691f317818eb88cc1d5d642d6>@@@Z@4HA 0000000180078624     libucrt:close.obj
 0002:0002762c       $unwind$common_flush_all   000000018007862c     libucrt:fflush.obj
 0002:00027668       $unwind$??$?RV<lambda_bfedae4ebbf01fab1bb6dcc6a9e276e0>@@AEAV<lambda_2fe9b910cf3cbf4a0ab98a02ba45b3ec>@@V<lambda_237c231691f317818eb88cc1d5d642d6>@@@?$__crt_seh_guarded_call@H@@QEAAH$$QEAV<lambda_bfedae4ebbf01fab1bb6dcc6a9e276e0>@@AEAV<lambda_2fe9b910cf3cbf4a0ab98a02ba45b3ec>@@$$QEAV<lambda_237c231691f317818eb88cc1d5d642d6>@@@Z 0000000180078668     libucrt:close.obj
 0002:0002768c       $unwind$_tolower_l         000000018007868c     libucrt:tolower_toupper.obj
 0002:0002769c       $unwind$_wctomb_s_l        000000018007869c     libucrt:wctomb.obj
 0002:000276ac       $unwind$strnlen            00000001800786ac     libucrt:strnlen.obj
 0002:000276ac       $unwind$wcsnlen            00000001800786ac     libucrt:strnlen.obj
 0002:000276b4       $unwind$__acrt_fp_format   00000001800786b4     libucrt:cvt.obj
 0002:000276d0       $unwind$?fp_format_nan_or_infinity@@YAHW4__acrt_fp_class@@_NPEAD_K1@Z 00000001800786d0     libucrt:cvt.obj
 0002:000276e4       $unwind$?fp_format_e_internal@@YAHQEAD_KH_NIQEAU_strflt@@2QEAU__crt_locale_pointers@@@Z 00000001800786e4     libucrt:cvt.obj
 0002:000276fc       $unwind$?fp_format_e@@YAHQEBNQEAD_K12H_NIQEAU__crt_locale_pointers@@@Z 00000001800786fc     libucrt:cvt.obj
 0002:000276fc       $unwind$_sopen_nolock      00000001800786fc     libucrt:open.obj
 0002:00027710       $unwind$?fp_format_a@@YAHQEBNPEAD_KQEAD2H_NIQEAU__crt_locale_pointers@@@Z 0000000180078710     libucrt:cvt.obj
 0002:0002772c       $unwind$?fp_format_g@@YAHQEBNQEAD_K12H_NIQEAU__crt_locale_pointers@@@Z 000000018007872c     libucrt:cvt.obj
 0002:00027740       $unwind$__acrt_uninitialize_locale 0000000180078740     libucrt:wsetlocale.obj
 0002:00027760       $unwind$?accumulate_inheritable_handles@@YA_NQEAPEAEQEA_K_N@Z 0000000180078760     libucrt:spawnv.obj
 0002:00027768       $unwind$??R<lambda_45edfab556fcff821d8a41c06e3d46c0>@@QEBA_NXZ 0000000180078768     libucrt:spawnv.obj
 0002:00027780       $unwind$??$common_spawnv@D@@YA_JHQEBDQEBQEBD1@Z 0000000180078780     libucrt:spawnv.obj
 0002:0002779c       $unwind$??$?RV<lambda_fb01e4b6cb0b58be62120d2a518119ce>@@AEAV<lambda_45edfab556fcff821d8a41c06e3d46c0>@@V<lambda_8a9bf702b7f902ca2f9107a173e0fbe3>@@@?$__crt_seh_guarded_call@_N@@QEAA_N$$QEAV<lambda_fb01e4b6cb0b58be62120d2a518119ce>@@AEAV<lambda_45edfab556fcff821d8a41c06e3d46c0>@@$$QEAV<lambda_8a9bf702b7f902ca2f9107a173e0fbe3>@@@Z 000000018007879c     libucrt:spawnv.obj
 0002:000277c0       $unwind$??$execute_command@D@@YA_JHQEBDQEBQEBD1@Z 00000001800787c0     libucrt:spawnv.obj
 0002:000277dc       $unwind$??$common_spawnvp@D@@YA_JHQEBDQEBQEBD1@Z 00000001800787dc     libucrt:spawnvp.obj
 0002:000277fc       $unwind$_waccess_s         00000001800787fc     libucrt:waccess.obj
 0002:0002780c       $unwind$_alloc_osfhnd      000000018007880c     libucrt:osfinfo.obj
 0002:0002783c       $unwind$__acrt_lowio_destroy_handle_array 000000018007883c     libucrt:osfinfo.obj
 0002:0002784c       $unwind$__acrt_lowio_ensure_fh_exists 000000018007884c     libucrt:osfinfo.obj
 0002:00027878       $unwind$_write             0000000180078878     libucrt:write.obj
 0002:000278a8       $unwind$_write_nolock      00000001800788a8     libucrt:write.obj
 0002:000278c0       $unwind$?write_double_translated_ansi_nolock@@YA?AUwrite_result@?A0x9c548279@@HQEBDI@Z 00000001800788c0     libucrt:write.obj
 0002:000278e0       $unwind$?write_text_utf16le_nolock@@YA?AUwrite_result@?A0x9c548279@@HQEBDI@Z 00000001800788e0     libucrt:write.obj
 0002:000278e0       $unwind$?write_text_ansi_nolock@@YA?AUwrite_result@?A0x9c548279@@HQEBDI@Z 00000001800788e0     libucrt:write.obj
 0002:00027900       $unwind$?write_text_utf8_nolock@@YA?AUwrite_result@?A0x9c548279@@HQEBDI@Z 0000000180078900     libucrt:write.obj
 0002:00027924       $unwind$_isctype_l         0000000180078924     libucrt:isctype.obj
 0002:00027940       $unwind$_strnicoll_l       0000000180078940     libucrt:strnicol.obj
 0002:00027954       $unwind$??$common_expand_argv_wildcards@D@@YAHQEAPEADQEAPEAPEAD@Z 0000000180078954     libucrt:argv_wildcards.obj
 0002:0002796c       $unwind$__acrt_lowio_create_handle_array 000000018007896c     libucrt:osfinfo.obj
 0002:0002796c       $unwind$?find_or_allocate_unused_stream_nolock@@YA?AV__crt_stdio_stream@@XZ 000000018007896c     libucrt:stream.obj
 0002:0002796c       $unwind$__scrt_dllmain_exception_filter 000000018007896c     LIBCMT:utility.obj
 0002:0002796c       $unwind$_recalloc_base     000000018007896c     libucrt:recalloc.obj
 0002:0002796c       $unwind$?setSBCS@@YAXPEAU__crt_multibyte_data@@@Z 000000018007896c     libucrt:mbctype.obj
 0002:0002796c       $unwind$?_ExecutionInCatch@@YAHPEAU_xDISPATCHER_CONTEXT@@PEBU_s_FuncInfo@@@Z 000000018007896c     libvcruntime:trnsctrl.obj
 0002:0002796c       $unwind$__acrt_free_locale 000000018007896c     libucrt:locale_refcounting.obj
 0002:0002796c       $unwind$_seh_filter_exe    000000018007896c     libucrt:exception_filter.obj
 0002:0002796c       $unwind$?expand_if_necessary@?$argument_list@D@?A0xca0879c4@@AEAAHXZ 000000018007896c     libucrt:argv_wildcards.obj
 0002:0002796c       $unwind$??$ensure_buffer_is_big_enough@D@formatting_buffer@__crt_stdio_output@@QEAA_N_K@Z 000000018007896c     libucrt:output.obj
 0002:0002796c       $unwind$__vcrt_InitializeCriticalSectionEx 000000018007896c     libvcruntime:winapi_downlevel.obj
 0002:0002796c       $unwind$??$skip_whitespace@Vstring_input_adapter@__crt_stdio_input@@D@__crt_stdio_input@@YAHAEAV?$string_input_adapter@D@0@QEAU__crt_locale_pointers@@@Z 000000018007896c     libucrt:input.obj
 0002:0002796c       $unwind$?dllmain_raw@@YAHQEAUHINSTANCE__@@KQEAX@Z 000000018007896c     LIBCMT:dll_dllmain.obj
 0002:0002796c       $unwind$__acrt_execute_initializers 000000018007896c     libucrt:shared_initialization.obj
 0002:0002796c       $unwind$__acrt_InitializeCriticalSectionEx 000000018007896c     libucrt:winapi_thunks.obj
 0002:00027980       $unwind$??$copy_and_add_argument_to_buffer@D@@YAHQEBD0_KAEAV?$argument_list@D@?A0xca0879c4@@@Z 0000000180078980     libucrt:argv_wildcards.obj
 0002:0002799c       $unwind$??$expand_argument_wildcards@D@@YAHQEAD0AEAV?$argument_list@D@?A0xca0879c4@@@Z 000000018007899c     libucrt:argv_wildcards.obj
 0002:000279bc       $unwind$__acrt_update_thread_multibyte_data 00000001800789bc     libucrt:mbctype.obj
 0002:000279e0       $unwind$_setmbcp_nolock    00000001800789e0     libucrt:mbctype.obj
 0002:00027a00       $unwind$?setSBUpLow@@YAXPEAU__crt_multibyte_data@@@Z 0000000180078a00     libucrt:mbctype.obj
 0002:00027a1c       $unwind$?setmbcp_internal@@YAHH_N@Z 0000000180078a1c     libucrt:mbctype.obj
 0002:00027a2c       $unwind$??$?RV<lambda_99476a1ad63dd22509b5d3e65b0ffc95>@@AEAV<lambda_ad1ced32f4ac17aa236e5ef05d6b3b7c>@@V<lambda_f7424dd8d45958661754dc4f2697e9c3>@@@?$__crt_seh_guarded_call@X@@QEAAX$$QEAV<lambda_99476a1ad63dd22509b5d3e65b0ffc95>@@AEAV<lambda_ad1ced32f4ac17aa236e5ef05d6b3b7c>@@$$QEAV<lambda_f7424dd8d45958661754dc4f2697e9c3>@@@Z 0000000180078a2c     libucrt:mbctype.obj
 0002:00027a50       $unwind$__dcrt_get_narrow_environment_from_os 0000000180078a50     libucrt:get_environment_from_os.obj
 0002:00027a50       $unwind$?fp_format_f_internal@@YAHQEAD_KHQEAU_strflt@@_NQEAU__crt_locale_pointers@@@Z 0000000180078a50     libucrt:cvt.obj
 0002:00027a68       $unwind$??$copy_environment@D@@YAPEAPEADQEAPEAD@Z 0000000180078a68     libucrt:setenv.obj
 0002:00027a7c       $unwind$__acrt_get_sigabrt_handler 0000000180078a7c     libucrt:signal.obj
 0002:00027a84       $unwind$raise              0000000180078a84     libucrt:signal.obj
 0002:00027ab0       $unwind$??$?RV<lambda_c36588078e9f5dfd39652860aa6b3aaf>@@AEAV<lambda_ec61778202f4f5fc7e7711acc23c3bca>@@V<lambda_dc9d2797ccde5d239b4a0efae8ebd7db>@@@?$__crt_seh_guarded_call@P6AXH@Z@@QEAAP6AXH@Z$$QEAV<lambda_c36588078e9f5dfd39652860aa6b3aaf>@@AEAV<lambda_ec61778202f4f5fc7e7711acc23c3bca>@@$$QEAV<lambda_dc9d2797ccde5d239b4a0efae8ebd7db>@@@Z 0000000180078ab0     libucrt:signal.obj
 0002:00027ad4       $unwind$??$common_lseek@_J@@YA_JH_JH@Z 0000000180078ad4     libucrt:lseek.obj
 0002:00027b04       $unwind$__acrt_update_thread_locale_data 0000000180078b04     libucrt:locale_refcounting.obj
 0002:00027b28       $xdatasym                  0000000180078b28     libucrt:strncmp.obj
 0002:00027b2c       $unwind$_wsopen_nolock     0000000180078b2c     libucrt:open.obj
 0002:00027b48       $unwind$??$common_sopen_dispatch@D@@YAHQEBDHHHQEAHH@Z 0000000180078b48     libucrt:open.obj
 0002:00027b6c       $unwind$?decode_options@@YA?AUfile_options@?A0x656cf9f4@@HHH@Z 0000000180078b6c     libucrt:open.obj
 0002:00027b80       $unwind$?truncate_ctrl_z_if_present@@YAHH@Z 0000000180078b80     libucrt:open.obj
 0002:00027b90       $unwind$?configure_text_mode@@YAHHUfile_options@?A0x656cf9f4@@HAEAW4__crt_lowio_text_mode@@@Z 0000000180078b90     libucrt:open.obj
 0002:00027b90       $unwind$?state_case_type@?$output_processor@DV?$string_output_adapter@D@__crt_stdio_output@@V?$standard_base@DV?$string_output_adapter@D@__crt_stdio_output@@@2@@__crt_stdio_output@@AEAA_NXZ 0000000180078b90     libucrt:output.obj
 0002:00027b90       $unwind$?state_case_type@?$output_processor@DV?$stream_output_adapter@D@__crt_stdio_output@@V?$standard_base@DV?$stream_output_adapter@D@__crt_stdio_output@@@2@@__crt_stdio_output@@AEAA_NXZ 0000000180078b90     libucrt:output.obj
 0002:00027ba8       $unwind$?GetTableIndexFromLocaleName@@YAHPEB_W@Z 0000000180078ba8     libucrt:lcidtoname_downlevel.obj
 0002:00027bc0       $unwind$_commit            0000000180078bc0     libucrt:commit.obj
 0002:00027bc0       $unwind$_close             0000000180078bc0     libucrt:close.obj
 0002:00027bc8       $unwind$??$?RV<lambda_b521505b218e5242e90febf6bfebc422>@@AEAV<lambda_6978c1fb23f02e42e1d9e99668cc68aa>@@V<lambda_314360699dd331753a4119843814e9a7>@@@?$__crt_seh_guarded_call@H@@QEAAH$$QEAV<lambda_b521505b218e5242e90febf6bfebc422>@@AEAV<lambda_6978c1fb23f02e42e1d9e99668cc68aa>@@$$QEAV<lambda_314360699dd331753a4119843814e9a7>@@@Z 0000000180078bc8     libucrt:commit.obj
 0002:00027bec       $unwind$__acrt_LCMapStringA 0000000180078bec     libucrt:lcmapstringa.obj
 0002:00027bfc       $unwind$?__acrt_LCMapStringA_stat@@YAHPEAU__crt_locale_pointers@@PEB_WKPEBDHPEADHHH@Z 0000000180078bfc     libucrt:lcmapstringa.obj
 0002:00027c24       $unwind$__acrt_fltout      0000000180078c24     libucrt:cfout.obj
 0002:00027c44       $unwind$__acrt_locale_free_monetary 0000000180078c44     libucrt:initmon.obj
 0002:00027c4c       $unwind$__acrt_locale_free_time 0000000180078c4c     libucrt:inittime.obj
 0002:00027c5c       $unwind$__acrt_GetStringTypeA 0000000180078c5c     libucrt:getstringtypea.obj
 0002:00027c84       $unwind$__acrt_pack_narrow_command_line_and_environment 0000000180078c84     libucrt:cenvarg.obj
 0002:00027ca0       $unwind$??$construct_environment_block@D@@YAHQEBQEBDQEAPEAD@Z 0000000180078ca0     libucrt:cenvarg.obj
 0002:00027cc0       $unwind$__report_gsfailure 0000000180078cc0     LIBCMT:gs_report.obj
 0002:00027cc0       $unwind$_putwch_nolock     0000000180078cc0     libucrt:putwch.obj
 0002:00027cc8       $unwind$__acrt_CompareStringA 0000000180078cc8     libucrt:comparestringa.obj
 0002:00027cd8       $unwind$?InternalCompareStringA@@YAHPEAU__crt_locale_pointers@@PEB_WKPEBDH2HH@Z 0000000180078cd8     libucrt:comparestringa.obj
 0002:00027cfc       $unwind$qsort              0000000180078cfc     libucrt:qsort.obj
 0002:00027d14       $chain$4$qsort             0000000180078d14     libucrt:qsort.obj
 0002:00027d38       $chain$5$qsort             0000000180078d38     libucrt:qsort.obj
 0002:00027d48       $unwind$?shortsort@@YAXPEAD0_KP6AHPEBX2@Z@Z 0000000180078d48     libucrt:qsort.obj
 0002:00027d58       $chain$2$?shortsort@@YAXPEAD0_KP6AHPEBX2@Z@Z 0000000180078d58     libucrt:qsort.obj
 0002:00027d74       $chain$3$?shortsort@@YAXPEAD0_KP6AHPEBX2@Z@Z 0000000180078d74     libucrt:qsort.obj
 0002:00027d84       $unwind$strpbrk            0000000180078d84     libucrt:strpbrk.obj
 0002:00027d94       $unwind$_mbsdec_l          0000000180078d94     libucrt:mbsdec.obj
 0002:00027da0       $unwind$_chsize_nolock     0000000180078da0     libucrt:chsize.obj
 0002:00027da0       $unwind$?write_string@?$stream_output_adapter@D@__crt_stdio_output@@QEBAXQEBDHQEAH1@Z 0000000180078da0     libucrt:output.obj
 0002:00027db8       $unwind$_read_nolock       0000000180078db8     libucrt:read.obj
 0002:00027dd0       $unwind$?translate_ansi_or_utf8_nolock@@YAHHQEAD_KQEA_W1@Z 0000000180078dd0     libucrt:read.obj
 0002:00027de8       $unwind$??$translate_text_mode_nolock@_W@@YAHHQEA_W_K@Z 0000000180078de8     libucrt:read.obj
 0002:00027e00       $xdatasym                  0000000180078e00     libucrt:log10.obj
 0002:00027e0c       $unwind$common_control87   0000000180078e0c     libucrt:ieee.obj
 0002:00027e40       $xdatasym                  0000000180078e40     libucrt:fpsr.obj
 0002:00027e48       $unwind$_call_matherr      0000000180078e48     libucrt:libm_error.obj
 0002:00027e50       $unwind$_handle_errorf     0000000180078e50     libucrt:libm_error.obj
 0002:00027e50       $unwind$_handle_error      0000000180078e50     libucrt:libm_error.obj
 0002:00027e70       $unwind$__acrt_initialize_fma3 0000000180078e70     libucrt:fma3_available.obj
 0002:00027e78       $unwind$_log_special_common 0000000180078e78     libucrt:log_special.obj
 0002:00027e78       $unwind$_exp_special       0000000180078e78     libucrt:exp_special.obj
 0002:00027e78       $unwind$_expf_special      0000000180078e78     libucrt:exp_special.obj
 0002:00027e84       $unwind$_raise_exc_ex      0000000180078e84     libucrt:fpexcept.obj
 0002:00027e98       $unwind$_ctrlfp            0000000180078e98     libucrt:fpctrl.obj
 0002:00027ec0       $unwind$?DloadObtainSection@@YAPEAXPEAK0@Z 0000000180078ec0     DelayImp:delayhlp.obj
 0002:00027ed0       $unwind$?DloadMakePermanentImageCommit@@YAXPEAX_K@Z 0000000180078ed0     DelayImp:delayhlp.obj
 0002:00027edc       $unwind$?DloadProtectSection@@YAXKPEAK@Z 0000000180078edc     DelayImp:delayhlp.obj
 0002:00027eec       $unwind$__delayLoadHelper2 0000000180078eec     DelayImp:delayhlp.obj
 0002:00027f04       $unwind$_IsNonwritableInCurrentImage 0000000180078f04     LIBCMT:pesect.obj
 0002:00027f28       $unwind$__GSHandlerCheckCommon 0000000180078f28     LIBCMT:_gshandler_.obj
 0002:00027f30       $xdatasym                  0000000180078f30     LIBCMT:_chkstk_.obj
 0002:00027f38       $xdatasym                  0000000180078f38     libvcruntime:memcmp.obj
 0002:00027f3c       $unwind$?_GetEstablisherFrame@@YAPEA_KPEA_KPEAU_xDISPATCHER_CONTEXT@@PEBU_s_FuncInfo@@0@Z 0000000180078f3c     libvcruntime:trnsctrl.obj
 0002:00027f54       $unwind$?__FrameUnwindToEmptyState@@YAXPEA_KPEAU_xDISPATCHER_CONTEXT@@PEBU_s_FuncInfo@@@Z 0000000180078f54     libvcruntime:trnsctrl.obj
 0002:00027f68       $unwind$_CallSETranslator  0000000180078f68     libvcruntime:trnsctrl.obj
 0002:00027f8c       $unwind$?fin$0@?0???$common_sopen_dispatch@D@@YAHQEBDHHHQEAHH@Z@4HA 0000000180078f8c     libucrt:open.obj
 0002:00027f8c       $unwind$_CallSETranslator$filt$0 0000000180078f8c     libvcruntime:trnsctrl.obj
 0002:00027f94       $unwind$_UnwindNestedFrames 0000000180078f94     libvcruntime:trnsctrl.obj
 0002:00027fa8       $unwind$__CxxFrameHandler3 0000000180078fa8     libvcruntime:trnsctrl.obj
 0002:00027fb8       $unwind$__CxxCallCatchBlock 0000000180078fb8     libvcruntime:frame.obj
 0002:00027ff4       $unwind$__CxxCallCatchBlock$fin$1 0000000180078ff4     libvcruntime:frame.obj
 0002:00028000       $unwind$__FrameUnwindToState 0000000180079000     libvcruntime:frame.obj
 0002:0002803c       $unwind$?FindHandler@@YAXPEAUEHExceptionRecord@@PEA_KPEAU_CONTEXT@@PEAU_xDISPATCHER_CONTEXT@@PEBU_s_FuncInfo@@EH1@Z 000000018007903c     libvcruntime:frame.obj
 0002:0002805c       $unwind$?CatchIt@@YAXPEAUEHExceptionRecord@@PEA_KPEAU_CONTEXT@@PEAU_xDISPATCHER_CONTEXT@@PEBU_s_FuncInfo@@PEBU_s_HandlerType@@PEBU_s_CatchableType@@PEBU_s_TryBlockMapEntry@@H1EE@Z 000000018007905c     libvcruntime:frame.obj
 0002:00028074       $unwind$__BuildCatchObject 0000000180079074     libvcruntime:frame.obj
 0002:000280a0       $unwind$?FindHandlerForForeignException@@YAXPEAUEHExceptionRecord@@PEA_KPEAU_CONTEXT@@PEAU_xDISPATCHER_CONTEXT@@PEBU_s_FuncInfo@@HH1@Z 00000001800790a0     libvcruntime:frame.obj
 0002:000280b8       $unwind$__DestructExceptionObject 00000001800790b8     libvcruntime:frame.obj
 0002:000280dc       $unwind$__BuildCatchObjectHelper 00000001800790dc     libvcruntime:frame.obj
 0002:00028120       $xdatasym                  0000000180079120     libvcruntime:handlers.obj
 0002:00028128       $xdatasym                  0000000180079128     libucrt:cosf.obj
 0002:00028130       $xdatasym                  0000000180079130     libucrt:exp.obj
 0002:00028138       $xdatasym                  0000000180079138     libucrt:expf.obj
 0002:00028140       $xdatasym                  0000000180079140     libucrt:log.obj
 0002:00028150       $xdatasym                  0000000180079150     libucrt:sinf.obj
 0002:00028158       $xdatasym                  0000000180079158     libucrt:strcmp.obj
 0002:00028160       $xdatasym                  0000000180079160     libucrt:remainder_piby2f_forasm.obj
 0002:00028168       $xdatasym                  0000000180079168     libucrt:remainder_piby2_forfma3.obj
 0002:00028178       $xdatasym                  0000000180079178     libucrt:remainder_piby2f_forc.obj
 0002:00028980       .edata                     0000000180079980     hcaptha.exp
 0002:000289a8       rgpv                       00000001800799a8     hcaptha.exp
 0002:000289ac       rgszName                   00000001800799ac     hcaptha.exp
 0002:000289b0       rgwOrd                     00000001800799b0     hcaptha.exp
 0002:000289b2       szName                     00000001800799b2     hcaptha.exp
 0002:000289bf       $N00001                    00000001800799bf     hcaptha.exp
 0002:00028ee6       .idata$6                   0000000180079ee6     kernel32:KERNEL32.dll
 0002:00029034       .idata$6                   000000018007a034     user32:USER32.dll
 0002:00029054       .idata$6                   000000018007a054     gdi32:GDI32.dll
 0002:00029078       .idata$6                   000000018007a078     shell32:SHELL32.dll
 0003:00000030       ?__vcrt_flsindex@@3KA      000000018007b030     libvcruntime:per_thread_data.obj
 0003:00000154       errno_no_memory            000000018007b154     libucrt:errno.obj
 0003:00000158       doserrno_no_memory         000000018007b158     libucrt:errno.obj
 0003:000001a0       __acrt_flsindex            000000018007b1a0     libucrt:per_thread_data.obj
 0003:00000550       __rgctypeflag              000000018007b550     libucrt:mbctype.obj
 0003:00000560       __rgcode_page_info         000000018007b560     libucrt:mbctype.obj
 0003:00000a18       ?dazSupported@?1??common_control87@@9@9 000000018007ba18     libucrt:ieee.obj
 0003:00000a20       ?dazSupported@?1??_ctrlfp@@9@9 000000018007ba20     libucrt:fpctrl.obj
 0003:00000a30       _module                    000000018007ba30     hcaptha.obj
 0003:00000d58       ?_Tss_mutex@@3U_RTL_CRITICAL_SECTION@@A 000000018007bd58     LIBCMT:thread_safe_statics.obj
 0003:00000d80       ?_Tss_cv@@3U_RTL_CONDITION_VARIABLE@@A 000000018007bd80     LIBCMT:thread_safe_statics.obj
 0003:00000d88       ?_Tss_event@@3PEAXEA       000000018007bd88     LIBCMT:thread_safe_statics.obj
 0003:00000d90       ?encoded_sleep_condition_variable_cs@@3P6AHPEAU_RTL_CONDITION_VARIABLE@@PEAU_RTL_CRITICAL_SECTION@@K@ZEA 000000018007bd90     LIBCMT:thread_safe_statics.obj
 0003:00000d98       ?encoded_wake_all_condition_variable@@3P6AXPEAU_RTL_CONDITION_VARIABLE@@@ZEA 000000018007bd98     LIBCMT:thread_safe_statics.obj
 0003:00000da0       GS_ExceptionRecord         000000018007bda0     LIBCMT:gs_report.obj
 0003:00000e40       GS_ContextRecord           000000018007be40     LIBCMT:gs_report.obj
 0003:00001320       ?module_local_atexit_table@@3U_onexit_table_t@@A 000000018007c320     LIBCMT:utility.obj
 0003:00001338       ?module_local_at_quick_exit_table@@3U_onexit_table_t@@A 000000018007c338     LIBCMT:utility.obj
 0003:00001350       ?is_initialized_as_dll@@3_NA 000000018007c350     LIBCMT:utility.obj
 0003:00001354       ?__proc_attached@@3HA      000000018007c354     LIBCMT:dll_dllmain.obj
 0003:00001380       ?module_handles@@3PAPEAUHINSTANCE__@@A 000000018007c380     libvcruntime:winapi_downlevel.obj
 0003:000013a0       ?encoded_function_pointers@@3PAPEAXA 000000018007c3a0     libvcruntime:winapi_downlevel.obj
 0003:000013f0       ?__vcrt_startup_thread_ptd@@3U__vcrt_ptd@@A 000000018007c3f0     libvcruntime:per_thread_data.obj
 0003:00001468       __vcrt_lock_table          000000018007c468     libvcruntime:locks.obj
 0003:00001490       __vcrt_locks_initialized   000000018007c490     libvcruntime:locks.obj
 0003:000014e8       ?heap@@3V_HeapManager@@A   000000018007c4e8     libvcruntime:undname.obj
 0003:00001528       __acrt_invalid_parameter_handler 000000018007c528     libucrt:invalid_parameter.obj
 0003:00001530       __acrt_new_handler         000000018007c530     libucrt:new_handler.obj
 0003:00001538       c_termination_complete     000000018007c538     libucrt:exit.obj
 0003:00001540       thread_local_exit_callback_func 000000018007c540     libucrt:exit.obj
 0003:00001548       ?c_exit_complete@?5??common_exit@@YAXHW4_crt_exit_cleanup_mode@@W4_crt_exit_return_mode@@@Z@4_NA 000000018007c548     libucrt:exit.obj
 0003:00001550       ?program_name@?5???$common_configure_argv@D@@YAHW4_crt_argv_mode@@@Z@4PADA 000000018007c550     libucrt:argv_parsing.obj
 0003:00001ac0       module_handles             000000018007cac0     libucrt:winapi_thunks.obj
 0003:00001b60       encoded_function_pointers  000000018007cb60     libucrt:winapi_thunks.obj
 0003:00001c60       ?state_cache@?1??__acrt_is_packaged_app@@9@4JA 000000018007cc60     libucrt:winapi_thunks.obj
 0003:00001c68       enable_percent_n           000000018007cc68     libucrt:printf_count_output.obj
 0003:00001ca0       __acrt_lock_table          000000018007cca0     libucrt:locks.obj
 0003:00001ea8       __acrt_locks_initialized   000000018007cea8     libucrt:locks.obj
 0003:00001ec4       fSystemSet                 000000018007cec4     libucrt:mbctype.obj
 0003:00001ed0       ?initialized@?1??__acrt_initialize_multibyte@@9@4_NA 000000018007ced0     libucrt:mbctype.obj
 0003:00001f08       ctrlc_action               000000018007cf08     libucrt:signal.obj
 0003:00001f10       ctrlbreak_action           000000018007cf10     libucrt:signal.obj
 0003:00001f18       abort_action               000000018007cf18     libucrt:signal.obj
 0003:00001f20       term_action                000000018007cf20     libucrt:signal.obj
 0003:00001f28       user_matherr               000000018007cf28     libucrt:matherr.obj
 0003:00001f30       __acrt_global_new_mode     000000018007cf30     libucrt:new_mode.obj
 0003:00001f40       __acrt_app_type            000000018007cf40     libucrt:report_runtime_error.obj
 0004:00000000       $pdata$??__Etext@img_obj@@YAXXZ 000000018007e000     cap.obj
 0004:0000000c       $pdata$??__Efilename@img_obj@@YAXXZ 000000018007e00c     cap.obj
 0004:00000018       $pdata$?NODE_SET_METHOD@node@@YAXV?$Local@VObject@v8@@@v8@@PEBDP6AXAEBV?$FunctionCallbackInfo@VValue@v8@@@3@@Z@Z 000000018007e018     hcaptha.obj
 0004:00000024       $pdata$?Init@@YAXV?$Local@VObject@v8@@@v8@@@Z 000000018007e024     hcaptha.obj
 0004:00000030       $pdata$fprintf             000000018007e030     cap.obj
 0004:0000003c       $pdata$sprintf             000000018007e03c     cap.obj
 0004:00000048       $pdata$_snprintf           000000018007e048     cap.obj
 0004:00000054       $pdata$sscanf              000000018007e054     cap.obj
 0004:00000060       $pdata$??_Gexception@stdext@@UEAAPEAXI@Z 000000018007e060     cap.obj
 0004:0000006c       $pdata$??_GCImgException@cimg_library@@UEAAPEAXI@Z 000000018007e06c     cap.obj
 0004:0000006c       $pdata$??_GCImgInstanceException@cimg_library@@UEAAPEAXI@Z 000000018007e06c     cap.obj
 0004:0000006c       $pdata$??_GCImgArgumentException@cimg_library@@UEAAPEAXI@Z 000000018007e06c     cap.obj
 0004:0000006c       $pdata$??_GCImgIOException@cimg_library@@UEAAPEAXI@Z 000000018007e06c     cap.obj
 0004:00000078       $pdata$??0CImgInstanceException@cimg_library@@QEAA@QEBDZZ 000000018007e078     cap.obj
 0004:00000084       $pdata$??0CImgArgumentException@cimg_library@@QEAA@QEBDZZ 000000018007e084     cap.obj
 0004:00000090       $pdata$??0CImgIOException@cimg_library@@QEAA@QEBDZZ 000000018007e090     cap.obj
 0004:0000009c       $pdata$?Win32_attr@cimg@cimg_library@@YAAEAUWin32_info@12@XZ 000000018007e09c     cap.obj
 0004:000000a8       $pdata$?output@cimg@cimg_library@@YAPEAU_iobuf@@PEAU3@@Z 000000018007e0a8     cap.obj
 0004:000000b4       $pdata$?warn@cimg@cimg_library@@YAXQEBDZZ 000000018007e0b4     cap.obj
 0004:000000c0       $pdata$0$?warn@cimg@cimg_library@@YAXQEBDZZ 000000018007e0c0     cap.obj
 0004:000000cc       $pdata$1$?warn@cimg@cimg_library@@YAXQEBDZZ 000000018007e0cc     cap.obj
 0004:000000d8       $pdata$?system@cimg@cimg_library@@YAHQEBD0@Z 000000018007e0d8     cap.obj
 0004:000000e4       $pdata$?_wait@cimg@cimg_library@@YAIIAEAK@Z 000000018007e0e4     cap.obj
 0004:000000f0       $pdata$?strncasecmp@cimg@cimg_library@@YAHQEBD0H@Z 000000018007e0f0     cap.obj
 0004:000000fc       $pdata$?strbuffersize@cimg@cimg_library@@YAPEBDK@Z 000000018007e0fc     cap.obj
 0004:00000108       $pdata$?filenamerand@cimg@cimg_library@@YAPEBDXZ 000000018007e108     cap.obj
 0004:00000114       $pdata$?winformat_string@cimg@cimg_library@@YAXQEAD@Z 000000018007e114     cap.obj
 0004:00000120       $pdata$0$?winformat_string@cimg@cimg_library@@YAXQEAD@Z 000000018007e120     cap.obj
 0004:0000012c       $pdata$1$?winformat_string@cimg@cimg_library@@YAXQEAD@Z 000000018007e12c     cap.obj
 0004:00000138       $pdata$?fopen@cimg@cimg_library@@YAPEAU_iobuf@@QEBD0@Z 000000018007e138     cap.obj
 0004:00000144       $pdata$0$?fopen@cimg@cimg_library@@YAPEAU_iobuf@@QEBD0@Z 000000018007e144     cap.obj
 0004:00000150       $pdata$1$?fopen@cimg@cimg_library@@YAPEAU_iobuf@@QEBD0@Z 000000018007e150     cap.obj
 0004:0000015c       $pdata$2$?fopen@cimg@cimg_library@@YAPEAU_iobuf@@QEBD0@Z 000000018007e15c     cap.obj
 0004:00000168       $pdata$?fclose@cimg@cimg_library@@YAHPEAU_iobuf@@@Z 000000018007e168     cap.obj
 0004:00000174       $pdata$?temporary_path@cimg@cimg_library@@YAPEBDQEBD_N@Z 000000018007e174     cap.obj
 0004:00000180       $pdata$?programfiles_path@cimg@cimg_library@@YAPEBDQEBD_N@Z 000000018007e180     cap.obj
 0004:0000018c       $pdata$0$?programfiles_path@cimg@cimg_library@@YAPEBDQEBD_N@Z 000000018007e18c     cap.obj
 0004:00000198       $pdata$1$?programfiles_path@cimg@cimg_library@@YAPEBDQEBD_N@Z 000000018007e198     cap.obj
 0004:000001a4       $pdata$?imagemagick_path@cimg@cimg_library@@YAPEBDQEBD_N@Z 000000018007e1a4     cap.obj
 0004:000001b0       $pdata$0$?imagemagick_path@cimg@cimg_library@@YAPEBDQEBD_N@Z 000000018007e1b0     cap.obj
 0004:000001bc       $pdata$5$?imagemagick_path@cimg@cimg_library@@YAPEBDQEBD_N@Z 000000018007e1bc     cap.obj
 0004:000001c8       $pdata$6$?imagemagick_path@cimg@cimg_library@@YAPEBDQEBD_N@Z 000000018007e1c8     cap.obj
 0004:000001d4       $pdata$7$?imagemagick_path@cimg@cimg_library@@YAPEBDQEBD_N@Z 000000018007e1d4     cap.obj
 0004:000001e0       $pdata$8$?imagemagick_path@cimg@cimg_library@@YAPEBDQEBD_N@Z 000000018007e1e0     cap.obj
 0004:000001ec       $pdata$9$?imagemagick_path@cimg@cimg_library@@YAPEBDQEBD_N@Z 000000018007e1ec     cap.obj
 0004:000001f8       $pdata$11$?imagemagick_path@cimg@cimg_library@@YAPEBDQEBD_N@Z 000000018007e1f8     cap.obj
 0004:00000204       $pdata$12$?imagemagick_path@cimg@cimg_library@@YAPEBDQEBD_N@Z 000000018007e204     cap.obj
 0004:00000210       $pdata$?graphicsmagick_path@cimg@cimg_library@@YAPEBDQEBD_N@Z 000000018007e210     cap.obj
 0004:0000021c       $pdata$0$?graphicsmagick_path@cimg@cimg_library@@YAPEBDQEBD_N@Z 000000018007e21c     cap.obj
 0004:00000228       $pdata$5$?graphicsmagick_path@cimg@cimg_library@@YAPEBDQEBD_N@Z 000000018007e228     cap.obj
 0004:00000234       $pdata$6$?graphicsmagick_path@cimg@cimg_library@@YAPEBDQEBD_N@Z 000000018007e234     cap.obj
 0004:00000240       $pdata$7$?graphicsmagick_path@cimg@cimg_library@@YAPEBDQEBD_N@Z 000000018007e240     cap.obj
 0004:0000024c       $pdata$8$?graphicsmagick_path@cimg@cimg_library@@YAPEBDQEBD_N@Z 000000018007e24c     cap.obj
 0004:00000258       $pdata$9$?graphicsmagick_path@cimg@cimg_library@@YAPEBDQEBD_N@Z 000000018007e258     cap.obj
 0004:00000264       $pdata$11$?graphicsmagick_path@cimg@cimg_library@@YAPEBDQEBD_N@Z 000000018007e264     cap.obj
 0004:00000270       $pdata$12$?graphicsmagick_path@cimg@cimg_library@@YAPEBDQEBD_N@Z 000000018007e270     cap.obj
 0004:0000027c       $pdata$?medcon_path@cimg@cimg_library@@YAPEBDQEBD_N@Z 000000018007e27c     cap.obj
 0004:00000288       $pdata$0$?medcon_path@cimg@cimg_library@@YAPEBDQEBD_N@Z 000000018007e288     cap.obj
 0004:00000294       $pdata$1$?medcon_path@cimg@cimg_library@@YAPEBDQEBD_N@Z 000000018007e294     cap.obj
 0004:000002a0       $pdata$?ffmpeg_path@cimg@cimg_library@@YAPEBDQEBD_N@Z 000000018007e2a0     cap.obj
 0004:000002ac       $pdata$0$?ffmpeg_path@cimg@cimg_library@@YAPEBDQEBD_N@Z 000000018007e2ac     cap.obj
 0004:000002b8       $pdata$1$?ffmpeg_path@cimg@cimg_library@@YAPEBDQEBD_N@Z 000000018007e2b8     cap.obj
 0004:000002c4       $pdata$?gzip_path@cimg@cimg_library@@YAPEBDQEBD_N@Z 000000018007e2c4     cap.obj
 0004:000002d0       $pdata$0$?gzip_path@cimg@cimg_library@@YAPEBDQEBD_N@Z 000000018007e2d0     cap.obj
 0004:000002dc       $pdata$1$?gzip_path@cimg@cimg_library@@YAPEBDQEBD_N@Z 000000018007e2dc     cap.obj
 0004:000002e8       $pdata$?split_filename@cimg@cimg_library@@YAPEBDQEBDQEAD@Z 000000018007e2e8     cap.obj
 0004:000002f4       $pdata$0$?split_filename@cimg@cimg_library@@YAPEBDQEBDQEAD@Z 000000018007e2f4     cap.obj
 0004:00000300       $pdata$2$?split_filename@cimg@cimg_library@@YAPEBDQEBDQEAD@Z 000000018007e300     cap.obj
 0004:0000030c       $pdata$3$?split_filename@cimg@cimg_library@@YAPEBDQEBDQEAD@Z 000000018007e30c     cap.obj
 0004:00000318       $pdata$4$?split_filename@cimg@cimg_library@@YAPEBDQEBDQEAD@Z 000000018007e318     cap.obj
 0004:00000324       $pdata$?fempty@cimg@cimg_library@@YAXQEAU_iobuf@@QEBD@Z 000000018007e324     cap.obj
 0004:00000330       $pdata$?info@cimg@cimg_library@@YAXXZ 000000018007e330     cap.obj
 0004:0000033c       $pdata$?set_key@CImgDisplay@cimg_library@@QEAAAEAU12@XZ 000000018007e33c     cap.obj
 0004:00000348       $pdata$?set_key@CImgDisplay@cimg_library@@QEAAAEAU12@I_N@Z 000000018007e348     cap.obj
 0004:00000354       $pdata$0$?set_key@CImgDisplay@cimg_library@@QEAAAEAU12@I_N@Z 000000018007e354     cap.obj
 0004:00000360       $pdata$?screen_width@CImgDisplay@cimg_library@@SAHXZ 000000018007e360     cap.obj
 0004:0000036c       $pdata$?screen_height@CImgDisplay@cimg_library@@SAHXZ 000000018007e36c     cap.obj
 0004:00000378       $pdata$?_handle_events@CImgDisplay@cimg_library@@SA_JPEAUHWND__@@I_K_J@Z 000000018007e378     cap.obj
 0004:00000384       $pdata$?_events_thread@CImgDisplay@cimg_library@@SAKPEAX@Z 000000018007e384     cap.obj
 0004:00000390       $pdata$4$?_events_thread@CImgDisplay@cimg_library@@SAKPEAX@Z 000000018007e390     cap.obj
 0004:0000039c       $pdata$5$?_events_thread@CImgDisplay@cimg_library@@SAKPEAX@Z 000000018007e39c     cap.obj
 0004:000003a8       $pdata$?_update_window_pos@CImgDisplay@cimg_library@@QEAAAEAU12@XZ 000000018007e3a8     cap.obj
 0004:000003b4       $pdata$1$?_update_window_pos@CImgDisplay@cimg_library@@QEAAAEAU12@XZ 000000018007e3b4     cap.obj
 0004:000003c0       $pdata$2$?_update_window_pos@CImgDisplay@cimg_library@@QEAAAEAU12@XZ 000000018007e3c0     cap.obj
 0004:000003cc       $pdata$?_init_fullscreen@CImgDisplay@cimg_library@@QEAAXXZ 000000018007e3cc     cap.obj
 0004:000003d8       $pdata$5$?_init_fullscreen@CImgDisplay@cimg_library@@QEAAXXZ 000000018007e3d8     cap.obj
 0004:000003e4       $pdata$6$?_init_fullscreen@CImgDisplay@cimg_library@@QEAAXXZ 000000018007e3e4     cap.obj
 0004:000003f0       $pdata$?_assign@CImgDisplay@cimg_library@@QEAAAEAU12@IIQEBDI_N1@Z 000000018007e3f0     cap.obj
 0004:000003fc       $pdata$?assign@CImgDisplay@cimg_library@@QEAAAEAU12@XZ 000000018007e3fc     cap.obj
 0004:00000408       $pdata$?resize@CImgDisplay@cimg_library@@QEAAAEAU12@HH_N@Z 000000018007e408     cap.obj
 0004:00000414       $pdata$2$?resize@CImgDisplay@cimg_library@@QEAAAEAU12@HH_N@Z 000000018007e414     cap.obj
 0004:00000420       $pdata$3$?resize@CImgDisplay@cimg_library@@QEAAAEAU12@HH_N@Z 000000018007e420     cap.obj
 0004:0000042c       $pdata$4$?resize@CImgDisplay@cimg_library@@QEAAAEAU12@HH_N@Z 000000018007e42c     cap.obj
 0004:00000438       $pdata$?move@CImgDisplay@cimg_library@@QEAAAEAU12@HH@Z 000000018007e438     cap.obj
 0004:00000444       $pdata$0$?move@CImgDisplay@cimg_library@@QEAAAEAU12@HH@Z 000000018007e444     cap.obj
 0004:00000450       $pdata$1$?move@CImgDisplay@cimg_library@@QEAAAEAU12@HH@Z 000000018007e450     cap.obj
 0004:0000045c       $pdata$?paint@CImgDisplay@cimg_library@@QEAAAEAU12@XZ 000000018007e45c     cap.obj
 0004:00000468       $pdata$?dialog@cimg@cimg_library@@YAHQEBD0000000_N@Z 000000018007e468     cap.obj
 0004:00000474       $pdata$?create@cap@@SAXAEBV?$FunctionCallbackInfo@VValue@v8@@@v8@@@Z 000000018007e474     cap.obj
 0004:00000480       $pdata$?save@cap@@SAHXZ    000000018007e480     cap.obj
 0004:0000048c       $pdata$?_logo40x38@?$CImg@E@cimg_library@@SA?AU12@XZ 000000018007e48c     cap.obj
 0004:00000498       $pdata$2$?_logo40x38@?$CImg@E@cimg_library@@SA?AU12@XZ 000000018007e498     cap.obj
 0004:000004a4       $pdata$3$?_logo40x38@?$CImg@E@cimg_library@@SA?AU12@XZ 000000018007e4a4     cap.obj
 0004:000004b0       $pdata$4$?_logo40x38@?$CImg@E@cimg_library@@SA?AU12@XZ 000000018007e4b0     cap.obj
 0004:000004bc       $pdata$5$?_logo40x38@?$CImg@E@cimg_library@@SA?AU12@XZ 000000018007e4bc     cap.obj
 0004:000004c8       $pdata$?save@?$CImg@E@cimg_library@@QEBAAEBU12@QEBDH@Z 000000018007e4c8     cap.obj
 0004:000004d4       $pdata$5$?save@?$CImg@E@cimg_library@@QEBAAEBU12@QEBDH@Z 000000018007e4d4     cap.obj
 0004:000004e0       $pdata$6$?save@?$CImg@E@cimg_library@@QEBAAEBU12@QEBDH@Z 000000018007e4e0     cap.obj
 0004:000004ec       $pdata$?shift@?$CImg@E@cimg_library@@QEAAAEAU12@HHHHH@Z 000000018007e4ec     cap.obj
 0004:000004f8       $pdata$4$?shift@?$CImg@E@cimg_library@@QEAAAEAU12@HHHHH@Z 000000018007e4f8     cap.obj
 0004:00000504       $pdata$5$?shift@?$CImg@E@cimg_library@@QEAAAEAU12@HHHHH@Z 000000018007e504     cap.obj
 0004:00000510       $pdata$?resize@?$CImg@E@cimg_library@@QEAAAEAU12@HHHHHIMMMM@Z 000000018007e510     cap.obj
 0004:0000051c       $pdata$0$?resize@?$CImg@E@cimg_library@@QEAAAEAU12@HHHHHIMMMM@Z 000000018007e51c     cap.obj
 0004:00000528       $pdata$1$?resize@?$CImg@E@cimg_library@@QEAAAEAU12@HHHHHIMMMM@Z 000000018007e528     cap.obj
 0004:00000534       $pdata$2$?resize@?$CImg@E@cimg_library@@QEAAAEAU12@HHHHHIMMMM@Z 000000018007e534     cap.obj
 0004:00000540       $pdata$3$?resize@?$CImg@E@cimg_library@@QEAAAEAU12@HHHHHIMMMM@Z 000000018007e540     cap.obj
 0004:0000054c       $pdata$?normalize@?$CImg@E@cimg_library@@QEAAAEAU12@EE@Z 000000018007e54c     cap.obj
 0004:00000558       $pdata$?noise@?$CImg@E@cimg_library@@QEAAAEAU12@NI@Z 000000018007e558     cap.obj
 0004:00000564       $pdata$5$?noise@?$CImg@E@cimg_library@@QEAAAEAU12@NI@Z 000000018007e564     cap.obj
 0004:00000570       $pdata$6$?noise@?$CImg@E@cimg_library@@QEAAAEAU12@NI@Z 000000018007e570     cap.obj
 0004:0000057c       $pdata$7$?noise@?$CImg@E@cimg_library@@QEAAAEAU12@NI@Z 000000018007e57c     cap.obj
 0004:00000588       $pdata$8$?noise@?$CImg@E@cimg_library@@QEAAAEAU12@NI@Z 000000018007e588     cap.obj
 0004:00000594       $pdata$?fill@?$CImg@E@cimg_library@@QEAAAEAU12@E@Z 000000018007e594     cap.obj
 0004:000005a0       $pdata$??0?$CImg@E@cimg_library@@QEAA@AEBU01@@Z 000000018007e5a0     cap.obj
 0004:000005ac       $pdata$??0?$CImg@E@cimg_library@@QEAA@IIIIE@Z 000000018007e5ac     cap.obj
 0004:000005b8       $pdata$??0?$CImg@E@cimg_library@@QEAA@IIII@Z 000000018007e5b8     cap.obj
 0004:000005c4       $pdata$??4?$basic_string@DU?$char_traits@D@std@@V?$allocator@D@2@@std@@QEAAAEAV01@$$QEAV01@@Z 000000018007e5c4     cap.obj
 0004:000005d0       $pdata$?save_other@?$CImg@E@cimg_library@@QEBAAEBU12@QEBDI@Z 000000018007e5d0     cap.obj
 0004:000005dc       $pdata$?save_medcon_external@?$CImg@E@cimg_library@@QEBAAEBU12@QEBD@Z 000000018007e5dc     cap.obj
 0004:000005e8       $pdata$1$?save_medcon_external@?$CImg@E@cimg_library@@QEBAAEBU12@QEBD@Z 000000018007e5e8     cap.obj
 0004:000005f4       $pdata$2$?save_medcon_external@?$CImg@E@cimg_library@@QEBAAEBU12@QEBD@Z 000000018007e5f4     cap.obj
 0004:00000600       $pdata$?save_gzip_external@?$CImg@E@cimg_library@@QEBAAEBU12@QEBD@Z 000000018007e600     cap.obj
 0004:0000060c       $pdata$2$?save_gzip_external@?$CImg@E@cimg_library@@QEBAAEBU12@QEBD@Z 000000018007e60c     cap.obj
 0004:00000618       $pdata$3$?save_gzip_external@?$CImg@E@cimg_library@@QEBAAEBU12@QEBD@Z 000000018007e618     cap.obj
 0004:00000624       $pdata$4$?save_gzip_external@?$CImg@E@cimg_library@@QEBAAEBU12@QEBD@Z 000000018007e624     cap.obj
 0004:00000630       $pdata$5$?save_gzip_external@?$CImg@E@cimg_library@@QEBAAEBU12@QEBD@Z 000000018007e630     cap.obj
 0004:0000063c       $pdata$?save_ffmpeg@?$CImg@E@cimg_library@@QEBAAEBU12@QEBDII@Z 000000018007e63c     cap.obj
 0004:00000648       $pdata$?save_exr@?$CImg@E@cimg_library@@QEBAAEBU12@QEBD@Z 000000018007e648     cap.obj
 0004:00000654       $pdata$?save_cimg@?$CImg@E@cimg_library@@QEBAAEBU12@QEBD_N@Z 000000018007e654     cap.obj
 0004:00000660       $pdata$?save_analyze@?$CImg@E@cimg_library@@QEBAAEBU12@QEBDQEBM@Z 000000018007e660     cap.obj
 0004:0000066c       $pdata$0$?save_analyze@?$CImg@E@cimg_library@@QEBAAEBU12@QEBDQEBM@Z 000000018007e66c     cap.obj
 0004:00000678       $pdata$1$?save_analyze@?$CImg@E@cimg_library@@QEBAAEBU12@QEBDQEBM@Z 000000018007e678     cap.obj
 0004:00000684       $pdata$3$?save_analyze@?$CImg@E@cimg_library@@QEBAAEBU12@QEBDQEBM@Z 000000018007e684     cap.obj
 0004:00000690       $pdata$4$?save_analyze@?$CImg@E@cimg_library@@QEBAAEBU12@QEBDQEBM@Z 000000018007e690     cap.obj
 0004:0000069c       $pdata$5$?save_analyze@?$CImg@E@cimg_library@@QEBAAEBU12@QEBDQEBM@Z 000000018007e69c     cap.obj
 0004:000006a8       $pdata$6$?save_analyze@?$CImg@E@cimg_library@@QEBAAEBU12@QEBDQEBM@Z 000000018007e6a8     cap.obj
 0004:000006b4       $pdata$7$?save_analyze@?$CImg@E@cimg_library@@QEBAAEBU12@QEBDQEBM@Z 000000018007e6b4     cap.obj
 0004:000006c0       $pdata$8$?save_analyze@?$CImg@E@cimg_library@@QEBAAEBU12@QEBDQEBM@Z 000000018007e6c0     cap.obj
 0004:000006cc       $pdata$9$?save_analyze@?$CImg@E@cimg_library@@QEBAAEBU12@QEBDQEBM@Z 000000018007e6cc     cap.obj
 0004:000006d8       $pdata$?save_minc2@?$CImg@E@cimg_library@@QEBAAEBU12@QEBD0@Z 000000018007e6d8     cap.obj
 0004:000006e4       $pdata$?save_tiff@?$CImg@E@cimg_library@@QEBAAEBU12@QEBDI@Z 000000018007e6e4     cap.obj
 0004:000006f0       $pdata$?_save_jpeg@?$CImg@E@cimg_library@@QEBAAEBU12@QEAU_iobuf@@QEBDI@Z 000000018007e6f0     cap.obj
 0004:000006fc       $pdata$?get_shared_rows@?$CImg@E@cimg_library@@QEAA?AU12@IIII@Z 000000018007e6fc     cap.obj
 0004:00000708       $pdata$?get_resize@?$CImg@E@cimg_library@@QEBA?AU12@HHHHHIMMMM@Z 000000018007e708     cap.obj
 0004:00000714       $pdata$0$?get_resize@?$CImg@E@cimg_library@@QEBA?AU12@HHHHHIMMMM@Z 000000018007e714     cap.obj
 0004:00000720       $pdata$3$?get_resize@?$CImg@E@cimg_library@@QEBA?AU12@HHHHHIMMMM@Z 000000018007e720     cap.obj
 0004:0000072c       $pdata$4$?get_resize@?$CImg@E@cimg_library@@QEBA?AU12@HHHHHIMMMM@Z 000000018007e72c     cap.obj
 0004:00000738       $pdata$5$?get_resize@?$CImg@E@cimg_library@@QEBA?AU12@HHHHHIMMMM@Z 000000018007e738     cap.obj
 0004:00000744       $pdata$6$?get_resize@?$CImg@E@cimg_library@@QEBA?AU12@HHHHHIMMMM@Z 000000018007e744     cap.obj
 0004:00000750       $pdata$7$?get_resize@?$CImg@E@cimg_library@@QEBA?AU12@HHHHHIMMMM@Z 000000018007e750     cap.obj
 0004:0000075c       $pdata$8$?get_resize@?$CImg@E@cimg_library@@QEBA?AU12@HHHHHIMMMM@Z 000000018007e75c     cap.obj
 0004:00000768       $pdata$9$?get_resize@?$CImg@E@cimg_library@@QEBA?AU12@HHHHHIMMMM@Z 000000018007e768     cap.obj
 0004:00000774       $pdata$10$?get_resize@?$CImg@E@cimg_library@@QEBA?AU12@HHHHHIMMMM@Z 000000018007e774     cap.obj
 0004:00000780       $pdata$11$?get_resize@?$CImg@E@cimg_library@@QEBA?AU12@HHHHHIMMMM@Z 000000018007e780     cap.obj
 0004:0000078c       $pdata$?move_to@?$CImg@E@cimg_library@@QEAAAEAU12@AEAU12@@Z 000000018007e78c     cap.obj
 0004:00000798       $pdata$?assign@?$CImg@E@cimg_library@@QEAAAEAU12@IIIIE@Z 000000018007e798     cap.obj
 0004:000007a4       $pdata$?assign@?$CImg@E@cimg_library@@QEAAAEAU12@XZ 000000018007e7a4     cap.obj
 0004:000007a4       $pdata$?assign@?$CImg@D@cimg_library@@QEAAAEAU12@XZ 000000018007e7a4     cap.obj
 0004:000007a4       $pdata$?assign@?$CImg@M@cimg_library@@QEAAAEAU12@XZ 000000018007e7a4     cap.obj
 0004:000007b0       $pdata$??0?$CImg@E@cimg_library@@QEAA@AEBU01@_N@Z 000000018007e7b0     cap.obj
 0004:000007bc       $pdata$?assign@?$basic_string@DU?$char_traits@D@std@@V?$allocator@D@2@@std@@QEAAAEAV12@PEBD_K@Z 000000018007e7bc     cap.obj
 0004:000007c8       $pdata$?assign@?$basic_string@DU?$char_traits@D@std@@V?$allocator@D@2@@std@@QEAAAEAV12@AEBV12@_K1@Z 000000018007e7c8     cap.obj
 0004:000007d4       $pdata$?_Assign_rv@?$basic_string@DU?$char_traits@D@std@@V?$allocator@D@2@@std@@QEAAX$$QEAV12@@Z 000000018007e7d4     cap.obj
 0004:000007e0       $pdata$??_E?$CImg@M@cimg_library@@QEAAPEAXI@Z 000000018007e7e0     cap.obj
 0004:000007e0       $pdata$??_E?$CImg@D@cimg_library@@QEAAPEAXI@Z 000000018007e7e0     cap.obj
 0004:000007e0       $pdata$??_E?$CImg@E@cimg_library@@QEAAPEAXI@Z 000000018007e7e0     cap.obj
 0004:000007ec       $pdata$??0?$CImg@I@cimg_library@@QEAA@IIII@Z 000000018007e7ec     cap.obj
 0004:000007f8       $pdata$?_system_strescape@?$CImg@D@cimg_library@@QEAAAEAU12@XZ 000000018007e7f8     cap.obj
 0004:00000804       $pdata$1$?_system_strescape@?$CImg@D@cimg_library@@QEAAAEAU12@XZ 000000018007e804     cap.obj
 0004:00000810       $pdata$2$?_system_strescape@?$CImg@D@cimg_library@@QEAAAEAU12@XZ 000000018007e810     cap.obj
 0004:0000081c       $pdata$3$?_system_strescape@?$CImg@D@cimg_library@@QEAAAEAU12@XZ 000000018007e81c     cap.obj
 0004:00000828       $pdata$?assign@?$CImg@D@cimg_library@@QEAAAEAU12@QEBDIIII@Z 000000018007e828     cap.obj
 0004:00000834       $pdata$??0?$CImg@M@cimg_library@@QEAA@IIIIM@Z 000000018007e834     cap.obj
 0004:00000840       $pdata$??0?$CImg@M@cimg_library@@QEAA@IIII@Z 000000018007e840     cap.obj
 0004:0000084c       $pdata$?save_imagemagick_external@?$CImg@E@cimg_library@@QEBAAEBU12@QEBDI@Z 000000018007e84c     cap.obj
 0004:00000858       $pdata$1$?save_imagemagick_external@?$CImg@E@cimg_library@@QEBAAEBU12@QEBDI@Z 000000018007e858     cap.obj
 0004:00000864       $pdata$2$?save_imagemagick_external@?$CImg@E@cimg_library@@QEBAAEBU12@QEBDI@Z 000000018007e864     cap.obj
 0004:00000870       $pdata$3$?save_imagemagick_external@?$CImg@E@cimg_library@@QEBAAEBU12@QEBDI@Z 000000018007e870     cap.obj
 0004:0000087c       $pdata$4$?save_imagemagick_external@?$CImg@E@cimg_library@@QEBAAEBU12@QEBDI@Z 000000018007e87c     cap.obj
 0004:00000888       $pdata$?save_graphicsmagick_external@?$CImg@E@cimg_library@@QEBAAEBU12@QEBDI@Z 000000018007e888     cap.obj
 0004:00000894       $pdata$1$?save_graphicsmagick_external@?$CImg@E@cimg_library@@QEBAAEBU12@QEBDI@Z 000000018007e894     cap.obj
 0004:000008a0       $pdata$2$?save_graphicsmagick_external@?$CImg@E@cimg_library@@QEBAAEBU12@QEBDI@Z 000000018007e8a0     cap.obj
 0004:000008ac       $pdata$3$?save_graphicsmagick_external@?$CImg@E@cimg_library@@QEBAAEBU12@QEBDI@Z 000000018007e8ac     cap.obj
 0004:000008b8       $pdata$4$?save_graphicsmagick_external@?$CImg@E@cimg_library@@QEBAAEBU12@QEBDI@Z 000000018007e8b8     cap.obj
 0004:000008c4       $pdata$?save_ffmpeg_external@?$CImg@E@cimg_library@@QEBAAEBU12@QEBD0II@Z 000000018007e8c4     cap.obj
 0004:000008d0       $pdata$?_save_raw@?$CImg@E@cimg_library@@QEBAAEBU12@QEAU_iobuf@@QEBD_N@Z 000000018007e8d0     cap.obj
 0004:000008dc       $pdata$0$?_save_raw@?$CImg@E@cimg_library@@QEBAAEBU12@QEAU_iobuf@@QEBD_N@Z 000000018007e8dc     cap.obj
 0004:000008e8       $pdata$2$?_save_raw@?$CImg@E@cimg_library@@QEBAAEBU12@QEAU_iobuf@@QEBD_N@Z 000000018007e8e8     cap.obj
 0004:000008f4       $pdata$3$?_save_raw@?$CImg@E@cimg_library@@QEBAAEBU12@QEAU_iobuf@@QEBD_N@Z 000000018007e8f4     cap.obj
 0004:00000900       $pdata$?_save_pandore@?$CImg@E@cimg_library@@QEBAAEBU12@QEAU_iobuf@@QEBDI@Z 000000018007e900     cap.obj
 0004:0000090c       $pdata$1$?_save_pandore@?$CImg@E@cimg_library@@QEBAAEBU12@QEAU_iobuf@@QEBDI@Z 000000018007e90c     cap.obj
 0004:00000918       $pdata$2$?_save_pandore@?$CImg@E@cimg_library@@QEBAAEBU12@QEAU_iobuf@@QEBDI@Z 000000018007e918     cap.obj
 0004:00000924       $pdata$3$?_save_pandore@?$CImg@E@cimg_library@@QEBAAEBU12@QEAU_iobuf@@QEBDI@Z 000000018007e924     cap.obj
 0004:00000930       $pdata$4$?_save_pandore@?$CImg@E@cimg_library@@QEBAAEBU12@QEAU_iobuf@@QEBDI@Z 000000018007e930     cap.obj
 0004:0000093c       $pdata$5$?_save_pandore@?$CImg@E@cimg_library@@QEBAAEBU12@QEAU_iobuf@@QEBDI@Z 000000018007e93c     cap.obj
 0004:00000948       $pdata$6$?_save_pandore@?$CImg@E@cimg_library@@QEBAAEBU12@QEAU_iobuf@@QEBDI@Z 000000018007e948     cap.obj
 0004:00000954       $pdata$7$?_save_pandore@?$CImg@E@cimg_library@@QEBAAEBU12@QEAU_iobuf@@QEBDI@Z 000000018007e954     cap.obj
 0004:00000960       $pdata$8$?_save_pandore@?$CImg@E@cimg_library@@QEBAAEBU12@QEAU_iobuf@@QEBDI@Z 000000018007e960     cap.obj
 0004:0000096c       $pdata$?_save_inr@?$CImg@E@cimg_library@@QEBAAEBU12@QEAU_iobuf@@QEBDQEBM@Z 000000018007e96c     cap.obj
 0004:00000978       $pdata$2$?_save_inr@?$CImg@E@cimg_library@@QEBAAEBU12@QEAU_iobuf@@QEBDQEBM@Z 000000018007e978     cap.obj
 0004:00000984       $pdata$4$?_save_inr@?$CImg@E@cimg_library@@QEBAAEBU12@QEAU_iobuf@@QEBDQEBM@Z 000000018007e984     cap.obj
 0004:00000990       $pdata$5$?_save_inr@?$CImg@E@cimg_library@@QEBAAEBU12@QEAU_iobuf@@QEBDQEBM@Z 000000018007e990     cap.obj
 0004:0000099c       $pdata$6$?_save_inr@?$CImg@E@cimg_library@@QEBAAEBU12@QEAU_iobuf@@QEBDQEBM@Z 000000018007e99c     cap.obj
 0004:000009a8       $pdata$7$?_save_inr@?$CImg@E@cimg_library@@QEBAAEBU12@QEAU_iobuf@@QEBDQEBM@Z 000000018007e9a8     cap.obj
 0004:000009b4       $pdata$8$?_save_inr@?$CImg@E@cimg_library@@QEBAAEBU12@QEAU_iobuf@@QEBDQEBM@Z 000000018007e9b4     cap.obj
 0004:000009c0       $pdata$9$?_save_inr@?$CImg@E@cimg_library@@QEBAAEBU12@QEAU_iobuf@@QEBDQEBM@Z 000000018007e9c0     cap.obj
 0004:000009cc       $pdata$?_save_rgba@?$CImg@E@cimg_library@@QEBAAEBU12@QEAU_iobuf@@QEBD@Z 000000018007e9cc     cap.obj
 0004:000009d8       $pdata$1$?_save_rgba@?$CImg@E@cimg_library@@QEBAAEBU12@QEAU_iobuf@@QEBD@Z 000000018007e9d8     cap.obj
 0004:000009e4       $pdata$2$?_save_rgba@?$CImg@E@cimg_library@@QEBAAEBU12@QEAU_iobuf@@QEBD@Z 000000018007e9e4     cap.obj
 0004:000009f0       $pdata$3$?_save_rgba@?$CImg@E@cimg_library@@QEBAAEBU12@QEAU_iobuf@@QEBD@Z 000000018007e9f0     cap.obj
 0004:000009fc       $pdata$4$?_save_rgba@?$CImg@E@cimg_library@@QEBAAEBU12@QEAU_iobuf@@QEBD@Z 000000018007e9fc     cap.obj
 0004:00000a08       $pdata$?_save_rgb@?$CImg@E@cimg_library@@QEBAAEBU12@QEAU_iobuf@@QEBD@Z 000000018007ea08     cap.obj
 0004:00000a14       $pdata$1$?_save_rgb@?$CImg@E@cimg_library@@QEBAAEBU12@QEAU_iobuf@@QEBD@Z 000000018007ea14     cap.obj
 0004:00000a20       $pdata$2$?_save_rgb@?$CImg@E@cimg_library@@QEBAAEBU12@QEAU_iobuf@@QEBD@Z 000000018007ea20     cap.obj
 0004:00000a2c       $pdata$3$?_save_rgb@?$CImg@E@cimg_library@@QEBAAEBU12@QEAU_iobuf@@QEBD@Z 000000018007ea2c     cap.obj
 0004:00000a38       $pdata$4$?_save_rgb@?$CImg@E@cimg_library@@QEBAAEBU12@QEAU_iobuf@@QEBD@Z 000000018007ea38     cap.obj
 0004:00000a44       $pdata$?_save_pfm@?$CImg@E@cimg_library@@QEBAAEBU12@QEAU_iobuf@@QEBD@Z 000000018007ea44     cap.obj
 0004:00000a50       $pdata$1$?_save_pfm@?$CImg@E@cimg_library@@QEBAAEBU12@QEAU_iobuf@@QEBD@Z 000000018007ea50     cap.obj
 0004:00000a5c       $pdata$2$?_save_pfm@?$CImg@E@cimg_library@@QEBAAEBU12@QEAU_iobuf@@QEBD@Z 000000018007ea5c     cap.obj
 0004:00000a68       $pdata$3$?_save_pfm@?$CImg@E@cimg_library@@QEBAAEBU12@QEAU_iobuf@@QEBD@Z 000000018007ea68     cap.obj
 0004:00000a74       $pdata$?_save_pnk@?$CImg@E@cimg_library@@QEBAAEBU12@QEAU_iobuf@@QEBD@Z 000000018007ea74     cap.obj
 0004:00000a80       $pdata$2$?_save_pnk@?$CImg@E@cimg_library@@QEBAAEBU12@QEAU_iobuf@@QEBD@Z 000000018007ea80     cap.obj
 0004:00000a8c       $pdata$4$?_save_pnk@?$CImg@E@cimg_library@@QEBAAEBU12@QEAU_iobuf@@QEBD@Z 000000018007ea8c     cap.obj
 0004:00000a98       $pdata$5$?_save_pnk@?$CImg@E@cimg_library@@QEBAAEBU12@QEAU_iobuf@@QEBD@Z 000000018007ea98     cap.obj
 0004:00000aa4       $pdata$6$?_save_pnk@?$CImg@E@cimg_library@@QEBAAEBU12@QEAU_iobuf@@QEBD@Z 000000018007eaa4     cap.obj
 0004:00000ab0       $pdata$7$?_save_pnk@?$CImg@E@cimg_library@@QEBAAEBU12@QEAU_iobuf@@QEBD@Z 000000018007eab0     cap.obj
 0004:00000abc       $pdata$9$?_save_pnk@?$CImg@E@cimg_library@@QEBAAEBU12@QEAU_iobuf@@QEBD@Z 000000018007eabc     cap.obj
 0004:00000ac8       $pdata$10$?_save_pnk@?$CImg@E@cimg_library@@QEBAAEBU12@QEAU_iobuf@@QEBD@Z 000000018007eac8     cap.obj
 0004:00000ad4       $pdata$?_save_pnm@?$CImg@E@cimg_library@@QEBAAEBU12@QEAU_iobuf@@QEBDI@Z 000000018007ead4     cap.obj
 0004:00000ae0       $pdata$3$?_save_pnm@?$CImg@E@cimg_library@@QEBAAEBU12@QEAU_iobuf@@QEBDI@Z 000000018007eae0     cap.obj
 0004:00000aec       $pdata$4$?_save_pnm@?$CImg@E@cimg_library@@QEBAAEBU12@QEAU_iobuf@@QEBDI@Z 000000018007eaec     cap.obj
 0004:00000af8       $pdata$5$?_save_pnm@?$CImg@E@cimg_library@@QEBAAEBU12@QEAU_iobuf@@QEBDI@Z 000000018007eaf8     cap.obj
 0004:00000b04       $pdata$?_save_png@?$CImg@E@cimg_library@@QEBAAEBU12@QEAU_iobuf@@QEBDI@Z 000000018007eb04     cap.obj
 0004:00000b10       $pdata$?save_magick@?$CImg@E@cimg_library@@QEBAAEBU12@QEBDI@Z 000000018007eb10     cap.obj
 0004:00000b1c       $pdata$?_save_bmp@?$CImg@E@cimg_library@@QEBAAEBU12@QEAU_iobuf@@QEBD@Z 000000018007eb1c     cap.obj
 0004:00000b28       $pdata$0$?_save_bmp@?$CImg@E@cimg_library@@QEBAAEBU12@QEAU_iobuf@@QEBD@Z 000000018007eb28     cap.obj
 0004:00000b34       $pdata$1$?_save_bmp@?$CImg@E@cimg_library@@QEBAAEBU12@QEAU_iobuf@@QEBD@Z 000000018007eb34     cap.obj
 0004:00000b40       $pdata$2$?_save_bmp@?$CImg@E@cimg_library@@QEBAAEBU12@QEAU_iobuf@@QEBD@Z 000000018007eb40     cap.obj
 0004:00000b4c       $pdata$?_save_dlm@?$CImg@E@cimg_library@@QEBAAEBU12@QEAU_iobuf@@QEBD@Z 000000018007eb4c     cap.obj
 0004:00000b58       $pdata$1$?_save_dlm@?$CImg@E@cimg_library@@QEBAAEBU12@QEAU_iobuf@@QEBD@Z 000000018007eb58     cap.obj
 0004:00000b64       $pdata$2$?_save_dlm@?$CImg@E@cimg_library@@QEBAAEBU12@QEAU_iobuf@@QEBD@Z 000000018007eb64     cap.obj
 0004:00000b70       $pdata$3$?_save_dlm@?$CImg@E@cimg_library@@QEBAAEBU12@QEAU_iobuf@@QEBD@Z 000000018007eb70     cap.obj
 0004:00000b7c       $pdata$4$?_save_dlm@?$CImg@E@cimg_library@@QEBAAEBU12@QEAU_iobuf@@QEBD@Z 000000018007eb7c     cap.obj
 0004:00000b88       $pdata$6$?_save_dlm@?$CImg@E@cimg_library@@QEBAAEBU12@QEAU_iobuf@@QEBD@Z 000000018007eb88     cap.obj
 0004:00000b94       $pdata$7$?_save_dlm@?$CImg@E@cimg_library@@QEBAAEBU12@QEAU_iobuf@@QEBD@Z 000000018007eb94     cap.obj
 0004:00000ba0       $pdata$?_save_cpp@?$CImg@E@cimg_library@@QEBAAEBU12@QEAU_iobuf@@QEBD@Z 000000018007eba0     cap.obj
 0004:00000bac       $pdata$1$?_save_cpp@?$CImg@E@cimg_library@@QEBAAEBU12@QEAU_iobuf@@QEBD@Z 000000018007ebac     cap.obj
 0004:00000bb8       $pdata$2$?_save_cpp@?$CImg@E@cimg_library@@QEBAAEBU12@QEAU_iobuf@@QEBD@Z 000000018007ebb8     cap.obj
 0004:00000bc4       $pdata$3$?_save_cpp@?$CImg@E@cimg_library@@QEBAAEBU12@QEAU_iobuf@@QEBD@Z 000000018007ebc4     cap.obj
 0004:00000bd0       $pdata$?_save_ascii@?$CImg@E@cimg_library@@QEBAAEBU12@QEAU_iobuf@@QEBD@Z 000000018007ebd0     cap.obj
 0004:00000bdc       $pdata$0$?_save_ascii@?$CImg@E@cimg_library@@QEBAAEBU12@QEAU_iobuf@@QEBD@Z 000000018007ebdc     cap.obj
 0004:00000be8       $pdata$2$?_save_ascii@?$CImg@E@cimg_library@@QEBAAEBU12@QEAU_iobuf@@QEBD@Z 000000018007ebe8     cap.obj
 0004:00000bf4       $pdata$5$?_save_ascii@?$CImg@E@cimg_library@@QEBAAEBU12@QEAU_iobuf@@QEBD@Z 000000018007ebf4     cap.obj
 0004:00000c00       $pdata$6$?_save_ascii@?$CImg@E@cimg_library@@QEBAAEBU12@QEAU_iobuf@@QEBD@Z 000000018007ec00     cap.obj
 0004:00000c0c       $pdata$7$?_save_ascii@?$CImg@E@cimg_library@@QEBAAEBU12@QEAU_iobuf@@QEBD@Z 000000018007ec0c     cap.obj
 0004:00000c18       $pdata$8$?_save_ascii@?$CImg@E@cimg_library@@QEBAAEBU12@QEAU_iobuf@@QEBD@Z 000000018007ec18     cap.obj
 0004:00000c24       $pdata$?draw_image@?$CImg@E@cimg_library@@QEAAAEAU12@HHHHAEBU12@M@Z 000000018007ec24     cap.obj
 0004:00000c30       $pdata$1$?draw_image@?$CImg@E@cimg_library@@QEAAAEAU12@HHHHAEBU12@M@Z 000000018007ec30     cap.obj
 0004:00000c3c       $pdata$3$?draw_image@?$CImg@E@cimg_library@@QEAAAEAU12@HHHHAEBU12@M@Z 000000018007ec3c     cap.obj
 0004:00000c48       $pdata$4$?draw_image@?$CImg@E@cimg_library@@QEAAAEAU12@HHHHAEBU12@M@Z 000000018007ec48     cap.obj
 0004:00000c54       $pdata$5$?draw_image@?$CImg@E@cimg_library@@QEAAAEAU12@HHHHAEBU12@M@Z 000000018007ec54     cap.obj
 0004:00000c60       $pdata$?deriche@?$CImg@E@cimg_library@@QEAAAEAU12@MHD_N@Z 000000018007ec60     cap.obj
 0004:00000c6c       $pdata$15$?deriche@?$CImg@E@cimg_library@@QEAAAEAU12@MHD_N@Z 000000018007ec6c     cap.obj
 0004:00000c78       $pdata$16$?deriche@?$CImg@E@cimg_library@@QEAAAEAU12@MHD_N@Z 000000018007ec78     cap.obj
 0004:00000c84       $pdata$?get_split@?$CImg@E@cimg_library@@QEBA?AU?$CImgList@E@2@DH@Z 000000018007ec84     cap.obj
 0004:00000c90       $pdata$2$?get_split@?$CImg@E@cimg_library@@QEBA?AU?$CImgList@E@2@DH@Z 000000018007ec90     cap.obj
 0004:00000c9c       $pdata$3$?get_split@?$CImg@E@cimg_library@@QEBA?AU?$CImgList@E@2@DH@Z 000000018007ec9c     cap.obj
 0004:00000ca8       $pdata$4$?get_split@?$CImg@E@cimg_library@@QEBA?AU?$CImgList@E@2@DH@Z 000000018007eca8     cap.obj
 0004:00000cb4       $pdata$5$?get_split@?$CImg@E@cimg_library@@QEBA?AU?$CImgList@E@2@DH@Z 000000018007ecb4     cap.obj
 0004:00000cc0       $pdata$?get_crop@?$CImg@E@cimg_library@@QEBA?AU12@HHHHHHHH_N@Z 000000018007ecc0     cap.obj
 0004:00000ccc       $pdata$3$?get_crop@?$CImg@E@cimg_library@@QEBA?AU12@HHHHHHHH_N@Z 000000018007eccc     cap.obj
 0004:00000cd8       $pdata$4$?get_crop@?$CImg@E@cimg_library@@QEBA?AU12@HHHHHHHH_N@Z 000000018007ecd8     cap.obj
 0004:00000ce4       $pdata$?_cimg_lanczos@?$CImg@M@cimg_library@@SAMM@Z 000000018007ece4     cap.obj
 0004:00000ce4       $pdata$?_cimg_lanczos@?$CImg@E@cimg_library@@SAMM@Z 000000018007ece4     cap.obj
 0004:00000cf0       $pdata$2$?_cimg_lanczos@?$CImg@E@cimg_library@@SAMM@Z 000000018007ecf0     cap.obj
 0004:00000cf0       $pdata$2$?_cimg_lanczos@?$CImg@M@cimg_library@@SAMM@Z 000000018007ecf0     cap.obj
 0004:00000cfc       $pdata$3$?_cimg_lanczos@?$CImg@M@cimg_library@@SAMM@Z 000000018007ecfc     cap.obj
 0004:00000cfc       $pdata$3$?_cimg_lanczos@?$CImg@E@cimg_library@@SAMM@Z 000000018007ecfc     cap.obj
 0004:00000d08       $pdata$?assign@?$CImg@E@cimg_library@@QEAAAEAU12@IIII@Z 000000018007ed08     cap.obj
 0004:00000d14       $pdata$??0?$CImg@K@cimg_library@@QEAA@IIII@Z 000000018007ed14     cap.obj
 0004:00000d20       $pdata$?erase@?$basic_string@DU?$char_traits@D@std@@V?$allocator@D@2@@std@@QEAAAEAV12@_K0@Z 000000018007ed20     cap.obj
 0004:00000d2c       $pdata$??0?$CImg@G@cimg_library@@QEAA@IIII@Z 000000018007ed2c     cap.obj
 0004:00000d38       $pdata$?move_to@?$CImg@D@cimg_library@@QEAAAEAU12@AEAU12@@Z 000000018007ed38     cap.obj
 0004:00000d44       $pdata$?assign@?$CImg@D@cimg_library@@QEAAAEAU12@IIII@Z 000000018007ed44     cap.obj
 0004:00000d50       $pdata$??0?$CImg@D@cimg_library@@QEAA@QEBDIIII_N@Z 000000018007ed50     cap.obj
 0004:00000d5c       $pdata$?save_ffmpeg_external@?$CImgList@E@cimg_library@@QEBAAEBU12@QEBD0II@Z 000000018007ed5c     cap.obj
 0004:00000d68       $pdata$3$?save_ffmpeg_external@?$CImgList@E@cimg_library@@QEBAAEBU12@QEBD0II@Z 000000018007ed68     cap.obj
 0004:00000d74       $pdata$4$?save_ffmpeg_external@?$CImgList@E@cimg_library@@QEBAAEBU12@QEBD0II@Z 000000018007ed74     cap.obj
 0004:00000d80       $pdata$5$?save_ffmpeg_external@?$CImgList@E@cimg_library@@QEBAAEBU12@QEBD0II@Z 000000018007ed80     cap.obj
 0004:00000d8c       $pdata$6$?save_ffmpeg_external@?$CImgList@E@cimg_library@@QEBAAEBU12@QEBD0II@Z 000000018007ed8c     cap.obj
 0004:00000d98       $pdata$7$?save_ffmpeg_external@?$CImgList@E@cimg_library@@QEBAAEBU12@QEBD0II@Z 000000018007ed98     cap.obj
 0004:00000da4       $pdata$8$?save_ffmpeg_external@?$CImgList@E@cimg_library@@QEBAAEBU12@QEBD0II@Z 000000018007eda4     cap.obj
 0004:00000db0       $pdata$9$?save_ffmpeg_external@?$CImgList@E@cimg_library@@QEBAAEBU12@QEBD0II@Z 000000018007edb0     cap.obj
 0004:00000dbc       $pdata$?_save_cimg@?$CImgList@E@cimg_library@@QEBAAEBU12@QEAU_iobuf@@QEBD_N@Z 000000018007edbc     cap.obj
 0004:00000dc8       $pdata$1$?_save_cimg@?$CImgList@E@cimg_library@@QEBAAEBU12@QEAU_iobuf@@QEBD_N@Z 000000018007edc8     cap.obj
 0004:00000dd4       $pdata$2$?_save_cimg@?$CImgList@E@cimg_library@@QEBAAEBU12@QEAU_iobuf@@QEBD_N@Z 000000018007edd4     cap.obj
 0004:00000de0       $pdata$3$?_save_cimg@?$CImgList@E@cimg_library@@QEBAAEBU12@QEAU_iobuf@@QEBD_N@Z 000000018007ede0     cap.obj
 0004:00000dec       $pdata$4$?_save_cimg@?$CImgList@E@cimg_library@@QEBAAEBU12@QEAU_iobuf@@QEBD_N@Z 000000018007edec     cap.obj
 0004:00000df8       $pdata$?_save_yuv@?$CImgList@E@cimg_library@@QEBAAEBU12@QEAU_iobuf@@QEBD_N@Z 000000018007edf8     cap.obj
 0004:00000e04       $pdata$2$?_save_yuv@?$CImgList@E@cimg_library@@QEBAAEBU12@QEAU_iobuf@@QEBD_N@Z 000000018007ee04     cap.obj
 0004:00000e10       $pdata$3$?_save_yuv@?$CImgList@E@cimg_library@@QEBAAEBU12@QEAU_iobuf@@QEBD_N@Z 000000018007ee10     cap.obj
 0004:00000e1c       $pdata$4$?_save_yuv@?$CImgList@E@cimg_library@@QEBAAEBU12@QEAU_iobuf@@QEBD_N@Z 000000018007ee1c     cap.obj
 0004:00000e28       $pdata$5$?_save_yuv@?$CImgList@E@cimg_library@@QEBAAEBU12@QEAU_iobuf@@QEBD_N@Z 000000018007ee28     cap.obj
 0004:00000e34       $pdata$?fill@?$CImg@M@cimg_library@@QEAAAEAU12@M@Z 000000018007ee34     cap.obj
 0004:00000e40       $pdata$?mirror@?$CImg@E@cimg_library@@QEAAAEAU12@D@Z 000000018007ee40     cap.obj
 0004:00000e4c       $pdata$4$?mirror@?$CImg@E@cimg_library@@QEAAAEAU12@D@Z 000000018007ee4c     cap.obj
 0004:00000e58       $pdata$5$?mirror@?$CImg@E@cimg_library@@QEAAAEAU12@D@Z 000000018007ee58     cap.obj
 0004:00000e64       $pdata$6$?mirror@?$CImg@E@cimg_library@@QEAAAEAU12@D@Z 000000018007ee64     cap.obj
 0004:00000e70       $pdata$7$?mirror@?$CImg@E@cimg_library@@QEAAAEAU12@D@Z 000000018007ee70     cap.obj
 0004:00000e7c       $pdata$?_Copy@?$basic_string@DU?$char_traits@D@std@@V?$allocator@D@2@@std@@QEAAX_K0@Z 000000018007ee7c     cap.obj
 0004:00000e88       $pdata$?get_append@?$CImgList@D@cimg_library@@QEBA?AU?$CImg@D@2@DM@Z 000000018007ee88     cap.obj
 0004:00000e94       $pdata$1$?get_append@?$CImgList@D@cimg_library@@QEBA?AU?$CImg@D@2@DM@Z 000000018007ee94     cap.obj
 0004:00000ea0       $pdata$2$?get_append@?$CImgList@D@cimg_library@@QEBA?AU?$CImg@D@2@DM@Z 000000018007eea0     cap.obj
 0004:00000eac       $pdata$5$?get_append@?$CImgList@D@cimg_library@@QEBA?AU?$CImg@D@2@DM@Z 000000018007eeac     cap.obj
 0004:00000eb8       $pdata$6$?get_append@?$CImgList@D@cimg_library@@QEBA?AU?$CImg@D@2@DM@Z 000000018007eeb8     cap.obj
 0004:00000ec4       $pdata$7$?get_append@?$CImgList@D@cimg_library@@QEBA?AU?$CImg@D@2@DM@Z 000000018007eec4     cap.obj
 0004:00000ed0       $pdata$8$?get_append@?$CImgList@D@cimg_library@@QEBA?AU?$CImg@D@2@DM@Z 000000018007eed0     cap.obj
 0004:00000edc       $pdata$?assign@?$CImgList@E@cimg_library@@QEAAAEAU12@I@Z 000000018007eedc     cap.obj
 0004:00000edc       $pdata$?assign@?$CImgList@M@cimg_library@@QEAAAEAU12@I@Z 000000018007eedc     cap.obj
 0004:00000ee8       $pdata$0$?assign@?$CImgList@M@cimg_library@@QEAAAEAU12@I@Z 000000018007eee8     cap.obj
 0004:00000ee8       $pdata$0$?assign@?$CImgList@E@cimg_library@@QEAAAEAU12@I@Z 000000018007eee8     cap.obj
 0004:00000ef4       $pdata$1$?assign@?$CImgList@E@cimg_library@@QEAAAEAU12@I@Z 000000018007eef4     cap.obj
 0004:00000ef4       $pdata$1$?assign@?$CImgList@M@cimg_library@@QEAAAEAU12@I@Z 000000018007eef4     cap.obj
 0004:00000f00       $pdata$?RGBtoYCbCr@?$CImg@E@cimg_library@@QEAAAEAU12@XZ 000000018007ef00     cap.obj
 0004:00000f0c       $pdata$9$?RGBtoYCbCr@?$CImg@E@cimg_library@@QEAAAEAU12@XZ 000000018007ef0c     cap.obj
 0004:00000f18       $pdata$10$?RGBtoYCbCr@?$CImg@E@cimg_library@@QEAAAEAU12@XZ 000000018007ef18     cap.obj
 0004:00000f24       $pdata$?draw_image@?$CImg@D@cimg_library@@QEAAAEAU12@HHHHAEBU12@M@Z 000000018007ef24     cap.obj
 0004:00000f30       $pdata$1$?draw_image@?$CImg@D@cimg_library@@QEAAAEAU12@HHHHAEBU12@M@Z 000000018007ef30     cap.obj
 0004:00000f3c       $pdata$3$?draw_image@?$CImg@D@cimg_library@@QEAAAEAU12@HHHHAEBU12@M@Z 000000018007ef3c     cap.obj
 0004:00000f48       $pdata$4$?draw_image@?$CImg@D@cimg_library@@QEAAAEAU12@HHHHAEBU12@M@Z 000000018007ef48     cap.obj
 0004:00000f54       $pdata$5$?draw_image@?$CImg@D@cimg_library@@QEAAAEAU12@HHHHAEBU12@M@Z 000000018007ef54     cap.obj
 0004:00000f60       $pdata$??0?$CImg@D@cimg_library@@QEAA@AEBU01@@Z 000000018007ef60     cap.obj
 0004:00000f6c       $pdata$??0?$CImg@D@cimg_library@@QEAA@AEBU01@_N@Z 000000018007ef6c     cap.obj
 0004:00000f78       $pdata$??$_render_resize@II@CImgDisplay@cimg_library@@SAXPEBIIIPEAIII@Z 000000018007ef78     cap.obj
 0004:00000f84       $pdata$??$dialog@E@cimg@cimg_library@@YAHQEBD0000000AEBU?$CImg@E@1@_N@Z 000000018007ef84     cap.obj
 0004:00000f90       $pdata$0$??$dialog@E@cimg@cimg_library@@YAHQEBD0000000AEBU?$CImg@E@1@_N@Z 000000018007ef90     cap.obj
 0004:00000f9c       $pdata$1$??$dialog@E@cimg@cimg_library@@YAHQEBD0000000AEBU?$CImg@E@1@_N@Z 000000018007ef9c     cap.obj
 0004:00000fa8       $pdata$??$draw_text@E@?$CImg@E@cimg_library@@QEAAAEAU01@HHQEBDQEBEHMIZZ 000000018007efa8     cap.obj
 0004:00000fb4       $pdata$0$??$draw_text@E@?$CImg@E@cimg_library@@QEAAAEAU01@HHQEBDQEBEHMIZZ 000000018007efb4     cap.obj
 0004:00000fc0       $pdata$1$??$draw_text@E@?$CImg@E@cimg_library@@QEAAAEAU01@HHQEBDQEBEHMIZZ 000000018007efc0     cap.obj
 0004:00000fcc       $pdata$??$draw_circle@E@?$CImg@E@cimg_library@@QEAAAEAU01@HHHQEBEMI@Z 000000018007efcc     cap.obj
 0004:00000fd8       $pdata$1$??$draw_circle@E@?$CImg@E@cimg_library@@QEAAAEAU01@HHHQEBEMI@Z 000000018007efd8     cap.obj
 0004:00000fe4       $pdata$2$??$draw_circle@E@?$CImg@E@cimg_library@@QEAAAEAU01@HHHQEBEMI@Z 000000018007efe4     cap.obj
 0004:00000ff0       $pdata$3$??$draw_circle@E@?$CImg@E@cimg_library@@QEAAAEAU01@HHHQEBEMI@Z 000000018007eff0     cap.obj
 0004:00000ffc       $pdata$4$??$draw_circle@E@?$CImg@E@cimg_library@@QEAAAEAU01@HHHQEBEMI@Z 000000018007effc     cap.obj
 0004:00001008       $pdata$5$??$draw_circle@E@?$CImg@E@cimg_library@@QEAAAEAU01@HHHQEBEMI@Z 000000018007f008     cap.obj
 0004:00001014       $pdata$6$??$draw_circle@E@?$CImg@E@cimg_library@@QEAAAEAU01@HHHQEBEMI@Z 000000018007f014     cap.obj
 0004:00001020       $pdata$??$draw_line@E@?$CImg@E@cimg_library@@QEAAAEAU01@HHHHQEBEMI_N@Z 000000018007f020     cap.obj
 0004:0000102c       $pdata$1$??$draw_line@E@?$CImg@E@cimg_library@@QEAAAEAU01@HHHHQEBEMI_N@Z 000000018007f02c     cap.obj
 0004:00001038       $pdata$2$??$draw_line@E@?$CImg@E@cimg_library@@QEAAAEAU01@HHHHQEBEMI_N@Z 000000018007f038     cap.obj
 0004:00001044       $pdata$??$?_5E@?$CImg@E@cimg_library@@QEAAAEAU01@AEBU01@@Z 000000018007f044     cap.obj
 0004:00001050       $pdata$0$??$?_5E@?$CImg@E@cimg_library@@QEAAAEAU01@AEBU01@@Z 000000018007f050     cap.obj
 0004:0000105c       $pdata$1$??$?_5E@?$CImg@E@cimg_library@@QEAAAEAU01@AEBU01@@Z 000000018007f05c     cap.obj
 0004:00001068       $pdata$??$max_min@E@?$CImg@E@cimg_library@@QEAAAEAEAEAE@Z 000000018007f068     cap.obj
 0004:00001074       $pdata$??$min_max@M@?$CImg@E@cimg_library@@QEAAAEAEAEAM@Z 000000018007f074     cap.obj
 0004:00001074       $pdata$??$min_max@M@?$CImg@E@cimg_library@@QEBAAEBEAEAM@Z 000000018007f074     cap.obj
 0004:00001080       $pdata$??$?0E@?$CImgList@E@cimg_library@@QEAA@AEBU?$CImg@E@1@_N@Z 000000018007f080     cap.obj
 0004:0000108c       $pdata$??$fwrite@D@cimg@cimg_library@@YAHPEBDKPEAU_iobuf@@@Z 000000018007f08c     cap.obj
 0004:00001098       $pdata$2$??$fwrite@D@cimg@cimg_library@@YAHPEBDKPEAU_iobuf@@@Z 000000018007f098     cap.obj
 0004:000010a4       $pdata$3$??$fwrite@D@cimg@cimg_library@@YAHPEBDKPEAU_iobuf@@@Z 000000018007f0a4     cap.obj
 0004:000010b0       $pdata$??$fwrite@E@cimg@cimg_library@@YAHPEBEKPEAU_iobuf@@@Z 000000018007f0b0     cap.obj
 0004:000010bc       $pdata$2$??$fwrite@E@cimg@cimg_library@@YAHPEBEKPEAU_iobuf@@@Z 000000018007f0bc     cap.obj
 0004:000010c8       $pdata$3$??$fwrite@E@cimg@cimg_library@@YAHPEBEKPEAU_iobuf@@@Z 000000018007f0c8     cap.obj
 0004:000010d4       $pdata$??$move_to@E@?$CImgList@E@cimg_library@@QEAAAEAU01@AEAU01@@Z 000000018007f0d4     cap.obj
 0004:000010e0       $pdata$0$??$move_to@E@?$CImgList@E@cimg_library@@QEAAAEAU01@AEAU01@@Z 000000018007f0e0     cap.obj
 0004:000010ec       $pdata$1$??$move_to@E@?$CImgList@E@cimg_library@@QEAAAEAU01@AEAU01@@Z 000000018007f0ec     cap.obj
 0004:000010f8       $pdata$??$fwrite@K@cimg@cimg_library@@YAHPEBKKPEAU_iobuf@@@Z 000000018007f0f8     cap.obj
 0004:00001104       $pdata$2$??$fwrite@K@cimg@cimg_library@@YAHPEBKKPEAU_iobuf@@@Z 000000018007f104     cap.obj
 0004:00001110       $pdata$3$??$fwrite@K@cimg@cimg_library@@YAHPEBKKPEAU_iobuf@@@Z 000000018007f110     cap.obj
 0004:0000111c       $pdata$??$fwrite@G@cimg@cimg_library@@YAHPEBGKPEAU_iobuf@@@Z 000000018007f11c     cap.obj
 0004:00001128       $pdata$2$??$fwrite@G@cimg@cimg_library@@YAHPEBGKPEAU_iobuf@@@Z 000000018007f128     cap.obj
 0004:00001134       $pdata$3$??$fwrite@G@cimg@cimg_library@@YAHPEBGKPEAU_iobuf@@@Z 000000018007f134     cap.obj
 0004:00001140       $pdata$??$fwrite@M@cimg@cimg_library@@YAHPEBMKPEAU_iobuf@@@Z 000000018007f140     cap.obj
 0004:0000114c       $pdata$2$??$fwrite@M@cimg@cimg_library@@YAHPEBMKPEAU_iobuf@@@Z 000000018007f14c     cap.obj
 0004:00001158       $pdata$3$??$fwrite@M@cimg@cimg_library@@YAHPEBMKPEAU_iobuf@@@Z 000000018007f158     cap.obj
 0004:00001164       $pdata$??$max_min@N@?$CImg@E@cimg_library@@QEBAAEBEAEAN@Z 000000018007f164     cap.obj
 0004:00001170       $pdata$??$move_to@E@?$CImg@E@cimg_library@@QEAAAEAU?$CImgList@E@1@AEAU21@I@Z 000000018007f170     cap.obj
 0004:0000117c       $pdata$?assign@?$CImg@D@cimg_library@@QEAAAEAU12@QEBDIIII_N@Z 000000018007f17c     cap.obj
 0004:00001188       $pdata$??0?$CImg@M@cimg_library@@QEAA@AEBU01@@Z 000000018007f188     cap.obj
 0004:00001194       $pdata$?assign@?$CImg@E@cimg_library@@QEAAAEAU12@QEBEIIII_N@Z 000000018007f194     cap.obj
 0004:000011a0       $pdata$?assign@?$CImg@E@cimg_library@@QEAAAEAU12@QEBEIIII@Z 000000018007f1a0     cap.obj
 0004:000011ac       $pdata$?insert@?$CImgList@D@cimg_library@@QEAAAEAU12@AEBU?$CImg@D@2@I_N@Z 000000018007f1ac     cap.obj
 0004:000011b8       $pdata$0$?insert@?$CImgList@D@cimg_library@@QEAAAEAU12@AEBU?$CImg@D@2@I_N@Z 000000018007f1b8     cap.obj
 0004:000011c4       $pdata$2$?insert@?$CImgList@D@cimg_library@@QEAAAEAU12@AEBU?$CImg@D@2@I_N@Z 000000018007f1c4     cap.obj
 0004:000011d0       $pdata$3$?insert@?$CImgList@D@cimg_library@@QEAAAEAU12@AEBU?$CImg@D@2@I_N@Z 000000018007f1d0     cap.obj
 0004:000011dc       $pdata$4$?insert@?$CImgList@D@cimg_library@@QEAAAEAU12@AEBU?$CImg@D@2@I_N@Z 000000018007f1dc     cap.obj
 0004:000011e8       $pdata$?insert@?$CImgList@E@cimg_library@@QEAAAEAU12@AEBU?$CImg@E@2@I_N@Z 000000018007f1e8     cap.obj
 0004:000011f4       $pdata$0$?insert@?$CImgList@E@cimg_library@@QEAAAEAU12@AEBU?$CImg@E@2@I_N@Z 000000018007f1f4     cap.obj
 0004:00001200       $pdata$2$?insert@?$CImgList@E@cimg_library@@QEAAAEAU12@AEBU?$CImg@E@2@I_N@Z 000000018007f200     cap.obj
 0004:0000120c       $pdata$3$?insert@?$CImgList@E@cimg_library@@QEAAAEAU12@AEBU?$CImg@E@2@I_N@Z 000000018007f20c     cap.obj
 0004:00001218       $pdata$4$?insert@?$CImgList@E@cimg_library@@QEAAAEAU12@AEBU?$CImg@E@2@I_N@Z 000000018007f218     cap.obj
 0004:00001224       $pdata$?get_crop@?$CImg@M@cimg_library@@QEBA?AU12@HHHHHHHH_N@Z 000000018007f224     cap.obj
 0004:00001230       $pdata$3$?get_crop@?$CImg@M@cimg_library@@QEBA?AU12@HHHHHHHH_N@Z 000000018007f230     cap.obj
 0004:0000123c       $pdata$4$?get_crop@?$CImg@M@cimg_library@@QEBA?AU12@HHHHHHHH_N@Z 000000018007f23c     cap.obj
 0004:00001248       $pdata$??0?$CImg@M@cimg_library@@QEAA@AEBU01@_N@Z 000000018007f248     cap.obj
 0004:00001254       $pdata$?draw_image@?$CImg@M@cimg_library@@QEAAAEAU12@HHHHAEBU12@M@Z 000000018007f254     cap.obj
 0004:00001260       $pdata$1$?draw_image@?$CImg@M@cimg_library@@QEAAAEAU12@HHHHAEBU12@M@Z 000000018007f260     cap.obj
 0004:0000126c       $pdata$2$?draw_image@?$CImg@M@cimg_library@@QEAAAEAU12@HHHHAEBU12@M@Z 000000018007f26c     cap.obj
 0004:00001278       $pdata$7$?draw_image@?$CImg@M@cimg_library@@QEAAAEAU12@HHHHAEBU12@M@Z 000000018007f278     cap.obj
 0004:00001284       $pdata$8$?draw_image@?$CImg@M@cimg_library@@QEAAAEAU12@HHHHAEBU12@M@Z 000000018007f284     cap.obj
 0004:00001290       $pdata$??$draw_text@EE@?$CImg@E@cimg_library@@QEAAAEAU01@HHQEBDQEBE1MIZZ 000000018007f290     cap.obj
 0004:0000129c       $pdata$4$??$draw_text@EE@?$CImg@E@cimg_library@@QEAAAEAU01@HHQEBDQEBE1MIZZ 000000018007f29c     cap.obj
 0004:000012a8       $pdata$5$??$draw_text@EE@?$CImg@E@cimg_library@@QEAAAEAU01@HHQEBDQEBE1MIZZ 000000018007f2a8     cap.obj
 0004:000012b4       $pdata$6$??$draw_text@EE@?$CImg@E@cimg_library@@QEAAAEAU01@HHQEBDQEBE1MIZZ 000000018007f2b4     cap.obj
 0004:000012c0       $pdata$??$?ZE@?$CImg@E@cimg_library@@QEAAAEAU01@AEBU01@@Z 000000018007f2c0     cap.obj
 0004:000012cc       $pdata$0$??$?ZE@?$CImg@E@cimg_library@@QEAAAEAU01@AEBU01@@Z 000000018007f2cc     cap.obj
 0004:000012d8       $pdata$1$??$?ZE@?$CImg@E@cimg_library@@QEAAAEAU01@AEBU01@@Z 000000018007f2d8     cap.obj
 0004:000012e4       $pdata$??$display@E@CImgDisplay@cimg_library@@QEAAAEAU01@AEBU?$CImg@E@1@@Z 000000018007f2e4     cap.obj
 0004:000012f0       $pdata$?font@?$CImgList@M@cimg_library@@SAAEBU12@I_N@Z 000000018007f2f0     cap.obj
 0004:000012fc       $pdata$1$?font@?$CImgList@M@cimg_library@@SAAEBU12@I_N@Z 000000018007f2fc     cap.obj
 0004:00001308       $pdata$2$?font@?$CImgList@M@cimg_library@@SAAEBU12@I_N@Z 000000018007f308     cap.obj
 0004:00001314       $pdata$?resize@?$CImg@M@cimg_library@@QEAAAEAU12@HHHHHIMMMM@Z 000000018007f314     cap.obj
 0004:00001320       $pdata$0$?resize@?$CImg@M@cimg_library@@QEAAAEAU12@HHHHHIMMMM@Z 000000018007f320     cap.obj
 0004:0000132c       $pdata$1$?resize@?$CImg@M@cimg_library@@QEAAAEAU12@HHHHHIMMMM@Z 000000018007f32c     cap.obj
 0004:00001338       $pdata$2$?resize@?$CImg@M@cimg_library@@QEAAAEAU12@HHHHHIMMMM@Z 000000018007f338     cap.obj
 0004:00001344       $pdata$4$?resize@?$CImg@M@cimg_library@@QEAAAEAU12@HHHHHIMMMM@Z 000000018007f344     cap.obj
 0004:00001350       $pdata$5$?resize@?$CImg@M@cimg_library@@QEAAAEAU12@HHHHHIMMMM@Z 000000018007f350     cap.obj
 0004:0000135c       $pdata$6$?resize@?$CImg@M@cimg_library@@QEAAAEAU12@HHHHHIMMMM@Z 000000018007f35c     cap.obj
 0004:00001368       $pdata$?assign@?$CImg@M@cimg_library@@QEAAAEAU12@QEBMIIII_N@Z 000000018007f368     cap.obj
 0004:00001374       $pdata$?assign@?$CImg@M@cimg_library@@QEAAAEAU12@IIII@Z 000000018007f374     cap.obj
 0004:00001380       $pdata$?_font@?$CImgList@M@cimg_library@@SA?AU12@QEBIII_N@Z 000000018007f380     cap.obj
 0004:0000138c       $pdata$?empty@?$CImgList@M@cimg_library@@SAAEAU12@XZ 000000018007f38c     cap.obj
 0004:00001398       $pdata$?assign@?$CImgList@M@cimg_library@@QEAAAEAU12@AEBU12@_N@Z 000000018007f398     cap.obj
 0004:000013a4       $pdata$?get_resize@?$CImg@M@cimg_library@@QEBA?AU12@HHHHHIMMMM@Z 000000018007f3a4     cap.obj
 0004:000013b0       $pdata$0$?get_resize@?$CImg@M@cimg_library@@QEBA?AU12@HHHHHIMMMM@Z 000000018007f3b0     cap.obj
 0004:000013bc       $pdata$3$?get_resize@?$CImg@M@cimg_library@@QEBA?AU12@HHHHHIMMMM@Z 000000018007f3bc     cap.obj
 0004:000013c8       $pdata$4$?get_resize@?$CImg@M@cimg_library@@QEBA?AU12@HHHHHIMMMM@Z 000000018007f3c8     cap.obj
 0004:000013d4       $pdata$5$?get_resize@?$CImg@M@cimg_library@@QEBA?AU12@HHHHHIMMMM@Z 000000018007f3d4     cap.obj
 0004:000013e0       $pdata$6$?get_resize@?$CImg@M@cimg_library@@QEBA?AU12@HHHHHIMMMM@Z 000000018007f3e0     cap.obj
 0004:000013ec       $pdata$7$?get_resize@?$CImg@M@cimg_library@@QEBA?AU12@HHHHHIMMMM@Z 000000018007f3ec     cap.obj
 0004:000013f8       $pdata$8$?get_resize@?$CImg@M@cimg_library@@QEBA?AU12@HHHHHIMMMM@Z 000000018007f3f8     cap.obj
 0004:00001404       $pdata$9$?get_resize@?$CImg@M@cimg_library@@QEBA?AU12@HHHHHIMMMM@Z 000000018007f404     cap.obj
 0004:00001410       $pdata$10$?get_resize@?$CImg@M@cimg_library@@QEBA?AU12@HHHHHIMMMM@Z 000000018007f410     cap.obj
 0004:0000141c       $pdata$11$?get_resize@?$CImg@M@cimg_library@@QEBA?AU12@HHHHHIMMMM@Z 000000018007f41c     cap.obj
 0004:00001428       $pdata$?move_to@?$CImg@M@cimg_library@@QEAAAEAU12@AEAU12@@Z 000000018007f428     cap.obj
 0004:00001434       $pdata$?assign@?$CImg@M@cimg_library@@QEAAAEAU12@QEBMIIII@Z 000000018007f434     cap.obj
 0004:00001440       $pdata$?get_crop_font@?$CImgList@M@cimg_library@@QEBA?AU12@XZ 000000018007f440     cap.obj
 0004:0000144c       $pdata$0$?get_crop_font@?$CImgList@M@cimg_library@@QEBA?AU12@XZ 000000018007f44c     cap.obj
 0004:00001458       $pdata$4$?get_crop_font@?$CImgList@M@cimg_library@@QEBA?AU12@XZ 000000018007f458     cap.obj
 0004:00001464       $pdata$5$?get_crop_font@?$CImgList@M@cimg_library@@QEBA?AU12@XZ 000000018007f464     cap.obj
 0004:00001470       $pdata$6$?get_crop_font@?$CImgList@M@cimg_library@@QEBA?AU12@XZ 000000018007f470     cap.obj
 0004:0000147c       $pdata$??$_draw_text@EEM@?$CImg@E@cimg_library@@QEAAAEAU01@HHQEBDQEBE1MAEBU?$CImgList@M@1@@Z 000000018007f47c     cap.obj
 0004:00001488       $pdata$3$??$_draw_text@EEM@?$CImg@E@cimg_library@@QEAAAEAU01@HHQEBDQEBE1MAEBU?$CImgList@M@1@@Z 000000018007f488     cap.obj
 0004:00001494       $pdata$6$??$_draw_text@EEM@?$CImg@E@cimg_library@@QEAAAEAU01@HHQEBDQEBE1MAEBU?$CImgList@M@1@@Z 000000018007f494     cap.obj
 0004:000014a0       $pdata$7$??$_draw_text@EEM@?$CImg@E@cimg_library@@QEAAAEAU01@HHQEBDQEBE1MAEBU?$CImgList@M@1@@Z 000000018007f4a0     cap.obj
 0004:000014ac       $pdata$8$??$_draw_text@EEM@?$CImg@E@cimg_library@@QEAAAEAU01@HHQEBDQEBE1MAEBU?$CImgList@M@1@@Z 000000018007f4ac     cap.obj
 0004:000014b8       $pdata$??$draw_rectangle@E@?$CImg@E@cimg_library@@QEAAAEAU01@HHHHHHQEBEM@Z 000000018007f4b8     cap.obj
 0004:000014c4       $pdata$1$??$draw_rectangle@E@?$CImg@E@cimg_library@@QEAAAEAU01@HHHHHHQEBEM@Z 000000018007f4c4     cap.obj
 0004:000014d0       $pdata$5$??$draw_rectangle@E@?$CImg@E@cimg_library@@QEAAAEAU01@HHHHHHQEBEM@Z 000000018007f4d0     cap.obj
 0004:000014dc       $pdata$6$??$draw_rectangle@E@?$CImg@E@cimg_library@@QEAAAEAU01@HHHHHHQEBEM@Z 000000018007f4dc     cap.obj
 0004:000014e8       $pdata$7$??$draw_rectangle@E@?$CImg@E@cimg_library@@QEAAAEAU01@HHHHHHQEBEM@Z 000000018007f4e8     cap.obj
 0004:000014f4       $pdata$8$??$draw_rectangle@E@?$CImg@E@cimg_library@@QEAAAEAU01@HHHHHHQEBEM@Z 000000018007f4f4     cap.obj
 0004:00001500       $pdata$??$assign@E@CImgDisplay@cimg_library@@QEAAAEAU01@AEBU?$CImg@E@1@QEBDI_N2@Z 000000018007f500     cap.obj
 0004:0000150c       $pdata$??$draw_point@E@?$CImg@E@cimg_library@@QEAAAEAU01@HHHQEBEM@Z 000000018007f50c     cap.obj
 0004:00001518       $pdata$??$assign@M@?$CImg@E@cimg_library@@QEAAAEAU01@QEBMIIII@Z 000000018007f518     cap.obj
 0004:00001524       $pdata$??$render@E@CImgDisplay@cimg_library@@QEAAAEAU01@AEBU?$CImg@E@1@@Z 000000018007f524     cap.obj
 0004:00001530       $pdata$1$??$render@E@CImgDisplay@cimg_library@@QEAAAEAU01@AEBU?$CImg@E@1@@Z 000000018007f530     cap.obj
 0004:0000153c       $pdata$2$??$render@E@CImgDisplay@cimg_library@@QEAAAEAU01@AEBU?$CImg@E@1@@Z 000000018007f53c     cap.obj
 0004:00001548       $pdata$??$insert@M@?$CImgList@M@cimg_library@@QEAAAEAU01@AEBU01@I_N@Z 000000018007f548     cap.obj
 0004:00001554       $pdata$??$move_to@M@?$CImgList@M@cimg_library@@QEAAAEAU01@AEAU01@@Z 000000018007f554     cap.obj
 0004:00001560       $pdata$0$??$move_to@M@?$CImgList@M@cimg_library@@QEAAAEAU01@AEAU01@@Z 000000018007f560     cap.obj
 0004:0000156c       $pdata$1$??$move_to@M@?$CImgList@M@cimg_library@@QEAAAEAU01@AEAU01@@Z 000000018007f56c     cap.obj
 0004:00001578       $pdata$?insert@?$CImgList@M@cimg_library@@QEAAAEAU12@AEBU?$CImg@M@2@I_N@Z 000000018007f578     cap.obj
 0004:00001584       $pdata$0$?insert@?$CImgList@M@cimg_library@@QEAAAEAU12@AEBU?$CImg@M@2@I_N@Z 000000018007f584     cap.obj
 0004:00001590       $pdata$2$?insert@?$CImgList@M@cimg_library@@QEAAAEAU12@AEBU?$CImg@M@2@I_N@Z 000000018007f590     cap.obj
 0004:0000159c       $pdata$3$?insert@?$CImgList@M@cimg_library@@QEAAAEAU12@AEBU?$CImg@M@2@I_N@Z 000000018007f59c     cap.obj
 0004:000015a8       $pdata$4$?insert@?$CImgList@M@cimg_library@@QEAAAEAU12@AEBU?$CImg@M@2@I_N@Z 000000018007f5a8     cap.obj
 0004:000015b4       $pdata$?draw_rectangle@?$CImg@E@cimg_library@@QEAAAEAU12@HHHHHHHHEM@Z 000000018007f5b4     cap.obj
 0004:000015c0       $pdata$7$?draw_rectangle@?$CImg@E@cimg_library@@QEAAAEAU12@HHHHHHHHEM@Z 000000018007f5c0     cap.obj
 0004:000015cc       $pdata$8$?draw_rectangle@?$CImg@E@cimg_library@@QEAAAEAU12@HHHHHHHHEM@Z 000000018007f5cc     cap.obj
 0004:000015d8       $pdata$?get_projections2d@?$CImg@E@cimg_library@@QEBA?AU12@III@Z 000000018007f5d8     cap.obj
 0004:000015e4       $pdata$2$?get_projections2d@?$CImg@E@cimg_library@@QEBA?AU12@III@Z 000000018007f5e4     cap.obj
 0004:000015f0       $pdata$3$?get_projections2d@?$CImg@E@cimg_library@@QEBA?AU12@III@Z 000000018007f5f0     cap.obj
 0004:000015fc       $pdata$?get_shared_channels@?$CImg@E@cimg_library@@QEAA?AU12@II@Z 000000018007f5fc     cap.obj
 0004:00001608       $pdata$?min@?$CImg@E@cimg_library@@QEBAAEBEXZ 000000018007f608     cap.obj
 0004:00001614       $pdata$??$_get_permute_axes@E@?$CImg@E@cimg_library@@QEBA?AU01@QEBDAEBE@Z 000000018007f614     cap.obj
 0004:00001620       $pdata$??$draw_image@MM@?$CImg@E@cimg_library@@QEAAAEAU01@HHHHAEBU?$CImg@M@1@0MM@Z 000000018007f620     cap.obj
 0004:0000162c       $pdata$??$draw_image@M@?$CImg@E@cimg_library@@QEAAAEAU01@HHHHAEBU?$CImg@M@1@M@Z 000000018007f62c     cap.obj
 0004:00001638       $pdata$??$assign@M@?$CImg@E@cimg_library@@QEAAAEAU01@QEBMIIII_N@Z 000000018007f638     cap.obj
 0004:00001644       $pdata$?load_exe_hook@@YAP6A_JXZIPEAUDelayLoadInfo@@@Z 000000018007f644     win_delay_load_hook.obj
 0004:0000165c       $pdata$??0bad_alloc@std@@QEAA@AEBV01@@Z 000000018007f65c     libcpmt:xthrow.obj
 0004:00001668       $pdata$??0exception@std@@QEAA@AEBV01@@Z 000000018007f668     libcpmt:xthrow.obj
 0004:00001674       $pdata$??0length_error@std@@QEAA@AEBV01@@Z 000000018007f674     libcpmt:xthrow.obj
 0004:00001680       $pdata$??0length_error@std@@QEAA@PEBD@Z 000000018007f680     libcpmt:xthrow.obj
 0004:0000168c       $pdata$??0logic_error@std@@QEAA@AEBV01@@Z 000000018007f68c     libcpmt:xthrow.obj
 0004:00001698       $pdata$??0out_of_range@std@@QEAA@AEBV01@@Z 000000018007f698     libcpmt:xthrow.obj
 0004:000016a4       $pdata$??0out_of_range@std@@QEAA@PEBD@Z 000000018007f6a4     libcpmt:xthrow.obj
 0004:000016b0       $pdata$??_Gout_of_range@std@@UEAAPEAXI@Z 000000018007f6b0     libcpmt:xthrow.obj
 0004:000016b0       $pdata$??_Gbad_alloc@std@@UEAAPEAXI@Z 000000018007f6b0     libcpmt:xthrow.obj
 0004:000016b0       $pdata$??_Glogic_error@std@@UEAAPEAXI@Z 000000018007f6b0     libcpmt:xthrow.obj
 0004:000016b0       $pdata$??_Gexception@std@@UEAAPEAXI@Z 000000018007f6b0     libcpmt:xthrow.obj
 0004:000016b0       $pdata$??_Gbad_array_new_length@std@@UEAAPEAXI@Z 000000018007f6b0     LIBCMT:throw_bad_alloc.obj
 0004:000016b0       $pdata$??_Gbad_exception@std@@UEAAPEAXI@Z 000000018007f6b0     libvcruntime:frame.obj
 0004:000016b0       $pdata$??_Glength_error@std@@UEAAPEAXI@Z 000000018007f6b0     libcpmt:xthrow.obj
 0004:000016bc       $pdata$?_Xlength_error@std@@YAXPEBD@Z 000000018007f6bc     libcpmt:xthrow.obj
 0004:000016c8       $pdata$?_Xout_of_range@std@@YAXPEBD@Z 000000018007f6c8     libcpmt:xthrow.obj
 0004:000016e0       $pdata$?__scrt_initialize_thread_safe_statics@@YAHXZ 000000018007f6e0     LIBCMT:thread_safe_statics.obj
 0004:000016ec       $pdata$?__scrt_uninitialize_thread_safe_statics@@YAXXZ 000000018007f6ec     LIBCMT:thread_safe_statics.obj
 0004:000016f8       $pdata$_Init_thread_footer 000000018007f6f8     LIBCMT:thread_safe_statics.obj
 0004:00001704       $pdata$_Init_thread_header 000000018007f704     LIBCMT:thread_safe_statics.obj
 0004:00001710       $pdata$_Init_thread_notify 000000018007f710     LIBCMT:thread_safe_statics.obj
 0004:0000171c       $pdata$_Init_thread_wait   000000018007f71c     LIBCMT:thread_safe_statics.obj
 0004:00001728       $pdata$__raise_securityfailure 000000018007f728     LIBCMT:gs_report.obj
 0004:00001734       $pdata$__report_gsfailure  000000018007f734     LIBCMT:gs_report.obj
 0004:00001740       $pdata$__report_rangecheckfailure 000000018007f740     LIBCMT:gs_report.obj
 0004:0000174c       $pdata$__report_securityfailure 000000018007f74c     LIBCMT:gs_report.obj
 0004:00001758       $pdata$capture_current_context 000000018007f758     LIBCMT:gs_report.obj
 0004:00001764       $pdata$capture_previous_context 000000018007f764     LIBCMT:gs_report.obj
 0004:00001770       $pdata$??2@YAPEAX_K@Z      000000018007f770     LIBCMT:new_scalar.obj
 0004:0000177c       $pdata$__scrt_acquire_startup_lock 000000018007f77c     LIBCMT:utility.obj
 0004:00001788       $pdata$__scrt_dllmain_after_initialize_c 000000018007f788     LIBCMT:utility.obj
 0004:00001794       $pdata$__scrt_dllmain_before_initialize_c 000000018007f794     LIBCMT:utility.obj
 0004:000017a0       $pdata$__scrt_dllmain_crt_thread_attach 000000018007f7a0     LIBCMT:utility.obj
 0004:000017ac       $pdata$__scrt_dllmain_crt_thread_detach 000000018007f7ac     LIBCMT:utility.obj
 0004:000017b8       $pdata$__scrt_dllmain_exception_filter 000000018007f7b8     LIBCMT:utility.obj
 0004:000017c4       $pdata$__scrt_dllmain_uninitialize_c 000000018007f7c4     LIBCMT:utility.obj
 0004:000017d0       $pdata$__scrt_dllmain_uninitialize_critical 000000018007f7d0     LIBCMT:utility.obj
 0004:000017dc       $pdata$__scrt_initialize_crt 000000018007f7dc     LIBCMT:utility.obj
 0004:000017e8       $pdata$__scrt_initialize_onexit_tables 000000018007f7e8     LIBCMT:utility.obj
 0004:000017f4       $pdata$__scrt_is_nonwritable_in_current_image 000000018007f7f4     LIBCMT:utility.obj
 0004:00001800       $pdata$__scrt_release_startup_lock 000000018007f800     LIBCMT:utility.obj
 0004:0000180c       $pdata$__scrt_uninitialize_crt 000000018007f80c     LIBCMT:utility.obj
 0004:00001818       $pdata$_onexit             000000018007f818     LIBCMT:utility.obj
 0004:00001824       $pdata$atexit              000000018007f824     LIBCMT:utility.obj
 0004:00001830       $pdata$??_Gtype_info@@UEAAPEAXI@Z 000000018007f830     LIBCMT:std_type_info_static.obj
 0004:0000183c       $pdata$?dllmain_crt_dispatch@@YAHQEAUHINSTANCE__@@KQEAX@Z 000000018007f83c     LIBCMT:dll_dllmain.obj
 0004:00001848       $pdata$?dllmain_crt_process_attach@@YAHQEAUHINSTANCE__@@QEAX@Z 000000018007f848     LIBCMT:dll_dllmain.obj
 0004:00001854       $pdata$?dllmain_crt_process_detach@@YAH_N@Z 000000018007f854     LIBCMT:dll_dllmain.obj
 0004:00001860       $pdata$?dllmain_dispatch@@YAHQEAUHINSTANCE__@@KQEAX@Z 000000018007f860     LIBCMT:dll_dllmain.obj
 0004:0000186c       $pdata$?dllmain_raw@@YAHQEAUHINSTANCE__@@KQEAX@Z 000000018007f86c     LIBCMT:dll_dllmain.obj
 0004:00001878       $pdata$_DllMainCRTStartup  000000018007f878     LIBCMT:dll_dllmain.obj
 0004:00001884       $pdata$__scrt_fastfail     000000018007f884     LIBCMT:utility_desktop.obj
 0004:00001890       $pdata$??0bad_array_new_length@std@@QEAA@AEBV01@@Z 000000018007f890     LIBCMT:throw_bad_alloc.obj
 0004:0000189c       $pdata$?__scrt_throw_std_bad_alloc@@YAXXZ 000000018007f89c     LIBCMT:throw_bad_alloc.obj
 0004:0000189c       $pdata$?_Xbad_alloc@std@@YAXXZ 000000018007f89c     libcpmt:xthrow.obj
 0004:000018a8       $pdata$?__scrt_throw_std_bad_array_new_length@@YAXXZ 000000018007f8a8     LIBCMT:throw_bad_alloc.obj
 0004:000018b4       $pdata$__isa_available_init 000000018007f8b4     LIBCMT:_cpu_disp_.obj
 0004:000018c0       $pdata$__security_init_cookie 000000018007f8c0     LIBCMT:gs_support.obj
 0004:000018cc       $pdata$__scrt_initialize_default_local_stdio_options 000000018007f8cc     LIBCMT:default_local_stdio_options.obj
 0004:000018d8       $pdata$_RTC_Initialize     000000018007f8d8     LIBCMT:_initsect_.obj
 0004:000018e4       $pdata$_RTC_Terminate      000000018007f8e4     LIBCMT:_initsect_.obj
 0004:000018fc       $pdata$strstr              000000018007f8fc     libvcruntime:strstr.obj
 0004:00001908       $pdata$strchr              000000018007f908     libvcruntime:strchr.obj
 0004:00001914       $pdata$__std_exception_copy 000000018007f914     libvcruntime:std_exception.obj
 0004:00001920       $pdata$__std_exception_destroy 000000018007f920     libvcruntime:std_exception.obj
 0004:0000192c       $pdata$_CxxThrowException  000000018007f92c     libvcruntime:throw.obj
 0004:00001938       $pdata$?try_get_function@@YAPEAXW4function_id@?A0x679b24ab@@QEBDQEBW4module_id@2@2@Z 000000018007f938     libvcruntime:winapi_downlevel.obj
 0004:00001944       $pdata$__vcrt_FlsAlloc     000000018007f944     libvcruntime:winapi_downlevel.obj
 0004:00001950       $pdata$__vcrt_FlsFree      000000018007f950     libvcruntime:winapi_downlevel.obj
 0004:0000195c       $pdata$__vcrt_FlsGetValue  000000018007f95c     libvcruntime:winapi_downlevel.obj
 0004:00001968       $pdata$__vcrt_FlsSetValue  000000018007f968     libvcruntime:winapi_downlevel.obj
 0004:00001974       $pdata$__vcrt_InitializeCriticalSectionEx 000000018007f974     libvcruntime:winapi_downlevel.obj
 0004:00001980       $pdata$__vcrt_uninitialize_winapi_thunks 000000018007f980     libvcruntime:winapi_downlevel.obj
 0004:0000198c       $pdata$__vcrt_initialize   000000018007f98c     libvcruntime:initialization.obj
 0004:00001998       $pdata$__vcrt_thread_attach 000000018007f998     libvcruntime:initialization.obj
 0004:000019a4       $pdata$__vcrt_thread_detach 000000018007f9a4     libvcruntime:initialization.obj
 0004:000019b0       $pdata$__vcrt_uninitialize 000000018007f9b0     libvcruntime:initialization.obj
 0004:000019bc       $pdata$__vcrt_uninitialize_critical 000000018007f9bc     libvcruntime:initialization.obj
 0004:000019c8       $pdata$__C_specific_handler 000000018007f9c8     libvcruntime:_chandler_.obj
 0004:000019e0       $pdata$__std_type_info_destroy_list 000000018007f9e0     libvcruntime:std_type_info.obj
 0004:000019ec       $pdata$__vcrt_freefls      000000018007f9ec     libvcruntime:per_thread_data.obj
 0004:000019f8       $pdata$__vcrt_freeptd      000000018007f9f8     libvcruntime:per_thread_data.obj
 0004:00001a04       $pdata$__vcrt_getptd       000000018007fa04     libvcruntime:per_thread_data.obj
 0004:00001a10       $pdata$__vcrt_getptd_noexit 000000018007fa10     libvcruntime:per_thread_data.obj
 0004:00001a1c       $pdata$__vcrt_initialize_ptd 000000018007fa1c     libvcruntime:per_thread_data.obj
 0004:00001a28       $pdata$__vcrt_uninitialize_ptd 000000018007fa28     libvcruntime:per_thread_data.obj
 0004:00001a34       $pdata$__vcrt_initialize_locks 000000018007fa34     libvcruntime:locks.obj
 0004:00001a40       $pdata$__vcrt_uninitialize_locks 000000018007fa40     libvcruntime:locks.obj
 0004:00001a7c       $pdata$fputc               000000018007fa7c     libucrt:fputc.obj
 0004:00001a88       $pdata$rand                000000018007fa88     libucrt:rand.obj
 0004:00001a94       $pdata$srand               000000018007fa94     libucrt:rand.obj
 0004:00001aa0       $pdata$??$common_fsopen@D@@YAPEAU_iobuf@@QEBD0H@Z 000000018007faa0     libucrt:fopen.obj
 0004:00001aac       $pdata$__acrt_initialize_stdio 000000018007faac     libucrt:_file.obj
 0004:00001ab8       $pdata$__acrt_uninitialize_stdio 000000018007fab8     libucrt:_file.obj
 0004:00001ac4       $pdata$_fclose_nolock      000000018007fac4     libucrt:fclose.obj
 0004:00001ad0       $pdata$fclose              000000018007fad0     libucrt:fclose.obj
 0004:00001adc       $pdata$remove              000000018007fadc     libucrt:unlink.obj
 0004:00001ae8       $pdata$??$?RV<lambda_aa279a7bcb127014629d5b1d62c7325d>@@AEAV<lambda_0a64b6a4deda75c01876f29c44fc5eb3>@@V<lambda_3323e69fbefe9d1a11713e670d47cdfa>@@@?$__crt_seh_guarded_call@H@@QEAAH$$QEAV<lambda_aa279a7bcb127014629d5b1d62c7325d>@@AEAV<lambda_0a64b6a4deda75c01876f29c44fc5eb3>@@$$QEAV<lambda_3323e69fbefe9d1a11713e670d47cdfa>@@@Z 000000018007fae8     libucrt:output.obj
 0004:00001af4       $pdata$??$ensure_buffer_is_big_enough@D@formatting_buffer@__crt_stdio_output@@QEAA_N_K@Z 000000018007faf4     libucrt:output.obj
 0004:00001b00       $pdata$??$type_case_integer_parse_into_buffer@I@?$output_processor@DV?$string_output_adapter@D@__crt_stdio_output@@V?$standard_base@DV?$string_output_adapter@D@__crt_stdio_output@@@2@@__crt_stdio_output@@AEAAXII_N@Z 000000018007fb00     libucrt:output.obj
 0004:00001b00       $pdata$??$type_case_integer_parse_into_buffer@I@?$output_processor@DV?$stream_output_adapter@D@__crt_stdio_output@@V?$standard_base@DV?$stream_output_adapter@D@__crt_stdio_output@@@2@@__crt_stdio_output@@AEAAXII_N@Z 000000018007fb00     libucrt:output.obj
 0004:00001b0c       $pdata$??$type_case_integer_parse_into_buffer@_K@?$output_processor@DV?$stream_output_adapter@D@__crt_stdio_output@@V?$standard_base@DV?$stream_output_adapter@D@__crt_stdio_output@@@2@@__crt_stdio_output@@AEAAX_KI_N@Z 000000018007fb0c     libucrt:output.obj
 0004:00001b0c       $pdata$??$type_case_integer_parse_into_buffer@_K@?$output_processor@DV?$string_output_adapter@D@__crt_stdio_output@@V?$standard_base@DV?$string_output_adapter@D@__crt_stdio_output@@@2@@__crt_stdio_output@@AEAAX_KI_N@Z 000000018007fb0c     libucrt:output.obj
 0004:00001b18       $pdata$??$write_multiple_characters@V?$stream_output_adapter@D@__crt_stdio_output@@D@__crt_stdio_output@@YAXAEBV?$stream_output_adapter@D@0@DHQEAH@Z 000000018007fb18     libucrt:output.obj
 0004:00001b24       $pdata$??$write_multiple_characters@V?$string_output_adapter@D@__crt_stdio_output@@D@__crt_stdio_output@@YAXAEBV?$string_output_adapter@D@0@DHQEAH@Z 000000018007fb24     libucrt:output.obj
 0004:00001b30       $pdata$??0?$output_processor@DV?$stream_output_adapter@D@__crt_stdio_output@@V?$standard_base@DV?$stream_output_adapter@D@__crt_stdio_output@@@2@@__crt_stdio_output@@QEAA@AEBV?$stream_output_adapter@D@1@_KQEBDQEAU__crt_locale_pointers@@QEAD@Z 000000018007fb30     libucrt:output.obj
 0004:00001b30       $pdata$??0?$output_processor@DV?$string_output_adapter@D@__crt_stdio_output@@V?$standard_base@DV?$string_output_adapter@D@__crt_stdio_output@@@2@@__crt_stdio_output@@QEAA@AEBV?$string_output_adapter@D@1@_KQEBDQEAU__crt_locale_pointers@@QEAD@Z 000000018007fb30     libucrt:output.obj
 0004:00001b3c       $pdata$??0_LocaleUpdate@@QEAA@QEAU__crt_locale_pointers@@@Z 000000018007fb3c     libucrt:output.obj
 0004:00001b48       $pdata$??R<lambda_0a64b6a4deda75c01876f29c44fc5eb3>@@QEBAHXZ 000000018007fb48     libucrt:output.obj
 0004:00001b54       $pdata$?force_decimal_point@__crt_stdio_output@@YAXPEADQEAU__crt_locale_pointers@@@Z 000000018007fb54     libucrt:output.obj
 0004:00001b60       $pdata$?parse_int_from_format_string@?$output_processor@DV?$stream_output_adapter@D@__crt_stdio_output@@V?$standard_base@DV?$stream_output_adapter@D@__crt_stdio_output@@@2@@__crt_stdio_output@@AEAA_NQEAH@Z 000000018007fb60     libucrt:output.obj
 0004:00001b60       $pdata$?parse_int_from_format_string@?$output_processor@DV?$string_output_adapter@D@__crt_stdio_output@@V?$standard_base@DV?$string_output_adapter@D@__crt_stdio_output@@@2@@__crt_stdio_output@@AEAA_NQEAH@Z 000000018007fb60     libucrt:output.obj
 0004:00001b6c       $pdata$?process@?$output_processor@DV?$stream_output_adapter@D@__crt_stdio_output@@V?$standard_base@DV?$stream_output_adapter@D@__crt_stdio_output@@@2@@__crt_stdio_output@@QEAAHXZ 000000018007fb6c     libucrt:output.obj
 0004:00001b78       $pdata$?process@?$output_processor@DV?$string_output_adapter@D@__crt_stdio_output@@V?$standard_base@DV?$string_output_adapter@D@__crt_stdio_output@@@2@@__crt_stdio_output@@QEAAHXZ 000000018007fb78     libucrt:output.obj
 0004:00001b84       $pdata$?state_case_normal@?$output_processor@DV?$stream_output_adapter@D@__crt_stdio_output@@V?$standard_base@DV?$stream_output_adapter@D@__crt_stdio_output@@@2@@__crt_stdio_output@@AEAA_NXZ 000000018007fb84     libucrt:output.obj
 0004:00001b90       $pdata$?state_case_normal@?$output_processor@DV?$string_output_adapter@D@__crt_stdio_output@@V?$standard_base@DV?$string_output_adapter@D@__crt_stdio_output@@@2@@__crt_stdio_output@@AEAA_NXZ 000000018007fb90     libucrt:output.obj
 0004:00001b9c       $pdata$?state_case_normal_tchar@?$output_processor@DV?$stream_output_adapter@D@__crt_stdio_output@@V?$standard_base@DV?$stream_output_adapter@D@__crt_stdio_output@@@2@@__crt_stdio_output@@AEAA_ND@Z 000000018007fb9c     libucrt:output.obj
 0004:00001ba8       $pdata$?state_case_normal_tchar@?$output_processor@DV?$string_output_adapter@D@__crt_stdio_output@@V?$standard_base@DV?$string_output_adapter@D@__crt_stdio_output@@@2@@__crt_stdio_output@@AEAA_ND@Z 000000018007fba8     libucrt:output.obj
 0004:00001bb4       $pdata$?state_case_size@?$output_processor@DV?$stream_output_adapter@D@__crt_stdio_output@@V?$standard_base@DV?$stream_output_adapter@D@__crt_stdio_output@@@2@@__crt_stdio_output@@AEAA_NXZ 000000018007fbb4     libucrt:output.obj
 0004:00001bc0       $pdata$?state_case_size@?$output_processor@DV?$string_output_adapter@D@__crt_stdio_output@@V?$standard_base@DV?$string_output_adapter@D@__crt_stdio_output@@@2@@__crt_stdio_output@@AEAA_NXZ 000000018007fbc0     libucrt:output.obj
 0004:00001bcc       $pdata$?state_case_type@?$output_processor@DV?$stream_output_adapter@D@__crt_stdio_output@@V?$standard_base@DV?$stream_output_adapter@D@__crt_stdio_output@@@2@@__crt_stdio_output@@AEAA_NXZ 000000018007fbcc     libucrt:output.obj
 0004:00001bd8       $pdata$?state_case_type@?$output_processor@DV?$string_output_adapter@D@__crt_stdio_output@@V?$standard_base@DV?$string_output_adapter@D@__crt_stdio_output@@@2@@__crt_stdio_output@@AEAA_NXZ 000000018007fbd8     libucrt:output.obj
 0004:00001be4       $pdata$?type_case_Z@?$output_processor@DV?$string_output_adapter@D@__crt_stdio_output@@V?$standard_base@DV?$string_output_adapter@D@__crt_stdio_output@@@2@@__crt_stdio_output@@AEAA_NXZ 000000018007fbe4     libucrt:output.obj
 0004:00001be4       $pdata$?type_case_Z@?$output_processor@DV?$stream_output_adapter@D@__crt_stdio_output@@V?$standard_base@DV?$stream_output_adapter@D@__crt_stdio_output@@@2@@__crt_stdio_output@@AEAA_NXZ 000000018007fbe4     libucrt:output.obj
 0004:00001bf0       $pdata$?type_case_a@?$output_processor@DV?$stream_output_adapter@D@__crt_stdio_output@@V?$standard_base@DV?$stream_output_adapter@D@__crt_stdio_output@@@2@@__crt_stdio_output@@AEAA_NXZ 000000018007fbf0     libucrt:output.obj
 0004:00001bf0       $pdata$?type_case_a@?$output_processor@DV?$string_output_adapter@D@__crt_stdio_output@@V?$standard_base@DV?$string_output_adapter@D@__crt_stdio_output@@@2@@__crt_stdio_output@@AEAA_NXZ 000000018007fbf0     libucrt:output.obj
 0004:00001bfc       $pdata$?type_case_c_tchar@?$output_processor@DV?$stream_output_adapter@D@__crt_stdio_output@@V?$standard_base@DV?$stream_output_adapter@D@__crt_stdio_output@@@2@@__crt_stdio_output@@AEAA_ND@Z 000000018007fbfc     libucrt:output.obj
 0004:00001bfc       $pdata$?type_case_c_tchar@?$output_processor@DV?$string_output_adapter@D@__crt_stdio_output@@V?$standard_base@DV?$string_output_adapter@D@__crt_stdio_output@@@2@@__crt_stdio_output@@AEAA_ND@Z 000000018007fbfc     libucrt:output.obj
 0004:00001c08       $pdata$?type_case_integer@?$output_processor@DV?$stream_output_adapter@D@__crt_stdio_output@@V?$standard_base@DV?$stream_output_adapter@D@__crt_stdio_output@@@2@@__crt_stdio_output@@AEAA_NI_N@Z 000000018007fc08     libucrt:output.obj
 0004:00001c08       $pdata$?type_case_integer@?$output_processor@DV?$string_output_adapter@D@__crt_stdio_output@@V?$standard_base@DV?$string_output_adapter@D@__crt_stdio_output@@@2@@__crt_stdio_output@@AEAA_NI_N@Z 000000018007fc08     libucrt:output.obj
 0004:00001c14       $pdata$?type_case_n@?$output_processor@DV?$stream_output_adapter@D@__crt_stdio_output@@V?$standard_base@DV?$stream_output_adapter@D@__crt_stdio_output@@@2@@__crt_stdio_output@@AEAA_NXZ 000000018007fc14     libucrt:output.obj
 0004:00001c14       $pdata$?type_case_n@?$output_processor@DV?$string_output_adapter@D@__crt_stdio_output@@V?$standard_base@DV?$string_output_adapter@D@__crt_stdio_output@@@2@@__crt_stdio_output@@AEAA_NXZ 000000018007fc14     libucrt:output.obj
 0004:00001c20       $pdata$?type_case_s@?$output_processor@DV?$string_output_adapter@D@__crt_stdio_output@@V?$standard_base@DV?$string_output_adapter@D@__crt_stdio_output@@@2@@__crt_stdio_output@@AEAA_NXZ 000000018007fc20     libucrt:output.obj
 0004:00001c20       $pdata$?type_case_s@?$output_processor@DV?$stream_output_adapter@D@__crt_stdio_output@@V?$standard_base@DV?$stream_output_adapter@D@__crt_stdio_output@@@2@@__crt_stdio_output@@AEAA_NXZ 000000018007fc20     libucrt:output.obj
 0004:00001c2c       $pdata$?validate_stream_is_ansi_if_required@?$__acrt_stdio_char_traits@D@@SA_NQEAU_iobuf@@@Z 000000018007fc2c     libucrt:output.obj
 0004:00001c38       $pdata$?write_stored_string_tchar@?$output_processor@DV?$stream_output_adapter@D@__crt_stdio_output@@V?$standard_base@DV?$stream_output_adapter@D@__crt_stdio_output@@@2@@__crt_stdio_output@@AEAA_ND@Z 000000018007fc38     libucrt:output.obj
 0004:00001c44       $pdata$?write_stored_string_tchar@?$output_processor@DV?$string_output_adapter@D@__crt_stdio_output@@V?$standard_base@DV?$string_output_adapter@D@__crt_stdio_output@@@2@@__crt_stdio_output@@AEAA_ND@Z 000000018007fc44     libucrt:output.obj
 0004:00001c50       $pdata$?write_string@?$stream_output_adapter@D@__crt_stdio_output@@QEBAXQEBDHQEAH1@Z 000000018007fc50     libucrt:output.obj
 0004:00001c5c       $pdata$?write_string@?$string_output_adapter@D@__crt_stdio_output@@QEBAXQEBDHQEAH1@Z 000000018007fc5c     libucrt:output.obj
 0004:00001c68       $pdata$__stdio_common_vfprintf 000000018007fc68     libucrt:output.obj
 0004:00001c74       $pdata$__stdio_common_vsprintf 000000018007fc74     libucrt:output.obj
 0004:00001c80       $pdata$system              000000018007fc80     libucrt:system.obj
 0004:00001c8c       $pdata$_get_fmode          000000018007fc8c     libucrt:setmode.obj
 0004:00001c98       $pdata$_setmode            000000018007fc98     libucrt:setmode.obj
 0004:00001ca4       $pdata$_setmode_nolock     000000018007fca4     libucrt:setmode.obj
 0004:00001cbc       $pdata$rename              000000018007fcbc     libucrt:rename.obj
 0004:00001cc8       $pdata$_fileno             000000018007fcc8     libucrt:fileno.obj
 0004:00001cd4       $pdata$??$?RV<lambda_5d4c3fee44080f75d5d9762853974fe0>@@AEAV<lambda_532e024f4337e6fc7ad266c2bef9f4ed>@@V<lambda_c87bdc10097eb2402edb8ba9bdf0697b>@@@?$__crt_seh_guarded_call@_K@@QEAA_K$$QEAV<lambda_5d4c3fee44080f75d5d9762853974fe0>@@AEAV<lambda_532e024f4337e6fc7ad266c2bef9f4ed>@@$$QEAV<lambda_c87bdc10097eb2402edb8ba9bdf0697b>@@@Z 000000018007fcd4     libucrt:fwrite.obj
 0004:00001ce0       $pdata$??R<lambda_532e024f4337e6fc7ad266c2bef9f4ed>@@QEBA_KXZ 000000018007fce0     libucrt:fwrite.obj
 0004:00001cec       $pdata$_fwrite_nolock      000000018007fcec     libucrt:fwrite.obj
 0004:00001cf8       $pdata$fwrite              000000018007fcf8     libucrt:fwrite.obj
 0004:00001d04       $pdata$??$parse_floating_point@V?$input_adapter_character_source@V?$string_input_adapter@D@__crt_stdio_input@@@__crt_strtox@@M@__crt_strtox@@YA?AW4SLD_STATUS@@QEAU__crt_locale_pointers@@V?$input_adapter_character_source@V?$string_input_adapter@D@__crt_stdio_input@@@0@QEAM@Z 000000018007fd04     libucrt:input.obj
 0004:00001d10       $pdata$??$parse_floating_point@V?$input_adapter_character_source@V?$string_input_adapter@D@__crt_stdio_input@@@__crt_strtox@@N@__crt_strtox@@YA?AW4SLD_STATUS@@QEAU__crt_locale_pointers@@V?$input_adapter_character_source@V?$string_input_adapter@D@__crt_stdio_input@@@0@QEAN@Z 000000018007fd10     libucrt:input.obj
 0004:00001d1c       $pdata$??$parse_floating_point_from_source@V?$input_adapter_character_source@V?$string_input_adapter@D@__crt_stdio_input@@@__crt_strtox@@@__crt_strtox@@YA?AW4floating_point_parse_result@0@QEAU__crt_locale_pointers@@AEAV?$input_adapter_character_source@V?$string_input_adapter@D@__crt_stdio_input@@@0@AEAUfloating_point_string@0@@Z 000000018007fd1c     libucrt:input.obj
 0004:00001d28       $pdata$??$parse_floating_point_possible_infinity@DV?$input_adapter_character_source@V?$string_input_adapter@D@__crt_stdio_input@@@__crt_strtox@@_K@__crt_strtox@@YA?AW4floating_point_parse_result@0@AEADAEAV?$input_adapter_character_source@V?$string_input_adapter@D@__crt_stdio_input@@@0@_K@Z 000000018007fd28     libucrt:input.obj
 0004:00001d34       $pdata$??$parse_floating_point_possible_nan@DV?$input_adapter_character_source@V?$string_input_adapter@D@__crt_stdio_input@@@__crt_strtox@@_K@__crt_strtox@@YA?AW4floating_point_parse_result@0@AEADAEAV?$input_adapter_character_source@V?$string_input_adapter@D@__crt_stdio_input@@@0@_K@Z 000000018007fd34     libucrt:input.obj
 0004:00001d40       $pdata$??$parse_floating_point_possible_nan_is_ind@DV?$input_adapter_character_source@V?$string_input_adapter@D@__crt_stdio_input@@@__crt_strtox@@@__crt_strtox@@YA_NAEADAEAV?$input_adapter_character_source@V?$string_input_adapter@D@__crt_stdio_input@@@0@@Z 000000018007fd40     libucrt:input.obj
 0004:00001d4c       $pdata$??$parse_floating_point_possible_nan_is_snan@DV?$input_adapter_character_source@V?$string_input_adapter@D@__crt_stdio_input@@@__crt_strtox@@@__crt_strtox@@YA_NAEADAEAV?$input_adapter_character_source@V?$string_input_adapter@D@__crt_stdio_input@@@0@@Z 000000018007fd4c     libucrt:input.obj
 0004:00001d58       $pdata$??$parse_floating_point_write_result@M@__crt_strtox@@YA?AW4SLD_STATUS@@W4floating_point_parse_result@0@AEBUfloating_point_string@0@QEAM@Z 000000018007fd58     libucrt:input.obj
 0004:00001d64       $pdata$??$parse_floating_point_write_result@N@__crt_strtox@@YA?AW4SLD_STATUS@@W4floating_point_parse_result@0@AEBUfloating_point_string@0@QEAN@Z 000000018007fd64     libucrt:input.obj
 0004:00001d70       $pdata$??$parse_integer@_KV?$input_adapter_character_source@V?$string_input_adapter@D@__crt_stdio_input@@@__crt_strtox@@@__crt_strtox@@YA_KQEAU__crt_locale_pointers@@V?$input_adapter_character_source@V?$string_input_adapter@D@__crt_stdio_input@@@0@H_N@Z 000000018007fd70     libucrt:input.obj
 0004:00001d7c       $pdata$??$process_floating_point_specifier_t@M@?$input_processor@DV?$string_input_adapter@D@__crt_stdio_input@@@__crt_stdio_input@@AEAA_NXZ 000000018007fd7c     libucrt:input.obj
 0004:00001d88       $pdata$??$process_floating_point_specifier_t@N@?$input_processor@DV?$string_input_adapter@D@__crt_stdio_input@@@__crt_stdio_input@@AEAA_NXZ 000000018007fd88     libucrt:input.obj
 0004:00001d94       $pdata$??$process_string_specifier_tchar@D@?$input_processor@DV?$string_input_adapter@D@__crt_stdio_input@@@__crt_stdio_input@@AEAA_NW4conversion_mode@1@D@Z 000000018007fd94     libucrt:input.obj
 0004:00001da0       $pdata$??$process_string_specifier_tchar@_W@?$input_processor@DV?$string_input_adapter@D@__crt_stdio_input@@@__crt_stdio_input@@AEAA_NW4conversion_mode@1@_W@Z 000000018007fda0     libucrt:input.obj
 0004:00001dac       $pdata$??$skip_whitespace@Vstring_input_adapter@__crt_stdio_input@@D@__crt_stdio_input@@YAHAEAV?$string_input_adapter@D@0@QEAU__crt_locale_pointers@@@Z 000000018007fdac     libucrt:input.obj
 0004:00001db8       $pdata$?advance@?$format_string_parser@D@__crt_stdio_input@@QEAA_NXZ 000000018007fdb8     libucrt:input.obj
 0004:00001dc4       $pdata$?as_double@floating_point_value@__crt_strtox@@QEBAAEANXZ 000000018007fdc4     libucrt:input.obj
 0004:00001dd0       $pdata$?as_float@floating_point_value@__crt_strtox@@QEBAAEAMXZ 000000018007fdd0     libucrt:input.obj
 0004:00001ddc       $pdata$?assemble_floating_point_value@__crt_strtox@@YA?AW4SLD_STATUS@@_KH_N1AEBVfloating_point_value@1@@Z 000000018007fddc     libucrt:input.obj
 0004:00001de8       $pdata$?assemble_floating_point_value_from_big_integer@__crt_strtox@@YA?AW4SLD_STATUS@@AEBUbig_integer@1@I_N1AEBVfloating_point_value@1@@Z 000000018007fde8     libucrt:input.obj
 0004:00001df4       $pdata$?convert_decimal_string_to_floating_type_common@__crt_strtox@@YA?AW4SLD_STATUS@@AEBUfloating_point_string@1@AEBVfloating_point_value@1@@Z 000000018007fdf4     libucrt:input.obj
 0004:00001e00       $pdata$?convert_hexadecimal_string_to_floating_type_common@__crt_strtox@@YA?AW4SLD_STATUS@@AEBUfloating_point_string@1@AEBVfloating_point_value@1@@Z 000000018007fe00     libucrt:input.obj
 0004:00001e0c       $pdata$?divide@__crt_strtox@@YA_KAEAUbig_integer@1@AEBU21@@Z 000000018007fe0c     libucrt:input.obj
 0004:00001e18       $pdata$5$?divide@__crt_strtox@@YA_KAEAUbig_integer@1@AEBU21@@Z 000000018007fe18     libucrt:input.obj
 0004:00001e24       $pdata$6$?divide@__crt_strtox@@YA_KAEAUbig_integer@1@AEBU21@@Z 000000018007fe24     libucrt:input.obj
 0004:00001e30       $pdata$?process@?$input_processor@DV?$string_input_adapter@D@__crt_stdio_input@@@__crt_stdio_input@@QEAAHXZ 000000018007fe30     libucrt:input.obj
 0004:00001e3c       $pdata$?process_conversion_specifier@?$input_processor@DV?$string_input_adapter@D@__crt_stdio_input@@@__crt_stdio_input@@AEAA_NXZ 000000018007fe3c     libucrt:input.obj
 0004:00001e48       $pdata$?process_floating_point_specifier@?$input_processor@DV?$string_input_adapter@D@__crt_stdio_input@@@__crt_stdio_input@@AEAA_NXZ 000000018007fe48     libucrt:input.obj
 0004:00001e54       $pdata$?process_integer_specifier@?$input_processor@DV?$string_input_adapter@D@__crt_stdio_input@@@__crt_stdio_input@@AEAA_NI_N@Z 000000018007fe54     libucrt:input.obj
 0004:00001e60       $pdata$?process_literal_character_tchar@?$input_processor@DV?$string_input_adapter@D@__crt_stdio_input@@@__crt_stdio_input@@AEAA_ND@Z 000000018007fe60     libucrt:input.obj
 0004:00001e6c       $pdata$?process_state@?$input_processor@DV?$string_input_adapter@D@__crt_stdio_input@@@__crt_stdio_input@@AEAA_NXZ 000000018007fe6c     libucrt:input.obj
 0004:00001e78       $pdata$?process_string_specifier@?$input_processor@DV?$string_input_adapter@D@__crt_stdio_input@@@__crt_stdio_input@@AEAA_NW4conversion_mode@2@@Z 000000018007fe78     libucrt:input.obj
 0004:00001e84       $pdata$?scan_optional_field_width@?$format_string_parser@D@__crt_stdio_input@@AEAA_NXZ 000000018007fe84     libucrt:input.obj
 0004:00001e90       $pdata$?scan_scanset_range@?$format_string_parser@D@__crt_stdio_input@@AEAA_NXZ 000000018007fe90     libucrt:input.obj
 0004:00001e9c       $pdata$?write_character@?$input_processor@DV?$string_input_adapter@D@__crt_stdio_input@@@__crt_stdio_input@@AEAA_NQEFA_W_KAEAPEFA_WAEA_KD@Z 000000018007fe9c     libucrt:input.obj
 0004:00001ea8       $pdata$?write_integer@?$input_processor@DV?$string_input_adapter@D@__crt_stdio_input@@@__crt_stdio_input@@AEAA_N_K_N@Z 000000018007fea8     libucrt:input.obj
 0004:00001eb4       $pdata$__stdio_common_vsscanf 000000018007feb4     libucrt:input.obj
 0004:00001ec0       $pdata$memcpy_s            000000018007fec0     libucrt:input.obj
 0004:00001ec0       $pdata$memcpy_s            000000018007fec0     libucrt:cfout.obj
 0004:00001ecc       $pdata$__acrt_call_reportfault 000000018007fecc     libucrt:invalid_parameter.obj
 0004:00001ed8       $pdata$_invalid_parameter  000000018007fed8     libucrt:invalid_parameter.obj
 0004:00001ee4       $pdata$_invalid_parameter_noinfo 000000018007fee4     libucrt:invalid_parameter.obj
 0004:00001ef0       $pdata$_invalid_parameter_noinfo_noreturn 000000018007fef0     libucrt:invalid_parameter.obj
 0004:00001efc       $pdata$_invoke_watson      000000018007fefc     libucrt:invalid_parameter.obj
 0004:00001f08       $pdata$??$common_dupenv_s@D@@YAHQEAPEADQEA_KQEBDH2H@Z 000000018007ff08     libucrt:getenv.obj
 0004:00001f14       $pdata$??$common_getenv@D@@YAPEADQEBD@Z 000000018007ff14     libucrt:getenv.obj
 0004:00001f20       $pdata$??$common_getenv_nolock@D@@YAPEADQEBD@Z 000000018007ff20     libucrt:getenv.obj
 0004:00001f2c       $pdata$_dupenv_s           000000018007ff2c     libucrt:getenv.obj
 0004:00001f38       $pdata$_stricmp            000000018007ff38     libucrt:stricmp.obj
 0004:00001f44       $pdata$_stricmp_l          000000018007ff44     libucrt:stricmp.obj
 0004:00001f50       $pdata$_callnewh           000000018007ff50     libucrt:new_handler.obj
 0004:00001f5c       $pdata$_query_new_handler  000000018007ff5c     libucrt:new_handler.obj
 0004:00001f68       $pdata$_seh_filter_exe     000000018007ff68     libucrt:exception_filter.obj
 0004:00001f74       $pdata$?common_exit@@YAXHW4_crt_exit_cleanup_mode@@W4_crt_exit_return_mode@@@Z 000000018007ff74     libucrt:exit.obj
 0004:00001f80       $pdata$?exit_or_terminate_process@@YAXI@Z 000000018007ff80     libucrt:exit.obj
 0004:00001f8c       $pdata$?try_cor_exit_process@@YAXI@Z 000000018007ff8c     libucrt:exit.obj
 0004:00001f98       $pdata$??$parse_command_line@D@@YAXPEADPEAPEAD0PEA_K2@Z 000000018007ff98     libucrt:argv_parsing.obj
 0004:00001fa4       $pdata$__acrt_allocate_buffer_for_argv 000000018007ffa4     libucrt:argv_parsing.obj
 0004:00001fb0       $pdata$_configure_narrow_argv 000000018007ffb0     libucrt:argv_parsing.obj
 0004:00001fbc       $pdata$??$common_get_or_create_environment_nolock@D@@YAPEAPEADXZ 000000018007ffbc     libucrt:environment_initialization.obj
 0004:00001fc8       $pdata$??$common_initialize_environment_nolock@D@@YAHXZ 000000018007ffc8     libucrt:environment_initialization.obj
 0004:00001fd4       $pdata$??$create_environment@D@@YAQEAPEADQEAD@Z 000000018007ffd4     libucrt:environment_initialization.obj
 0004:00001fe0       $pdata$??$free_environment@D@@YAXQEAPEAD@Z 000000018007ffe0     libucrt:environment_initialization.obj
 0004:00001fe0       $pdata$??$free_environment@_W@@YAXQEAPEA_W@Z 000000018007ffe0     libucrt:environment_initialization.obj
 0004:00001fec       $pdata$??$initialize_environment_by_cloning_nolock@D@@YAHXZ 000000018007ffec     libucrt:environment_initialization.obj
 0004:00001ff8       $pdata$??$uninitialize_environment_internal@D@@YAXAEAPEAPEAD@Z 000000018007fff8     libucrt:environment_initialization.obj
 0004:00002004       $pdata$??$uninitialize_environment_internal@_W@@YAXAEAPEAPEA_W@Z 0000000180080004     libucrt:environment_initialization.obj
 0004:00002010       $pdata$__dcrt_uninitialize_environments_nolock 0000000180080010     libucrt:environment_initialization.obj
 0004:0000201c       $pdata$??$?RV<lambda_b8c45f8f788dd370798f47cfe8ac3a86>@@AEAV<lambda_4e60a939b0d047cfe11ddc22648dfba9>@@V<lambda_332c3edc96d0294ec56c57d38c1cdfd5>@@@?$__crt_seh_guarded_call@H@@QEAAH$$QEAV<lambda_b8c45f8f788dd370798f47cfe8ac3a86>@@AEAV<lambda_4e60a939b0d047cfe11ddc22648dfba9>@@$$QEAV<lambda_332c3edc96d0294ec56c57d38c1cdfd5>@@@Z 000000018008001c     libucrt:onexit.obj
 0004:00002028       $pdata$??$?RV<lambda_e24bbb7b643b32fcea6fa61b31d4c984>@@AEAV<lambda_275893d493268fdec8709772e3fcec0e>@@V<lambda_9d71df4d7cf3f480f8d633942495c3b0>@@@?$__crt_seh_guarded_call@H@@QEAAH$$QEAV<lambda_e24bbb7b643b32fcea6fa61b31d4c984>@@AEAV<lambda_275893d493268fdec8709772e3fcec0e>@@$$QEAV<lambda_9d71df4d7cf3f480f8d633942495c3b0>@@@Z 0000000180080028     libucrt:onexit.obj
 0004:00002034       $pdata$??R<lambda_4e60a939b0d047cfe11ddc22648dfba9>@@QEBAHXZ 0000000180080034     libucrt:onexit.obj
 0004:00002040       $pdata$_execute_onexit_table 0000000180080040     libucrt:onexit.obj
 0004:0000204c       $pdata$_register_onexit_function 000000018008004c     libucrt:onexit.obj
 0004:00002058       $pdata$initialize_c        0000000180080058     libucrt:initialization.obj
 0004:00002064       $pdata$uninitialize_environment 0000000180080064     libucrt:initialization.obj
 0004:00002070       $pdata$initialize_pointers 0000000180080070     libucrt:initialization.obj
 0004:0000207c       $pdata$uninitialize_allocated_memory 000000018008007c     libucrt:initialization.obj
 0004:00002088       $pdata$__acrt_thread_attach 0000000180080088     libucrt:initialization.obj
 0004:00002094       $pdata$__acrt_thread_detach 0000000180080094     libucrt:initialization.obj
 0004:000020a0       $pdata$__acrt_uninitialize_critical 00000001800800a0     libucrt:initialization.obj
 0004:000020ac       $pdata$_initterm           00000001800800ac     libucrt:initterm.obj
 0004:000020b8       $pdata$_initterm_e         00000001800800b8     libucrt:initterm.obj
 0004:000020c4       $pdata$terminate           00000001800800c4     libucrt:terminate.obj
 0004:000020d0       $pdata$strcpy_s            00000001800800d0     libucrt:strcpy_s.obj
 0004:000020dc       $pdata$_free_base          00000001800800dc     libucrt:free_base.obj
 0004:000020e8       $pdata$_malloc_base        00000001800800e8     libucrt:malloc_base.obj
 0004:000020f4       $pdata$abort               00000001800800f4     libucrt:abort.obj
 0004:00002100       $pdata$_calloc_base        0000000180080100     libucrt:calloc_base.obj
 0004:0000210c       $pdata$??$parse_integer@KV?$c_string_character_source@D@__crt_strtox@@@__crt_strtox@@YAKQEAU__crt_locale_pointers@@V?$c_string_character_source@D@0@H_N@Z 000000018008010c     libucrt:atox.obj
 0004:00002118       $pdata$??$parse_integer@_KV?$c_string_character_source@D@__crt_strtox@@@__crt_strtox@@YA_KQEAU__crt_locale_pointers@@V?$c_string_character_source@D@0@H_N@Z 0000000180080118     libucrt:atox.obj
 0004:00002124       $pdata$__acrt_errno_map_os_error 0000000180080124     libucrt:errno.obj
 0004:00002130       $pdata$__doserrno          0000000180080130     libucrt:errno.obj
 0004:0000213c       $pdata$_errno              000000018008013c     libucrt:errno.obj
 0004:00002148       $pdata$??$write_buffer_nolock@D@@YA_NDV__crt_stdio_stream@@@Z 0000000180080148     libucrt:_flsbuf.obj
 0004:00002154       $pdata$__acrt_stdio_flush_and_write_narrow_nolock 0000000180080154     libucrt:_flsbuf.obj
 0004:00002160       $pdata$?initialize_inherited_file_handles_nolock@@YAXXZ 0000000180080160     libucrt:ioinit.obj
 0004:0000216c       $pdata$?initialize_stdio_handles_nolock@@YAXXZ 000000018008016c     libucrt:ioinit.obj
 0004:00002178       $pdata$__acrt_initialize_lowio 0000000180080178     libucrt:ioinit.obj
 0004:00002184       $pdata$__acrt_uninitialize_lowio 0000000180080184     libucrt:ioinit.obj
 0004:00002190       $pdata$??$?RV<lambda_46352004c1216016012b18bd6f87e700>@@AEAV<lambda_3bd07e1a1191394380780325891bf33f>@@V<lambda_334532d3f185bcaa59b5be82d7d22bff>@@@?$__crt_seh_guarded_call@X@@QEAAX$$QEAV<lambda_46352004c1216016012b18bd6f87e700>@@AEAV<lambda_3bd07e1a1191394380780325891bf33f>@@$$QEAV<lambda_334532d3f185bcaa59b5be82d7d22bff>@@@Z 0000000180080190     libucrt:per_thread_data.obj
 0004:0000219c       $pdata$??$?RV<lambda_5e887d1dcbef67a5eb4283622ba103bf>@@AEAV<lambda_4466841279450cc726390878d4a41900>@@V<lambda_341c25c0346d94847f1f3c463c57e077>@@@?$__crt_seh_guarded_call@X@@QEAAX$$QEAV<lambda_5e887d1dcbef67a5eb4283622ba103bf>@@AEAV<lambda_4466841279450cc726390878d4a41900>@@$$QEAV<lambda_341c25c0346d94847f1f3c463c57e077>@@@Z 000000018008019c     libucrt:per_thread_data.obj
 0004:000021a8       $pdata$??$?RV<lambda_72d1df2b273a38828b1ce30cbf4cdab5>@@AEAV<lambda_876a65b173b8412d3a47c70a915b0cf4>@@V<lambda_41932305e351933ebe8f8be3ed8bb5dc>@@@?$__crt_seh_guarded_call@X@@QEAAX$$QEAV<lambda_72d1df2b273a38828b1ce30cbf4cdab5>@@AEAV<lambda_876a65b173b8412d3a47c70a915b0cf4>@@$$QEAV<lambda_41932305e351933ebe8f8be3ed8bb5dc>@@@Z 00000001800801a8     libucrt:per_thread_data.obj
 0004:000021b4       $pdata$??$?RV<lambda_fb3a7dec4e47f37f22dae91bb15c9095>@@AEAV<lambda_698284760c8add0bfb0756c19673e34b>@@V<lambda_dfb8eca1e75fef3034a8fb18dd509707>@@@?$__crt_seh_guarded_call@X@@QEAAX$$QEAV<lambda_fb3a7dec4e47f37f22dae91bb15c9095>@@AEAV<lambda_698284760c8add0bfb0756c19673e34b>@@$$QEAV<lambda_dfb8eca1e75fef3034a8fb18dd509707>@@@Z 00000001800801b4     libucrt:per_thread_data.obj
 0004:000021c0       $pdata$?construct_ptd_array@@YAXQEAU__acrt_ptd@@@Z 00000001800801c0     libucrt:per_thread_data.obj
 0004:000021cc       $pdata$?destroy_fls@@YAXPEAX@Z 00000001800801cc     libucrt:per_thread_data.obj
 0004:000021d8       $pdata$?destroy_ptd_array@@YAXQEAU__acrt_ptd@@@Z 00000001800801d8     libucrt:per_thread_data.obj
 0004:000021e4       $pdata$?replace_current_thread_locale_nolock@@YAXQEAU__acrt_ptd@@QEAU__crt_locale_data@@@Z 00000001800801e4     libucrt:per_thread_data.obj
 0004:000021f0       $pdata$__acrt_freeptd      00000001800801f0     libucrt:per_thread_data.obj
 0004:000021fc       $pdata$__acrt_getptd       00000001800801fc     libucrt:per_thread_data.obj
 0004:00002208       $pdata$__acrt_getptd_noexit 0000000180080208     libucrt:per_thread_data.obj
 0004:00002214       $pdata$__acrt_initialize_ptd 0000000180080214     libucrt:per_thread_data.obj
 0004:00002220       $pdata$__acrt_uninitialize_ptd 0000000180080220     libucrt:per_thread_data.obj
 0004:0000222c       $pdata$?__acrt_stdio_allocate_stream@@YA?AV__crt_stdio_stream@@XZ 000000018008022c     libucrt:stream.obj
 0004:00002238       $pdata$?find_or_allocate_unused_stream_nolock@@YA?AV__crt_stdio_stream@@XZ 0000000180080238     libucrt:stream.obj
 0004:00002244       $pdata$??$__acrt_stdio_parse_mode@D@@YA?AU__acrt_stdio_stream_mode@@QEBD@Z 0000000180080244     libucrt:openfile.obj
 0004:00002250       $pdata$_openfile           0000000180080250     libucrt:openfile.obj
 0004:0000225c       $pdata$?try_get_function@@YAPEAXW4function_id@?A0x63058377@@QEBDQEBW4module_id@2@2@Z 000000018008025c     libucrt:winapi_thunks.obj
 0004:00002268       $pdata$__acrt_AreFileApisANSI 0000000180080268     libucrt:winapi_thunks.obj
 0004:00002274       $pdata$__acrt_CompareStringEx 0000000180080274     libucrt:winapi_thunks.obj
 0004:00002280       $pdata$__acrt_FlsAlloc     0000000180080280     libucrt:winapi_thunks.obj
 0004:0000228c       $pdata$__acrt_FlsFree      000000018008028c     libucrt:winapi_thunks.obj
 0004:00002298       $pdata$__acrt_FlsGetValue  0000000180080298     libucrt:winapi_thunks.obj
 0004:000022a4       $pdata$__acrt_FlsSetValue  00000001800802a4     libucrt:winapi_thunks.obj
 0004:000022b0       $pdata$__acrt_InitializeCriticalSectionEx 00000001800802b0     libucrt:winapi_thunks.obj
 0004:000022bc       $pdata$__acrt_LCMapStringEx 00000001800802bc     libucrt:winapi_thunks.obj
 0004:000022c8       $pdata$__acrt_LocaleNameToLCID 00000001800802c8     libucrt:winapi_thunks.obj
 0004:000022d4       $pdata$__acrt_initialize_winapi_thunks 00000001800802d4     libucrt:winapi_thunks.obj
 0004:000022e0       $pdata$__acrt_is_packaged_app 00000001800802e0     libucrt:winapi_thunks.obj
 0004:000022ec       $pdata$__acrt_uninitialize_winapi_thunks 00000001800802ec     libucrt:winapi_thunks.obj
 0004:000022f8       $pdata$_fcloseall          00000001800802f8     libucrt:closeall.obj
 0004:00002304       $pdata$__acrt_stdio_flush_nolock 0000000180080304     libucrt:fflush.obj
 0004:00002310       $pdata$_fflush_nolock      0000000180080310     libucrt:fflush.obj
 0004:0000231c       $pdata$common_flush_all    000000018008031c     libucrt:fflush.obj
 0004:00002328       $pdata$__acrt_stdio_free_buffer_nolock 0000000180080328     libucrt:_freebuf.obj
 0004:00002334       $pdata$??$?RV<lambda_bfedae4ebbf01fab1bb6dcc6a9e276e0>@@AEAV<lambda_2fe9b910cf3cbf4a0ab98a02ba45b3ec>@@V<lambda_237c231691f317818eb88cc1d5d642d6>@@@?$__crt_seh_guarded_call@H@@QEAAH$$QEAV<lambda_bfedae4ebbf01fab1bb6dcc6a9e276e0>@@AEAV<lambda_2fe9b910cf3cbf4a0ab98a02ba45b3ec>@@$$QEAV<lambda_237c231691f317818eb88cc1d5d642d6>@@@Z 0000000180080334     libucrt:close.obj
 0004:00002340       $pdata$_close              0000000180080340     libucrt:close.obj
 0004:0000234c       $pdata$_close_nolock       000000018008034c     libucrt:close.obj
 0004:00002358       $pdata$__acrt_copy_path_to_wide_string 0000000180080358     libucrt:string_utilities.obj
 0004:00002364       $pdata$_wremove            0000000180080364     libucrt:wunlink.obj
 0004:00002370       $pdata$isdigit             0000000180080370     libucrt:_ctype.obj
 0004:0000237c       $pdata$isspace             000000018008037c     libucrt:_ctype.obj
 0004:00002388       $pdata$?internal_isupper_l@@YA_NHQEAU__crt_locale_pointers@@@Z 0000000180080388     libucrt:tolower_toupper.obj
 0004:00002394       $pdata$_tolower_l          0000000180080394     libucrt:tolower_toupper.obj
 0004:000023a0       $pdata$tolower             00000001800803a0     libucrt:tolower_toupper.obj
 0004:000023ac       $pdata$strtol              00000001800803ac     libucrt:strtox.obj
 0004:000023b8       $pdata$strtoull            00000001800803b8     libucrt:strtox.obj
 0004:000023c4       $pdata$_mbtowc_l           00000001800803c4     libucrt:mbtowc.obj
 0004:000023d0       $pdata$_wctomb_s_l         00000001800803d0     libucrt:wctomb.obj
 0004:000023dc       $pdata$wctomb_s            00000001800803dc     libucrt:wctomb.obj
 0004:000023e8       $pdata$strnlen             00000001800803e8     libucrt:strnlen.obj
 0004:000023f4       $pdata$wcsnlen             00000001800803f4     libucrt:strnlen.obj
 0004:00002400       $pdata$__acrt_update_locale_info 0000000180080400     libucrt:locale_update.obj
 0004:0000240c       $pdata$__acrt_update_multibyte_info 000000018008040c     libucrt:locale_update.obj
 0004:00002418       $pdata$?fp_format_a@@YAHQEBNPEAD_KQEAD2H_NIQEAU__crt_locale_pointers@@@Z 0000000180080418     libucrt:cvt.obj
 0004:00002424       $pdata$?fp_format_e@@YAHQEBNQEAD_K12H_NIQEAU__crt_locale_pointers@@@Z 0000000180080424     libucrt:cvt.obj
 0004:00002430       $pdata$?fp_format_e_internal@@YAHQEAD_KH_NIQEAU_strflt@@2QEAU__crt_locale_pointers@@@Z 0000000180080430     libucrt:cvt.obj
 0004:0000243c       $pdata$?fp_format_f_internal@@YAHQEAD_KHQEAU_strflt@@_NQEAU__crt_locale_pointers@@@Z 000000018008043c     libucrt:cvt.obj
 0004:00002448       $pdata$?fp_format_g@@YAHQEBNQEAD_K12H_NIQEAU__crt_locale_pointers@@@Z 0000000180080448     libucrt:cvt.obj
 0004:00002454       $pdata$?fp_format_nan_or_infinity@@YAHW4__acrt_fp_class@@_NPEAD_K1@Z 0000000180080454     libucrt:cvt.obj
 0004:00002460       $pdata$__acrt_fp_format    0000000180080460     libucrt:cvt.obj
 0004:0000246c       $pdata$__acrt_stdio_begin_temporary_buffering_nolock 000000018008046c     libucrt:_sftbuf.obj
 0004:00002478       $pdata$__acrt_stdio_end_temporary_buffering_nolock 0000000180080478     libucrt:_sftbuf.obj
 0004:00002484       $pdata$__acrt_uninitialize_locale 0000000180080484     libucrt:wsetlocale.obj
 0004:00002490       $pdata$??$?RV<lambda_fb01e4b6cb0b58be62120d2a518119ce>@@AEAV<lambda_45edfab556fcff821d8a41c06e3d46c0>@@V<lambda_8a9bf702b7f902ca2f9107a173e0fbe3>@@@?$__crt_seh_guarded_call@_N@@QEAA_N$$QEAV<lambda_fb01e4b6cb0b58be62120d2a518119ce>@@AEAV<lambda_45edfab556fcff821d8a41c06e3d46c0>@@$$QEAV<lambda_8a9bf702b7f902ca2f9107a173e0fbe3>@@@Z 0000000180080490     libucrt:spawnv.obj
 0004:0000249c       $pdata$??$common_spawnv@D@@YA_JHQEBDQEBQEBD1@Z 000000018008049c     libucrt:spawnv.obj
 0004:000024a8       $pdata$??$execute_command@D@@YA_JHQEBDQEBQEBD1@Z 00000001800804a8     libucrt:spawnv.obj
 0004:000024b4       $pdata$??R<lambda_45edfab556fcff821d8a41c06e3d46c0>@@QEBA_NXZ 00000001800804b4     libucrt:spawnv.obj
 0004:000024c0       $pdata$?accumulate_inheritable_handles@@YA_NQEAPEAEQEA_K_N@Z 00000001800804c0     libucrt:spawnv.obj
 0004:000024cc       $pdata$??$common_spawnvp@D@@YA_JHQEBDQEBQEBD1@Z 00000001800804cc     libucrt:spawnvp.obj
 0004:000024d8       $pdata$_waccess_s          00000001800804d8     libucrt:waccess.obj
 0004:000024e4       $pdata$_access_s           00000001800804e4     libucrt:access.obj
 0004:000024f0       $pdata$__acrt_lowio_create_handle_array 00000001800804f0     libucrt:osfinfo.obj
 0004:000024fc       $pdata$__acrt_lowio_destroy_handle_array 00000001800804fc     libucrt:osfinfo.obj
 0004:00002508       $pdata$__acrt_lowio_ensure_fh_exists 0000000180080508     libucrt:osfinfo.obj
 0004:00002514       $pdata$__acrt_lowio_set_os_handle 0000000180080514     libucrt:osfinfo.obj
 0004:00002520       $pdata$_alloc_osfhnd       0000000180080520     libucrt:osfinfo.obj
 0004:0000252c       $pdata$_free_osfhnd        000000018008052c     libucrt:osfinfo.obj
 0004:00002538       $pdata$_get_osfhandle      0000000180080538     libucrt:osfinfo.obj
 0004:00002544       $pdata$_wrename            0000000180080544     libucrt:wrename.obj
 0004:00002550       $pdata$?write_double_translated_ansi_nolock@@YA?AUwrite_result@?A0x9c548279@@HQEBDI@Z 0000000180080550     libucrt:write.obj
 0004:0000255c       $pdata$?write_text_ansi_nolock@@YA?AUwrite_result@?A0x9c548279@@HQEBDI@Z 000000018008055c     libucrt:write.obj
 0004:00002568       $pdata$?write_text_utf16le_nolock@@YA?AUwrite_result@?A0x9c548279@@HQEBDI@Z 0000000180080568     libucrt:write.obj
 0004:00002574       $pdata$?write_text_utf8_nolock@@YA?AUwrite_result@?A0x9c548279@@HQEBDI@Z 0000000180080574     libucrt:write.obj
 0004:00002580       $pdata$_write              0000000180080580     libucrt:write.obj
 0004:0000258c       $pdata$_write_nolock       000000018008058c     libucrt:write.obj
 0004:00002598       $pdata$__pctype_func       0000000180080598     libucrt:ctype.obj
 0004:000025a4       $pdata$_isctype_l          00000001800805a4     libucrt:isctype.obj
 0004:000025b0       $pdata$fegetround          00000001800805b0     libucrt:fegetround.obj
 0004:000025bc       $pdata$_strnicoll_l        00000001800805bc     libucrt:strnicol.obj
 0004:000025c8       $pdata$__acrt_initialize_locks 00000001800805c8     libucrt:locks.obj
 0004:000025d4       $pdata$__acrt_uninitialize_locks 00000001800805d4     libucrt:locks.obj
 0004:000025e0       $pdata$??$common_expand_argv_wildcards@D@@YAHQEAPEADQEAPEAPEAD@Z 00000001800805e0     libucrt:argv_wildcards.obj
 0004:000025ec       $pdata$??$copy_and_add_argument_to_buffer@D@@YAHQEBD0_KAEAV?$argument_list@D@?A0xca0879c4@@@Z 00000001800805ec     libucrt:argv_wildcards.obj
 0004:000025f8       $pdata$??$expand_argument_wildcards@D@@YAHQEAD0AEAV?$argument_list@D@?A0xca0879c4@@@Z 00000001800805f8     libucrt:argv_wildcards.obj
 0004:00002604       $pdata$?expand_if_necessary@?$argument_list@D@?A0xca0879c4@@AEAAHXZ 0000000180080604     libucrt:argv_wildcards.obj
 0004:00002610       $pdata$??$?RV<lambda_99476a1ad63dd22509b5d3e65b0ffc95>@@AEAV<lambda_ad1ced32f4ac17aa236e5ef05d6b3b7c>@@V<lambda_f7424dd8d45958661754dc4f2697e9c3>@@@?$__crt_seh_guarded_call@X@@QEAAX$$QEAV<lambda_99476a1ad63dd22509b5d3e65b0ffc95>@@AEAV<lambda_ad1ced32f4ac17aa236e5ef05d6b3b7c>@@$$QEAV<lambda_f7424dd8d45958661754dc4f2697e9c3>@@@Z 0000000180080610     libucrt:mbctype.obj
 0004:0000261c       $pdata$??R<lambda_ad1ced32f4ac17aa236e5ef05d6b3b7c>@@QEBAXXZ 000000018008061c     libucrt:mbctype.obj
 0004:00002628       $pdata$?getSystemCP@@YAHH@Z 0000000180080628     libucrt:mbctype.obj
 0004:00002634       $pdata$?setSBCS@@YAXPEAU__crt_multibyte_data@@@Z 0000000180080634     libucrt:mbctype.obj
 0004:00002640       $pdata$?setSBUpLow@@YAXPEAU__crt_multibyte_data@@@Z 0000000180080640     libucrt:mbctype.obj
 0004:0000264c       $pdata$?setmbcp_internal@@YAHH_N@Z 000000018008064c     libucrt:mbctype.obj
 0004:00002658       $pdata$__acrt_initialize_multibyte 0000000180080658     libucrt:mbctype.obj
 0004:00002664       $pdata$__acrt_update_thread_multibyte_data 0000000180080664     libucrt:mbctype.obj
 0004:00002670       $pdata$_setmbcp_nolock     0000000180080670     libucrt:mbctype.obj
 0004:0000267c       $pdata$?x_ismbbtype_l@@YAHPEAU__crt_locale_pointers@@IHH@Z 000000018008067c     libucrt:ismbbyte.obj
 0004:00002688       $pdata$__acrt_initialize_command_line 0000000180080688     libucrt:argv_data.obj
 0004:00002694       $pdata$__dcrt_get_narrow_environment_from_os 0000000180080694     libucrt:get_environment_from_os.obj
 0004:000026a0       $pdata$??$common_set_variable_in_environment_nolock@D@@YAHQEADH@Z 00000001800806a0     libucrt:setenv.obj
 0004:000026ac       $pdata$??$copy_environment@D@@YAPEAPEADQEAPEAD@Z 00000001800806ac     libucrt:setenv.obj
 0004:000026b8       $pdata$_recalloc_base      00000001800806b8     libucrt:recalloc.obj
 0004:000026c4       $pdata$__acrt_initialize_heap 00000001800806c4     libucrt:heap_handle.obj
 0004:000026d0       $pdata$__acrt_execute_initializers 00000001800806d0     libucrt:shared_initialization.obj
 0004:000026dc       $pdata$__acrt_execute_uninitializers 00000001800806dc     libucrt:shared_initialization.obj
 0004:000026e8       $pdata$??$?RV<lambda_c36588078e9f5dfd39652860aa6b3aaf>@@AEAV<lambda_ec61778202f4f5fc7e7711acc23c3bca>@@V<lambda_dc9d2797ccde5d239b4a0efae8ebd7db>@@@?$__crt_seh_guarded_call@P6AXH@Z@@QEAAP6AXH@Z$$QEAV<lambda_c36588078e9f5dfd39652860aa6b3aaf>@@AEAV<lambda_ec61778202f4f5fc7e7711acc23c3bca>@@$$QEAV<lambda_dc9d2797ccde5d239b4a0efae8ebd7db>@@@Z 00000001800806e8     libucrt:signal.obj
 0004:000026f4       $pdata$__acrt_get_sigabrt_handler 00000001800806f4     libucrt:signal.obj
 0004:00002700       $pdata$raise               0000000180080700     libucrt:signal.obj
 0004:0000270c       $pdata$__acrt_invoke_user_matherr 000000018008070c     libucrt:matherr.obj
 0004:00002718       $pdata$_isatty             0000000180080718     libucrt:isatty.obj
 0004:00002724       $pdata$??$common_lseek@_J@@YA_JH_JH@Z 0000000180080724     libucrt:lseek.obj
 0004:00002730       $pdata$??$common_lseek_nolock@_J@@YA_JH_JH@Z 0000000180080730     libucrt:lseek.obj
 0004:0000273c       $pdata$__acrt_stdio_allocate_buffer_nolock 000000018008073c     libucrt:_getbuf.obj
 0004:00002748       $pdata$__acrt_free_locale  0000000180080748     libucrt:locale_refcounting.obj
 0004:00002754       $pdata$__acrt_locale_free_lc_time_if_unreferenced 0000000180080754     libucrt:locale_refcounting.obj
 0004:00002760       $pdata$__acrt_release_locale_ref 0000000180080760     libucrt:locale_refcounting.obj
 0004:0000276c       $pdata$__acrt_update_thread_locale_data 000000018008076c     libucrt:locale_refcounting.obj
 0004:00002778       $pdata$_updatetlocinfoEx_nolock 0000000180080778     libucrt:locale_refcounting.obj
 0004:00002790       $pdata$_strnicmp           0000000180080790     libucrt:strnicmp.obj
 0004:0000279c       $pdata$_strnicmp_l         000000018008079c     libucrt:strnicmp.obj
 0004:000027a8       $pdata$??$common_sopen_dispatch@D@@YAHQEBDHHHQEAHH@Z 00000001800807a8     libucrt:open.obj
 0004:000027b4       $pdata$?configure_text_mode@@YAHHUfile_options@?A0x656cf9f4@@HAEAW4__crt_lowio_text_mode@@@Z 00000001800807b4     libucrt:open.obj
 0004:000027c0       $pdata$?decode_options@@YA?AUfile_options@?A0x656cf9f4@@HHH@Z 00000001800807c0     libucrt:open.obj
 0004:000027cc       $pdata$?truncate_ctrl_z_if_present@@YAHH@Z 00000001800807cc     libucrt:open.obj
 0004:000027d8       $pdata$_sopen_nolock       00000001800807d8     libucrt:open.obj
 0004:000027e4       $pdata$_sopen_s            00000001800807e4     libucrt:open.obj
 0004:000027f0       $pdata$_wsopen_nolock      00000001800807f0     libucrt:open.obj
 0004:000027fc       $pdata$?GetTableIndexFromLocaleName@@YAHPEB_W@Z 00000001800807fc     libucrt:lcidtoname_downlevel.obj
 0004:00002808       $pdata$__acrt_DownlevelLocaleNameToLCID 0000000180080808     libucrt:lcidtoname_downlevel.obj
 0004:00002814       $pdata$??$?RV<lambda_b521505b218e5242e90febf6bfebc422>@@AEAV<lambda_6978c1fb23f02e42e1d9e99668cc68aa>@@V<lambda_314360699dd331753a4119843814e9a7>@@@?$__crt_seh_guarded_call@H@@QEAAH$$QEAV<lambda_b521505b218e5242e90febf6bfebc422>@@AEAV<lambda_6978c1fb23f02e42e1d9e99668cc68aa>@@$$QEAV<lambda_314360699dd331753a4119843814e9a7>@@@Z 0000000180080814     libucrt:commit.obj
 0004:00002820       $pdata$_commit             0000000180080820     libucrt:commit.obj
 0004:0000282c       $pdata$_isleadbyte_l       000000018008082c     libucrt:_wctype.obj
 0004:00002838       $pdata$?__acrt_LCMapStringA_stat@@YAHPEAU__crt_locale_pointers@@PEB_WKPEBDHPEADHHH@Z 0000000180080838     libucrt:lcmapstringa.obj
 0004:00002844       $pdata$__acrt_LCMapStringA 0000000180080844     libucrt:lcmapstringa.obj
 0004:00002850       $pdata$__acrt_fp_strflt_to_string 0000000180080850     libucrt:_fptostr.obj
 0004:0000285c       $pdata$__acrt_fltout       000000018008085c     libucrt:cfout.obj
 0004:00002868       $pdata$__acrt_locale_free_monetary 0000000180080868     libucrt:initmon.obj
 0004:00002874       $pdata$__acrt_locale_free_numeric 0000000180080874     libucrt:initnum.obj
 0004:00002880       $pdata$?free_crt_array_internal@@YAXQEAPEBX_K@Z 0000000180080880     libucrt:inittime.obj
 0004:0000288c       $pdata$__acrt_locale_free_time 000000018008088c     libucrt:inittime.obj
 0004:00002898       $pdata$__acrt_GetStringTypeA 0000000180080898     libucrt:getstringtypea.obj
 0004:000028a4       $pdata$strcat_s            00000001800808a4     libucrt:strcat_s.obj
 0004:000028b0       $pdata$??$construct_environment_block@D@@YAHQEBQEBDQEAPEAD@Z 00000001800808b0     libucrt:cenvarg.obj
 0004:000028bc       $pdata$__acrt_pack_narrow_command_line_and_environment 00000001800808bc     libucrt:cenvarg.obj
 0004:000028c8       $pdata$__acrt_getpath      00000001800808c8     libucrt:getpath.obj
 0004:000028d4       $pdata$_putwch_nolock      00000001800808d4     libucrt:putwch.obj
 0004:000028e0       $pdata$_getfpcontrolword   00000001800808e0     libucrt:_fenvutils.obj
 0004:000028ec       $pdata$_getfpstatusword    00000001800808ec     libucrt:_fenvutils.obj
 0004:000028f8       $pdata$_setfpstatusword    00000001800808f8     libucrt:_fenvutils.obj
 0004:00002904       $pdata$?InternalCompareStringA@@YAHPEAU__crt_locale_pointers@@PEB_WKPEBDH2HH@Z 0000000180080904     libucrt:comparestringa.obj
 0004:00002910       $pdata$__acrt_CompareStringA 0000000180080910     libucrt:comparestringa.obj
 0004:0000291c       $pdata$?shortsort@@YAXPEAD0_KP6AHPEBX2@Z@Z 000000018008091c     libucrt:qsort.obj
 0004:00002928       $pdata$2$?shortsort@@YAXPEAD0_KP6AHPEBX2@Z@Z 0000000180080928     libucrt:qsort.obj
 0004:00002934       $pdata$3$?shortsort@@YAXPEAD0_KP6AHPEBX2@Z@Z 0000000180080934     libucrt:qsort.obj
 0004:00002940       $pdata$qsort               0000000180080940     libucrt:qsort.obj
 0004:0000294c       $pdata$4$qsort             000000018008094c     libucrt:qsort.obj
 0004:00002958       $pdata$5$qsort             0000000180080958     libucrt:qsort.obj
 0004:00002964       $pdata$strncpy_s           0000000180080964     libucrt:strncpy_s.obj
 0004:00002970       $pdata$strpbrk             0000000180080970     libucrt:strpbrk.obj
 0004:0000297c       $pdata$_mbsdec_l           000000018008097c     libucrt:mbsdec.obj
 0004:00002988       $pdata$?initialize_multibyte@@YAHXZ 0000000180080988     libucrt:multibyte_initializer.obj
 0004:00002994       $pdata$_msize              0000000180080994     libucrt:msize.obj
 0004:000029a0       $pdata$_realloc_base       00000001800809a0     libucrt:realloc_base.obj
 0004:000029ac       $pdata$_chsize_nolock      00000001800809ac     libucrt:chsize.obj
 0004:000029b8       $pdata$??$translate_text_mode_nolock@_W@@YAHHQEA_W_K@Z 00000001800809b8     libucrt:read.obj
 0004:000029c4       $pdata$?translate_ansi_or_utf8_nolock@@YAHHQEAD_KQEA_W1@Z 00000001800809c4     libucrt:read.obj
 0004:000029d0       $pdata$_read_nolock        00000001800809d0     libucrt:read.obj
 0004:000029dc       $pdata$fegetenv            00000001800809dc     libucrt:fegetenv.obj
 0004:000029e8       $pdata$fesetenv            00000001800809e8     libucrt:fesetenv.obj
 0004:000029f4       $pdata$feholdexcept        00000001800809f4     libucrt:feholdexcept.obj
 0004:00002a0c       $pdata$__dcrt_lowio_initialize_console_output 0000000180080a0c     libucrt:initcon.obj
 0004:00002a18       $pdata$__dcrt_terminate_console_output 0000000180080a18     libucrt:initcon.obj
 0004:00002a24       $pdata$_clearfp            0000000180080a24     libucrt:ieee.obj
 0004:00002a30       $pdata$common_control87    0000000180080a30     libucrt:ieee.obj
 0004:00002a48       $pdata$_call_matherr       0000000180080a48     libucrt:libm_error.obj
 0004:00002a54       $pdata$_exception_enabled  0000000180080a54     libucrt:libm_error.obj
 0004:00002a60       $pdata$_handle_error       0000000180080a60     libucrt:libm_error.obj
 0004:00002a6c       $pdata$_handle_errorf      0000000180080a6c     libucrt:libm_error.obj
 0004:00002a78       $pdata$__acrt_initialize_fma3 0000000180080a78     libucrt:fma3_available.obj
 0004:00002a84       $pdata$_log10_special      0000000180080a84     libucrt:log_special.obj
 0004:00002a90       $pdata$_log_special        0000000180080a90     libucrt:log_special.obj
 0004:00002a9c       $pdata$_log_special_common 0000000180080a9c     libucrt:log_special.obj
 0004:00002aa8       $pdata$_raise_exc          0000000180080aa8     libucrt:fpexcept.obj
 0004:00002ab4       $pdata$_raise_exc_ex       0000000180080ab4     libucrt:fpexcept.obj
 0004:00002ac0       $pdata$_raise_excf         0000000180080ac0     libucrt:fpexcept.obj
 0004:00002acc       $pdata$_set_errno_from_matherr 0000000180080acc     libucrt:fpexcept.obj
 0004:00002ad8       $pdata$_clrfp              0000000180080ad8     libucrt:fpctrl.obj
 0004:00002ae4       $pdata$_ctrlfp             0000000180080ae4     libucrt:fpctrl.obj
 0004:00002af0       $pdata$_set_statfp         0000000180080af0     libucrt:fpctrl.obj
 0004:00002afc       $pdata$_statfp             0000000180080afc     libucrt:fpctrl.obj
 0004:00002b08       $pdata$?DloadAcquireSectionWriteAccess@@YAXXZ 0000000180080b08     DelayImp:delayhlp.obj
 0004:00002b14       $pdata$?DloadGetSRWLockFunctionPointers@@YAEXZ 0000000180080b14     DelayImp:delayhlp.obj
 0004:00002b20       $pdata$?DloadMakePermanentImageCommit@@YAXPEAX_K@Z 0000000180080b20     DelayImp:delayhlp.obj
 0004:00002b2c       $pdata$?DloadObtainSection@@YAPEAXPEAK0@Z 0000000180080b2c     DelayImp:delayhlp.obj
 0004:00002b38       $pdata$?DloadProtectSection@@YAXKPEAK@Z 0000000180080b38     DelayImp:delayhlp.obj
 0004:00002b44       $pdata$?DloadReleaseSectionWriteAccess@@YAXXZ 0000000180080b44     DelayImp:delayhlp.obj
 0004:00002b50       $pdata$__delayLoadHelper2  0000000180080b50     DelayImp:delayhlp.obj
 0004:00002b5c       $pdata$_IsNonwritableInCurrentImage 0000000180080b5c     LIBCMT:pesect.obj
 0004:00002b68       $pdata$__GSHandlerCheck    0000000180080b68     LIBCMT:_gshandler_.obj
 0004:00002b74       $pdata$__GSHandlerCheckCommon 0000000180080b74     LIBCMT:_gshandler_.obj
 0004:00002b8c       $pdata$strrchr             0000000180080b8c     libvcruntime:strrchr.obj
 0004:00002ba4       $pdata$__GSHandlerCheck_EH 0000000180080ba4     LIBCMT:gshandlereh.obj
 0004:00002bb0       $pdata$?_ExecutionInCatch@@YAHPEAU_xDISPATCHER_CONTEXT@@PEBU_s_FuncInfo@@@Z 0000000180080bb0     libvcruntime:trnsctrl.obj
 0004:00002bbc       $pdata$?_GetEstablisherFrame@@YAPEA_KPEA_KPEAU_xDISPATCHER_CONTEXT@@PEBU_s_FuncInfo@@0@Z 0000000180080bbc     libvcruntime:trnsctrl.obj
 0004:00002bc8       $pdata$?_GetRangeOfTrysToCheck@@YAPEBU_s_TryBlockMapEntry@@PEA_KPEBU_s_FuncInfo@@HHPEAI2PEAU_xDISPATCHER_CONTEXT@@@Z 0000000180080bc8     libvcruntime:trnsctrl.obj
 0004:00002bd4       $pdata$?__FrameUnwindToEmptyState@@YAXPEA_KPEAU_xDISPATCHER_CONTEXT@@PEBU_s_FuncInfo@@@Z 0000000180080bd4     libvcruntime:trnsctrl.obj
 0004:00002be0       $pdata$?__SehTransFilter@@YAHPEAU_EXCEPTION_POINTERS@@PEAUEHExceptionRecord@@PEA_KPEAU_CONTEXT@@PEAU_xDISPATCHER_CONTEXT@@PEBU_s_FuncInfo@@PEAH@Z 0000000180080be0     libvcruntime:trnsctrl.obj
 0004:00002bec       $pdata$_CallSETranslator   0000000180080bec     libvcruntime:trnsctrl.obj
 0004:00002bf8       $pdata$_CreateFrameInfo    0000000180080bf8     libvcruntime:trnsctrl.obj
 0004:00002c04       $pdata$_FindAndUnlinkFrame 0000000180080c04     libvcruntime:trnsctrl.obj
 0004:00002c10       $pdata$_GetImageBase       0000000180080c10     libvcruntime:trnsctrl.obj
 0004:00002c1c       $pdata$_GetThrowImageBase  0000000180080c1c     libvcruntime:trnsctrl.obj
 0004:00002c28       $pdata$_IsExceptionObjectToBeDestroyed 0000000180080c28     libvcruntime:trnsctrl.obj
 0004:00002c34       $pdata$_SetImageBase       0000000180080c34     libvcruntime:trnsctrl.obj
 0004:00002c40       $pdata$_SetThrowImageBase  0000000180080c40     libvcruntime:trnsctrl.obj
 0004:00002c4c       $pdata$_UnwindNestedFrames 0000000180080c4c     libvcruntime:trnsctrl.obj
 0004:00002c58       $pdata$__CxxFrameHandler3  0000000180080c58     libvcruntime:trnsctrl.obj
 0004:00002c64       $pdata$?__GetCurrentState@@YAHPEA_KPEAU_xDISPATCHER_CONTEXT@@PEBU_s_FuncInfo@@@Z 0000000180080c64     libvcruntime:ehstate.obj
 0004:00002c70       $pdata$?__GetUnwindTryBlock@@YAHPEA_KPEAU_xDISPATCHER_CONTEXT@@PEBU_s_FuncInfo@@@Z 0000000180080c70     libvcruntime:ehstate.obj
 0004:00002c7c       $pdata$?__SetUnwindTryBlock@@YAXPEA_KPEAU_xDISPATCHER_CONTEXT@@PEBU_s_FuncInfo@@H@Z 0000000180080c7c     libvcruntime:ehstate.obj
 0004:00002c88       $pdata$?__StateFromIp@@YAHPEBU_s_FuncInfo@@PEAU_xDISPATCHER_CONTEXT@@_J@Z 0000000180080c88     libvcruntime:ehstate.obj
 0004:00002c94       $pdata$__DestructExceptionObject 0000000180080c94     libvcruntime:frame.obj
 0004:00002ca0       $pdata$??0bad_exception@std@@QEAA@AEBV01@@Z 0000000180080ca0     libvcruntime:frame.obj
 0004:00002cac       $pdata$?CatchIt@@YAXPEAUEHExceptionRecord@@PEA_KPEAU_CONTEXT@@PEAU_xDISPATCHER_CONTEXT@@PEBU_s_FuncInfo@@PEBU_s_HandlerType@@PEBU_s_CatchableType@@PEBU_s_TryBlockMapEntry@@H1EE@Z 0000000180080cac     libvcruntime:frame.obj
 0004:00002cb8       $pdata$?ExFilterRethrow@@YAHPEAU_EXCEPTION_POINTERS@@PEAUEHExceptionRecord@@PEAH@Z 0000000180080cb8     libvcruntime:frame.obj
 0004:00002cc4       $pdata$?FindHandler@@YAXPEAUEHExceptionRecord@@PEA_KPEAU_CONTEXT@@PEAU_xDISPATCHER_CONTEXT@@PEBU_s_FuncInfo@@EH1@Z 0000000180080cc4     libvcruntime:frame.obj
 0004:00002cd0       $pdata$?FindHandlerForForeignException@@YAXPEAUEHExceptionRecord@@PEA_KPEAU_CONTEXT@@PEAU_xDISPATCHER_CONTEXT@@PEBU_s_FuncInfo@@HH1@Z 0000000180080cd0     libvcruntime:frame.obj
 0004:00002cdc       $pdata$?IsInExceptionSpec@@YAEPEAUEHExceptionRecord@@PEBU_s_ESTypeList@@@Z 0000000180080cdc     libvcruntime:frame.obj
 0004:00002ce8       $pdata$__BuildCatchObject  0000000180080ce8     libvcruntime:frame.obj
 0004:00002cf4       $pdata$__BuildCatchObjectHelper 0000000180080cf4     libvcruntime:frame.obj
 0004:00002d00       $pdata$__CxxCallCatchBlock 0000000180080d00     libvcruntime:frame.obj
 0004:00002d0c       $pdata$__FrameUnwindFilter 0000000180080d0c     libvcruntime:frame.obj
 0004:00002d18       $pdata$__FrameUnwindToState 0000000180080d18     libvcruntime:frame.obj
 0004:00002d24       $pdata$__InternalCxxFrameHandler 0000000180080d24     libvcruntime:frame.obj
 0004:00002d30       $pdata$__TypeMatch         0000000180080d30     libvcruntime:frame.obj
 0004:00002db4       $pdata$_sincosf_special    0000000180080db4     libucrt:sincos_special.obj
 0004:00002dc0       $pdata$_exp_special        0000000180080dc0     libucrt:exp_special.obj
 0004:00002dcc       $pdata$_expf_special       0000000180080dcc     libucrt:exp_special.obj
 0004:00002df0       $pdata$?catch$0@?0???0CImgInstanceException@cimg_library@@QEAA@QEBDZZ@4HA 0000000180080df0     cap.obj
 0004:00002dfc       $pdata$?catch$0@?0???0CImgArgumentException@cimg_library@@QEAA@QEBDZZ@4HA 0000000180080dfc     cap.obj
 0004:00002e08       $pdata$?catch$0@?0???0CImgIOException@cimg_library@@QEAA@QEBDZZ@4HA 0000000180080e08     cap.obj
 0004:00002e14       $pdata$?catch$0@?0???0?$CImg@E@cimg_library@@QEAA@AEBU01@@Z@4HA 0000000180080e14     cap.obj
 0004:00002e20       $pdata$?catch$0@?0???0?$CImg@E@cimg_library@@QEAA@IIIIE@Z@4HA 0000000180080e20     cap.obj
 0004:00002e2c       $pdata$?catch$0@?0???0?$CImg@E@cimg_library@@QEAA@IIII@Z@4HA 0000000180080e2c     cap.obj
 0004:00002e38       $pdata$?catch$2@?0??save_other@?$CImg@E@cimg_library@@QEBAAEBU12@QEBDI@Z@4HA 0000000180080e38     cap.obj
 0004:00002e44       $pdata$?catch$1@?0??save_other@?$CImg@E@cimg_library@@QEBAAEBU12@QEBDI@Z@4HA 0000000180080e44     cap.obj
 0004:00002e50       $pdata$?catch$0@?0??save_other@?$CImg@E@cimg_library@@QEBAAEBU12@QEBDI@Z@4HA 0000000180080e50     cap.obj
 0004:00002e5c       $pdata$?catch$0@?0???0?$CImg@E@cimg_library@@QEAA@AEBU01@_N@Z@4HA 0000000180080e5c     cap.obj
 0004:00002e68       $pdata$?catch$0@?0???0?$CImg@I@cimg_library@@QEAA@IIII@Z@4HA 0000000180080e68     cap.obj
 0004:00002e74       $pdata$?catch$0@?0??assign@?$CImg@D@cimg_library@@QEAAAEAU12@QEBDIIII@Z@4HA 0000000180080e74     cap.obj
 0004:00002e80       $pdata$?catch$0@?0???0?$CImg@M@cimg_library@@QEAA@IIIIM@Z@4HA 0000000180080e80     cap.obj
 0004:00002e8c       $pdata$?catch$0@?0???0?$CImg@M@cimg_library@@QEAA@IIII@Z@4HA 0000000180080e8c     cap.obj
 0004:00002e98       $pdata$?catch$0@?0??assign@?$CImg@E@cimg_library@@QEAAAEAU12@IIII@Z@4HA 0000000180080e98     cap.obj
 0004:00002ea4       $pdata$?catch$0@?0???0?$CImg@K@cimg_library@@QEAA@IIII@Z@4HA 0000000180080ea4     cap.obj
 0004:00002eb0       $pdata$?catch$0@?0???0?$CImg@G@cimg_library@@QEAA@IIII@Z@4HA 0000000180080eb0     cap.obj
 0004:00002ebc       $pdata$?catch$0@?0??assign@?$CImg@D@cimg_library@@QEAAAEAU12@IIII@Z@4HA 0000000180080ebc     cap.obj
 0004:00002ec8       $pdata$?catch$0@?0???0?$CImg@D@cimg_library@@QEAA@QEBDIIII_N@Z@4HA 0000000180080ec8     cap.obj
 0004:00002ed4       $pdata$?catch$0@?0???0?$CImg@D@cimg_library@@QEAA@AEBU01@@Z@4HA 0000000180080ed4     cap.obj
 0004:00002ee0       $pdata$?catch$0@?0???0?$CImg@D@cimg_library@@QEAA@AEBU01@_N@Z@4HA 0000000180080ee0     cap.obj
 0004:00002eec       $pdata$?catch$0@?0???0?$CImg@M@cimg_library@@QEAA@AEBU01@@Z@4HA 0000000180080eec     cap.obj
 0004:00002ef8       $pdata$?catch$0@?0??assign@?$CImg@E@cimg_library@@QEAAAEAU12@QEBEIIII@Z@4HA 0000000180080ef8     cap.obj
 0004:00002f04       $pdata$?catch$0@?0???0?$CImg@M@cimg_library@@QEAA@AEBU01@_N@Z@4HA 0000000180080f04     cap.obj
 0004:00002f10       $pdata$?catch$0@?0??assign@?$CImg@M@cimg_library@@QEAAAEAU12@IIII@Z@4HA 0000000180080f10     cap.obj
 0004:00002f1c       $pdata$?catch$0@?0??assign@?$CImg@M@cimg_library@@QEAAAEAU12@QEBMIIII@Z@4HA 0000000180080f1c     cap.obj
 0004:00002f28       $pdata$__scrt_is_nonwritable_in_current_image$filt$0 0000000180080f28     LIBCMT:utility.obj
 0004:00002f34       $pdata$?fin$0@?0??dllmain_crt_process_attach@@YAHQEAUHINSTANCE__@@QEAX@Z@4HA 0000000180080f34     LIBCMT:dll_dllmain.obj
 0004:00002f40       $pdata$?fin$0@?0??dllmain_crt_process_detach@@YAH_N@Z@4HA 0000000180080f40     LIBCMT:dll_dllmain.obj
 0004:00002f4c       $pdata$?filt$0@?0??dllmain_dispatch@@YAHQEAUHINSTANCE__@@KQEAX@Z@4HA 0000000180080f4c     LIBCMT:dll_dllmain.obj
 0004:00002f58       $pdata$fputc$fin$0         0000000180080f58     libucrt:fputc.obj
 0004:00002f64       $pdata$?fin$0@?0???$common_fsopen@D@@YAPEAU_iobuf@@QEBD0H@Z@4HA 0000000180080f64     libucrt:fopen.obj
 0004:00002f70       $pdata$fclose$fin$0        0000000180080f70     libucrt:fclose.obj
 0004:00002f7c       $pdata$?fin$0@?0???$?RV<lambda_aa279a7bcb127014629d5b1d62c7325d>@@AEAV<lambda_0a64b6a4deda75c01876f29c44fc5eb3>@@V<lambda_3323e69fbefe9d1a11713e670d47cdfa>@@@?$__crt_seh_guarded_call@H@@QEAAH$$QEAV<lambda_aa279a7bcb127014629d5b1d62c7325d>@@AEAV<lambda_0a64b6a4deda75c01876f29c44fc5eb3>@@$$QEAV<lambda_3323e69fbefe9d1a11713e670d47cdfa>@@@Z@4HA 0000000180080f7c     libucrt:output.obj
 0004:00002f7c       $pdata$?fin$0@?0???$?RV<lambda_5d4c3fee44080f75d5d9762853974fe0>@@AEAV<lambda_532e024f4337e6fc7ad266c2bef9f4ed>@@V<lambda_c87bdc10097eb2402edb8ba9bdf0697b>@@@?$__crt_seh_guarded_call@_K@@QEAA_K$$QEAV<lambda_5d4c3fee44080f75d5d9762853974fe0>@@AEAV<lambda_532e024f4337e6fc7ad266c2bef9f4ed>@@$$QEAV<lambda_c87bdc10097eb2402edb8ba9bdf0697b>@@@Z@4HA 0000000180080f7c     libucrt:fwrite.obj
 0004:00002f88       $pdata$?fin$0@?0???$common_dupenv_s@D@@YAHQEAPEADQEA_KQEBDH2H@Z@4HA 0000000180080f88     libucrt:getenv.obj
 0004:00002f94       $pdata$?fin$0@?0???$common_getenv@D@@YAPEADQEBD@Z@4HA 0000000180080f94     libucrt:getenv.obj
 0004:00002fa0       $pdata$_query_new_handler$fin$0 0000000180080fa0     libucrt:new_handler.obj
 0004:00002fac       $pdata$?filt$0@?0??common_exit@@YAXHW4_crt_exit_cleanup_mode@@W4_crt_exit_return_mode@@@Z@4HA 0000000180080fac     libucrt:exit.obj
 0004:00002fb8       $pdata$?fin$1@?0??common_exit@@YAXHW4_crt_exit_cleanup_mode@@W4_crt_exit_return_mode@@@Z@4HA 0000000180080fb8     libucrt:exit.obj
 0004:00002fc4       $pdata$?fin$0@?0???$?RV<lambda_72d1df2b273a38828b1ce30cbf4cdab5>@@AEAV<lambda_876a65b173b8412d3a47c70a915b0cf4>@@V<lambda_41932305e351933ebe8f8be3ed8bb5dc>@@@?$__crt_seh_guarded_call@X@@QEAAX$$QEAV<lambda_72d1df2b273a38828b1ce30cbf4cdab5>@@AEAV<lambda_876a65b173b8412d3a47c70a915b0cf4>@@$$QEAV<lambda_41932305e351933ebe8f8be3ed8bb5dc>@@@Z@4HA 0000000180080fc4     libucrt:per_thread_data.obj
 0004:00002fc4       $pdata$?fin$0@?0???$?RV<lambda_5e887d1dcbef67a5eb4283622ba103bf>@@AEAV<lambda_4466841279450cc726390878d4a41900>@@V<lambda_341c25c0346d94847f1f3c463c57e077>@@@?$__crt_seh_guarded_call@X@@QEAAX$$QEAV<lambda_5e887d1dcbef67a5eb4283622ba103bf>@@AEAV<lambda_4466841279450cc726390878d4a41900>@@$$QEAV<lambda_341c25c0346d94847f1f3c463c57e077>@@@Z@4HA 0000000180080fc4     libucrt:per_thread_data.obj
 0004:00002fc4       $pdata$?fin$0@?0???$?RV<lambda_c36588078e9f5dfd39652860aa6b3aaf>@@AEAV<lambda_ec61778202f4f5fc7e7711acc23c3bca>@@V<lambda_dc9d2797ccde5d239b4a0efae8ebd7db>@@@?$__crt_seh_guarded_call@P6AXH@Z@@QEAAP6AXH@Z$$QEAV<lambda_c36588078e9f5dfd39652860aa6b3aaf>@@AEAV<lambda_ec61778202f4f5fc7e7711acc23c3bca>@@$$QEAV<lambda_dc9d2797ccde5d239b4a0efae8ebd7db>@@@Z@4HA 0000000180080fc4     libucrt:signal.obj
 0004:00002fc4       $pdata$?fin$0@?0???$?RV<lambda_b8c45f8f788dd370798f47cfe8ac3a86>@@AEAV<lambda_4e60a939b0d047cfe11ddc22648dfba9>@@V<lambda_332c3edc96d0294ec56c57d38c1cdfd5>@@@?$__crt_seh_guarded_call@H@@QEAAH$$QEAV<lambda_b8c45f8f788dd370798f47cfe8ac3a86>@@AEAV<lambda_4e60a939b0d047cfe11ddc22648dfba9>@@$$QEAV<lambda_332c3edc96d0294ec56c57d38c1cdfd5>@@@Z@4HA 0000000180080fc4     libucrt:onexit.obj
 0004:00002fc4       $pdata$?fin$0@?0???$?RV<lambda_fb3a7dec4e47f37f22dae91bb15c9095>@@AEAV<lambda_698284760c8add0bfb0756c19673e34b>@@V<lambda_dfb8eca1e75fef3034a8fb18dd509707>@@@?$__crt_seh_guarded_call@X@@QEAAX$$QEAV<lambda_fb3a7dec4e47f37f22dae91bb15c9095>@@AEAV<lambda_698284760c8add0bfb0756c19673e34b>@@$$QEAV<lambda_dfb8eca1e75fef3034a8fb18dd509707>@@@Z@4HA 0000000180080fc4     libucrt:per_thread_data.obj
 0004:00002fc4       $pdata$?fin$0@?0???$?RV<lambda_99476a1ad63dd22509b5d3e65b0ffc95>@@AEAV<lambda_ad1ced32f4ac17aa236e5ef05d6b3b7c>@@V<lambda_f7424dd8d45958661754dc4f2697e9c3>@@@?$__crt_seh_guarded_call@X@@QEAAX$$QEAV<lambda_99476a1ad63dd22509b5d3e65b0ffc95>@@AEAV<lambda_ad1ced32f4ac17aa236e5ef05d6b3b7c>@@$$QEAV<lambda_f7424dd8d45958661754dc4f2697e9c3>@@@Z@4HA 0000000180080fc4     libucrt:mbctype.obj
 0004:00002fc4       $pdata$?fin$0@?0???$?RV<lambda_fb01e4b6cb0b58be62120d2a518119ce>@@AEAV<lambda_45edfab556fcff821d8a41c06e3d46c0>@@V<lambda_8a9bf702b7f902ca2f9107a173e0fbe3>@@@?$__crt_seh_guarded_call@_N@@QEAA_N$$QEAV<lambda_fb01e4b6cb0b58be62120d2a518119ce>@@AEAV<lambda_45edfab556fcff821d8a41c06e3d46c0>@@$$QEAV<lambda_8a9bf702b7f902ca2f9107a173e0fbe3>@@@Z@4HA 0000000180080fc4     libucrt:spawnv.obj
 0004:00002fc4       $pdata$?fin$0@?0???$?RV<lambda_46352004c1216016012b18bd6f87e700>@@AEAV<lambda_3bd07e1a1191394380780325891bf33f>@@V<lambda_334532d3f185bcaa59b5be82d7d22bff>@@@?$__crt_seh_guarded_call@X@@QEAAX$$QEAV<lambda_46352004c1216016012b18bd6f87e700>@@AEAV<lambda_3bd07e1a1191394380780325891bf33f>@@$$QEAV<lambda_334532d3f185bcaa59b5be82d7d22bff>@@@Z@4HA 0000000180080fc4     libucrt:per_thread_data.obj
 0004:00002fd0       $pdata$?fin$0@?0???$?RV<lambda_e24bbb7b643b32fcea6fa61b31d4c984>@@AEAV<lambda_275893d493268fdec8709772e3fcec0e>@@V<lambda_9d71df4d7cf3f480f8d633942495c3b0>@@@?$__crt_seh_guarded_call@H@@QEAAH$$QEAV<lambda_e24bbb7b643b32fcea6fa61b31d4c984>@@AEAV<lambda_275893d493268fdec8709772e3fcec0e>@@$$QEAV<lambda_9d71df4d7cf3f480f8d633942495c3b0>@@@Z@4HA 0000000180080fd0     libucrt:onexit.obj
 0004:00002fdc       $pdata$?fin$0@?0??__acrt_stdio_allocate_stream@@YA?AV__crt_stdio_stream@@XZ@4HA 0000000180080fdc     libucrt:stream.obj
 0004:00002fdc       $pdata$_fcloseall$fin$0    0000000180080fdc     libucrt:closeall.obj
 0004:00002fe8       $pdata$common_flush_all$fin$0 0000000180080fe8     libucrt:fflush.obj
 0004:00002ff4       $pdata$common_flush_all$fin$1 0000000180080ff4     libucrt:fflush.obj
 0004:00003000       $pdata$__acrt_initialize_lowio$fin$0 0000000180081000     libucrt:ioinit.obj
 0004:00003000       $pdata$__acrt_lowio_ensure_fh_exists$fin$0 0000000180081000     libucrt:osfinfo.obj
 0004:00003000       $pdata$_alloc_osfhnd$fin$0 0000000180081000     libucrt:osfinfo.obj
 0004:0000300c       $pdata$__acrt_update_thread_multibyte_data$fin$0 000000018008100c     libucrt:mbctype.obj
 0004:00003018       $pdata$raise$fin$0         0000000180081018     libucrt:signal.obj
 0004:00003024       $pdata$_write$fin$0        0000000180081024     libucrt:write.obj
 0004:00003024       $pdata$_setmode$fin$0      0000000180081024     libucrt:setmode.obj
 0004:00003024       $pdata$?fin$0@?0???$common_lseek@_J@@YA_JH_JH@Z@4HA 0000000180081024     libucrt:lseek.obj
 0004:00003030       $pdata$__acrt_uninitialize_locale$fin$0 0000000180081030     libucrt:wsetlocale.obj
 0004:00003030       $pdata$__acrt_update_thread_locale_data$fin$0 0000000180081030     libucrt:locale_refcounting.obj
 0004:0000303c       $pdata$?fin$0@?0???$common_sopen_dispatch@D@@YAHQEBDHHHQEAHH@Z@4HA 000000018008103c     libucrt:open.obj
 0004:00003048       $pdata$?fin$0@?0???$?RV<lambda_b521505b218e5242e90febf6bfebc422>@@AEAV<lambda_6978c1fb23f02e42e1d9e99668cc68aa>@@V<lambda_314360699dd331753a4119843814e9a7>@@@?$__crt_seh_guarded_call@H@@QEAAH$$QEAV<lambda_b521505b218e5242e90febf6bfebc422>@@AEAV<lambda_6978c1fb23f02e42e1d9e99668cc68aa>@@$$QEAV<lambda_314360699dd331753a4119843814e9a7>@@@Z@4HA 0000000180081048     libucrt:commit.obj
 0004:00003048       $pdata$?fin$0@?0???$?RV<lambda_bfedae4ebbf01fab1bb6dcc6a9e276e0>@@AEAV<lambda_2fe9b910cf3cbf4a0ab98a02ba45b3ec>@@V<lambda_237c231691f317818eb88cc1d5d642d6>@@@?$__crt_seh_guarded_call@H@@QEAAH$$QEAV<lambda_bfedae4ebbf01fab1bb6dcc6a9e276e0>@@AEAV<lambda_2fe9b910cf3cbf4a0ab98a02ba45b3ec>@@$$QEAV<lambda_237c231691f317818eb88cc1d5d642d6>@@@Z@4HA 0000000180081048     libucrt:close.obj
 0004:00003054       $pdata$common_control87$filt$0 0000000180081054     libucrt:ieee.obj
 0004:00003054       $pdata$_ctrlfp$filt$0      0000000180081054     libucrt:fpctrl.obj
 0004:00003060       $pdata$_IsNonwritableInCurrentImage$filt$0 0000000180081060     LIBCMT:pesect.obj
 0004:0000306c       $pdata$_CallSETranslator$filt$0 000000018008106c     libvcruntime:trnsctrl.obj
 0004:00003078       $pdata$__CxxCallCatchBlock$filt$0 0000000180081078     libvcruntime:frame.obj
 0004:00003084       $pdata$__CxxCallCatchBlock$fin$1 0000000180081084     libvcruntime:frame.obj
 0004:00003090       $pdata$__DestructExceptionObject$filt$0 0000000180081090     libvcruntime:frame.obj
 0004:0000309c       $pdata$__FrameUnwindToState$filt$0 000000018008109c     libvcruntime:frame.obj
 0004:000030a8       $pdata$__FrameUnwindToState$fin$1 00000001800810a8     libvcruntime:frame.obj
 0004:000030b4       $pdata$??__Ftext@img_obj@@YAXXZ 00000001800810b4     cap.obj
 0004:000030c0       $pdata$??__Ffilename@img_obj@@YAXXZ 00000001800810c0     cap.obj
 0005:00000000       __guard_fids__             0000000180082000     libucrt:initialization.obj
 0005:00000060       __guard_fids___acrt_initialize_ptd 0000000180082060     libucrt:per_thread_data.obj
 0005:00000064       __guard_fids__             0000000180082064     libucrt:stdio_initializer.obj
 0005:00000068       __guard_fids__             0000000180082068     libucrt:stdio_initializer.obj
 0005:0000006c       __guard_fids_??$expand_argument_wildcards@D@@YAHQEAD0AEAV?$argument_list@D@?A0xca0879c4@@@Z 000000018008206c     libucrt:argv_wildcards.obj
 0005:00000070       __guard_fids__             0000000180082070     libucrt:locale_initializer.obj
 0005:00000074       __guard_fids__             0000000180082074     libucrt:multibyte_initializer.obj
 0005:00000078       __guard_fids__             0000000180082078     libucrt:console_output_initializer.obj
 0005:0000007c       __guard_fids__             000000018008207c     libucrt:fma3_initializer.obj
 0005:00000080       __guard_fids__             0000000180082080     libcpmt:xthrow.obj
 0005:00000088       __guard_fids__             0000000180082088     libcpmt:xthrow.obj
 0005:00000090       __guard_fids__             0000000180082090     libcpmt:xthrow.obj
 0005:00000098       __guard_fids__             0000000180082098     libcpmt:xthrow.obj
 0005:000000a0       __guard_fids__             00000001800820a0     libcpmt:xthrow.obj
 0005:000000a8       __guard_fids__             00000001800820a8     LIBCMT:thread_safe_statics.obj
 0005:000000ac       __guard_fids_?__scrt_initialize_thread_safe_statics@@YAHXZ 00000001800820ac     LIBCMT:thread_safe_statics.obj
 0005:000000b0       __guard_fids__             00000001800820b0     LIBCMT:std_type_info_static.obj
 0005:000000b4       __guard_fids_?dllmain_crt_process_attach@@YAHQEAUHINSTANCE__@@QEAX@Z 00000001800820b4     LIBCMT:dll_dllmain.obj
 0005:000000bc       __guard_fids_?dllmain_dispatch@@YAHQEAUHINSTANCE__@@KQEAX@Z 00000001800820bc     LIBCMT:dll_dllmain.obj
 0005:000000c0       __guard_fids__             00000001800820c0     LIBCMT:throw_bad_alloc.obj
 0005:000000c8       __guard_fids__             00000001800820c8     LIBCMT:guard_support.obj
 0005:000000cc       __guard_fids___vcrt_initialize_ptd 00000001800820cc     libvcruntime:per_thread_data.obj
 0005:000000d0       __guard_fids__UnwindNestedFrames 00000001800820d0     libvcruntime:trnsctrl.obj
 0005:000000d4       __guard_fids__             00000001800820d4     libvcruntime:frame.obj
 0005:000000d8       __guard_fids__             00000001800820d8     libvcruntime:frame.obj
 0007:00000060       $R000000                   0000000180084060     * linker generated manifest res *

 Exports

  ordinal    name

        1    _register_hcaptha_
